	.file	"HJM_SimPath_Forward_Blocking.cpp"
	.text
.Ltext0:
	.section	.text.unlikely,"ax",@progbits
.LCOLDB0:
	.text
.LHOTB0:
	.p2align 4,,15
	.section	.text.unlikely
.Ltext_cold0:
	.text
	.globl	_Z7serialBPPdS0_iii
	.type	_Z7serialBPPdS0_iii, @function
_Z7serialBPPdS0_iii:
.LFB74:
	.file 1 "/if16/jad5ju/Progs/opensource/parsec-3.0//pkgs/apps/swaptions/src/HJM_SimPath_Forward_Blocking.cpp"
	.loc 1 61 0
	.cfi_startproc
.LBB5:
	.loc 1 64 0
	testl	%r8d, %r8d
	jle	.L32
.LBE5:
	.loc 1 61 0
	pushq	%r15
	.cfi_def_cfa_offset 16
	.cfi_offset 15, -16
	pushq	%r14
	.cfi_def_cfa_offset 24
	.cfi_offset 14, -24
	movl	%r8d, %eax
	pushq	%r13
	.cfi_def_cfa_offset 32
	.cfi_offset 13, -32
	pushq	%r12
	.cfi_def_cfa_offset 40
	.cfi_offset 12, -40
	subl	$1, %eax
	pushq	%rbp
	.cfi_def_cfa_offset 48
	.cfi_offset 6, -48
	pushq	%rbx
	.cfi_def_cfa_offset 56
	.cfi_offset 3, -56
	addq	$1, %rax
	movq	%rsi, %r14
	movq	%rdi, %rbp
.LBB8:
	.loc 1 64 0
	xorl	%r15d, %r15d
.LBE8:
	.loc 1 61 0
	subq	$56, %rsp
	.cfi_def_cfa_offset 112
	movl	%ecx, 40(%rsp)
	movl	%edx, 44(%rsp)
	movslq	%edx, %rcx
	subl	$1, %edx
	leaq	0(,%rcx,8), %rbx
	movq	%rax, 32(%rsp)
	leaq	1(%rcx,%rdx), %rdx
	salq	$3, %rdx
	movq	%rdx, 24(%rsp)
	.p2align 4,,10
	.p2align 3
.L3:
.LBB9:
.LBB6:
	.loc 1 65 0 discriminator 1
	movl	44(%rsp), %esi
	movq	%rbx, 8(%rsp)
	testl	%esi, %esi
	jle	.L6
	.p2align 4,,10
	.p2align 3
.L10:
.LBB7:
	.loc 1 66 0 discriminator 1
	cmpl	$1, 40(%rsp)
	jle	.L7
	movl	40(%rsp), %edi
	.loc 1 67 0 discriminator 3
	movq	8(%rsp), %r9
	.loc 1 66 0 discriminator 3
	movl	$2, %r13d
	.loc 1 67 0 discriminator 3
	movq	(%r14,%r15,8), %r10
	leal	-2(%rdi), %r8d
	movq	%r9, %r12
	addq	0(%rbp,%r15,8), %r12
	movsd	(%r10,%r9), %xmm0
	andl	$3, %r8d
	movl	%r8d, 16(%rsp)
	call	_Z12CumNormalInvd
	.loc 1 66 0 discriminator 3
	cmpl	40(%rsp), %r13d
	movq	8(%rsp), %r11
	.loc 1 67 0 discriminator 3
	movsd	%xmm0, (%r12)
	.loc 1 66 0 discriminator 3
	movl	16(%rsp), %eax
	leaq	(%r11,%rbx), %r12
	je	.L7
	testl	%eax, %eax
	je	.L11
	cmpl	$1, %eax
	je	.L25
	cmpl	$2, %eax
	je	.L26
	.loc 1 67 0
	movq	(%r14,%r15,8), %rcx
	movq	%r12, %r13
	addq	0(%rbp,%r15,8), %r13
	movsd	(%rcx,%r12), %xmm0
	addq	%rbx, %r12
	call	_Z12CumNormalInvd
	movsd	%xmm0, 0(%r13)
	.loc 1 66 0
	movl	$3, %r13d
.L26:
	.loc 1 67 0
	movq	(%r14,%r15,8), %rsi
	movq	%r12, %rdx
	addq	0(%rbp,%r15,8), %rdx
	.loc 1 66 0
	addl	$1, %r13d
	.loc 1 67 0
	movsd	(%rsi,%r12), %xmm0
	addq	%rbx, %r12
	movq	%rdx, 16(%rsp)
	call	_Z12CumNormalInvd
	movq	16(%rsp), %rdi
	movsd	%xmm0, (%rdi)
.L25:
	movq	(%r14,%r15,8), %r9
	movq	%r12, %r8
	addq	0(%rbp,%r15,8), %r8
	.loc 1 66 0
	addl	$1, %r13d
	.loc 1 67 0
	movsd	(%r9,%r12), %xmm0
	addq	%rbx, %r12
	movq	%r8, 16(%rsp)
	call	_Z12CumNormalInvd
	.loc 1 66 0
	cmpl	40(%rsp), %r13d
	.loc 1 67 0
	movq	16(%rsp), %r10
	movsd	%xmm0, (%r10)
	.loc 1 66 0
	je	.L7
.L11:
	.loc 1 67 0 discriminator 3
	movq	(%r14,%r15,8), %rax
	movq	%r12, %r11
	.loc 1 66 0 discriminator 3
	addl	$4, %r13d
	.loc 1 67 0 discriminator 3
	addq	0(%rbp,%r15,8), %r11
	movsd	(%rax,%r12), %xmm0
	addq	%rbx, %r12
	movq	%r11, 16(%rsp)
	call	_Z12CumNormalInvd
	movq	16(%rsp), %rcx
	movq	(%r14,%r15,8), %rsi
	movq	%r12, %rdx
	addq	0(%rbp,%r15,8), %rdx
	movsd	%xmm0, (%rcx)
	movsd	(%rsi,%r12), %xmm0
	addq	%rbx, %r12
	movq	%rdx, 16(%rsp)
	call	_Z12CumNormalInvd
	movq	16(%rsp), %rdi
	movq	(%r14,%r15,8), %r9
	movq	%r12, %r8
	addq	0(%rbp,%r15,8), %r8
	movsd	%xmm0, (%rdi)
	movsd	(%r9,%r12), %xmm0
	addq	%rbx, %r12
	movq	%r8, 16(%rsp)
	call	_Z12CumNormalInvd
	movq	16(%rsp), %r10
	movq	(%r14,%r15,8), %rax
	movq	%r12, %r11
	addq	0(%rbp,%r15,8), %r11
	movsd	%xmm0, (%r10)
	movsd	(%rax,%r12), %xmm0
	addq	%rbx, %r12
	movq	%r11, 16(%rsp)
	call	_Z12CumNormalInvd
	.loc 1 66 0 discriminator 3
	cmpl	40(%rsp), %r13d
	.loc 1 67 0 discriminator 3
	movq	16(%rsp), %rcx
	movsd	%xmm0, (%rcx)
	.loc 1 66 0 discriminator 3
	jne	.L11
.L7:
	addq	$8, 8(%rsp)
	movq	8(%rsp), %r12
.LBE7:
	.loc 1 65 0
	cmpq	24(%rsp), %r12
	jne	.L10
.L6:
	addq	$1, %r15
.LBE6:
	.loc 1 64 0
	cmpq	32(%rsp), %r15
	jne	.L3
.LBE9:
	.loc 1 71 0
	addq	$56, %rsp
	.cfi_def_cfa_offset 56
	popq	%rbx
	.cfi_restore 3
	.cfi_def_cfa_offset 48
	popq	%rbp
	.cfi_restore 6
	.cfi_def_cfa_offset 40
	popq	%r12
	.cfi_restore 12
	.cfi_def_cfa_offset 32
	popq	%r13
	.cfi_restore 13
	.cfi_def_cfa_offset 24
	popq	%r14
	.cfi_restore 14
	.cfi_def_cfa_offset 16
	popq	%r15
	.cfi_restore 15
	.cfi_def_cfa_offset 8
.L32:
	rep ret
	.cfi_endproc
.LFE74:
	.size	_Z7serialBPPdS0_iii, .-_Z7serialBPPdS0_iii
	.section	.text.unlikely
.LCOLDE0:
	.text
.LHOTE0:
	.section	.text.unlikely
.LCOLDB2:
	.text
.LHOTB2:
	.p2align 4,,15
	.globl	_Z28HJM_SimPath_Forward_BlockingPPdiidS_S_S0_Pli
	.type	_Z28HJM_SimPath_Forward_BlockingPPdiidS_S_S0_Pli, @function
_Z28HJM_SimPath_Forward_BlockingPPdiidS_S_S0_Pli:
.LFB75:
	.loc 1 82 0
	.cfi_startproc
.LVL0:
.LBB20:
	.loc 1 92 0
	pxor	%xmm1, %xmm1
.LBE20:
	.loc 1 82 0
	pushq	%r15
	.cfi_def_cfa_offset 16
	.cfi_offset 15, -16
	pushq	%r14
	.cfi_def_cfa_offset 24
	.cfi_offset 14, -24
	pushq	%r13
	.cfi_def_cfa_offset 32
	.cfi_offset 13, -32
	movl	%edx, %r14d
	pushq	%r12
	.cfi_def_cfa_offset 40
	.cfi_offset 12, -40
	pushq	%rbp
	.cfi_def_cfa_offset 48
	.cfi_offset 6, -48
.LBB36:
	.loc 1 92 0
	cvtsi2sd	%esi, %xmm1
.LBE36:
	.loc 1 82 0
	pushq	%rbx
	.cfi_def_cfa_offset 56
	.cfi_offset 3, -56
	movq	%rcx, %rbx
	subq	$168, %rsp
	.cfi_def_cfa_offset 224
	.loc 1 82 0
	movq	%rdi, 112(%rsp)
	movl	%esi, 60(%rsp)
	movq	%r8, 48(%rsp)
	movq	%r9, 152(%rsp)
	movq	224(%rsp), %r12
.LBB37:
	.loc 1 92 0
	divsd	%xmm1, %xmm0
.LVL1:
	.loc 1 93 0
	sqrtsd	%xmm0, %xmm7
	ucomisd	%xmm7, %xmm7
	.loc 1 92 0
	movsd	%xmm0, 24(%rsp)
.LVL2:
	.loc 1 93 0
	movsd	%xmm7, 32(%rsp)
	jp	.L252
.LVL3:
.L35:
	.loc 1 95 0
	movl	60(%rsp), %ebp
	movl	232(%rsp), %eax
	xorl	%edx, %edx
	xorl	%edi, %edi
	imull	%ebp, %eax
	subl	$1, %eax
	cltq
	movq	%rax, %r15
	movq	%rax, 128(%rsp)
	leal	-1(%r14), %eax
	movq	%r15, %rcx
	cltq
	movq	%rax, %r13
	movq	%rax, %rsi
	movq	%rax, 136(%rsp)
	call	_Z7dmatrixllll
.LVL4:
	.loc 1 96 0
	xorl	%edx, %edx
	movq	%r15, %rcx
	xorl	%edi, %edi
	movq	%r13, %rsi
	.loc 1 95 0
	movq	%rax, 104(%rsp)
.LVL5:
	.loc 1 96 0
	call	_Z7dmatrixllll
.LVL6:
.LBB21:
	.loc 1 102 0
	movl	232(%rsp), %ecx
.LBE21:
	.loc 1 96 0
	movq	%rax, 64(%rsp)
.LVL7:
	movl	232(%rsp), %edx
.LBB22:
	.loc 1 102 0
	testl	%ecx, %ecx
	jle	.L37
	movslq	232(%rsp), %r8
	leal	-1(%rdx), %esi
	leal	-10(%rbp), %r11d
	movq	112(%rsp), %r13
	movl	%ebp, %r10d
	movq	%r12, 224(%rsp)
	andl	$-8, %r11d
	leaq	8(,%rsi,8), %r15
	movl	%esi, 124(%rsp)
	addl	$9, %r11d
	xorl	%ebp, %ebp
	movq	%rsi, 8(%rsp)
	movq	%r8, 88(%rsp)
	salq	$3, %r8
	movl	%r14d, 16(%rsp)
	movq	%r8, %r9
	movq	%r8, 72(%rsp)
	movl	%r10d, %r8d
	movq	%r9, %r12
.LVL8:
.L38:
	.loc 1 103 0 discriminator 1
	testl	%r8d, %r8d
	jle	.L40
	movq	0(%r13), %r14
	.loc 1 103 0 is_stmt 0
	movq	%rbp, %rax
	xorl	%r10d, %r10d
.LVL9:
	.p2align 4,,10
	.p2align 3
.L41:
	.loc 1 104 0 is_stmt 1
	movsd	(%rbx,%r10,8), %xmm0
	.loc 1 106 0
	cmpl	$1, %r8d
	.loc 1 104 0
	movsd	%xmm0, (%r14,%rax)
.LVL10:
	.loc 1 106 0
	je	.L40
	cmpl	$9, %r8d
	jle	.L75
	.loc 1 107 0
	movq	8(%r13), %rsi
	leaq	208(%r13), %rdx
	movq	16(%r13), %rdi
	movq	24(%r13), %r9
	leal	-9(%r11), %ecx
	prefetcht0	(%rdx)
	movq	32(%r13), %rdx
	movq	$0, (%rsi,%rax)
	movq	40(%r13), %rsi
	shrl	$3, %ecx
	movq	$0, (%rdi,%rax)
	movq	$0, (%r9,%rax)
	andl	$1, %ecx
.LVL11:
	movq	$0, (%rdx,%rax)
.LVL12:
	movq	48(%r13), %rdi
	movq	56(%r13), %r9
	movq	64(%r13), %rdx
	movq	$0, (%rsi,%rax)
.LVL13:
	movl	$9, %esi
	cmpl	%r11d, %esi
	movq	$0, (%rdi,%rax)
.LVL14:
	movq	$0, (%r9,%rax)
.LVL15:
	movq	$0, (%rdx,%rax)
	leaq	272(%r13), %rdx
	je	.L42
	testl	%ecx, %ecx
	je	.L43
	movq	-200(%rdx), %rcx
	movq	-192(%rdx), %rsi
	prefetcht0	(%rdx)
	movq	-184(%rdx), %rdi
	movq	-176(%rdx), %r9
	movq	$0, (%rcx,%rax)
.LVL16:
	movq	$0, (%rsi,%rax)
.LVL17:
	movq	-168(%rdx), %rcx
	movq	-160(%rdx), %rsi
	movq	$0, (%rdi,%rax)
.LVL18:
	movq	-152(%rdx), %rdi
	movq	-144(%rdx), %rdx
	movq	$0, (%r9,%rax)
.LVL19:
	movq	$0, (%rcx,%rax)
.LVL20:
	movq	$0, (%rsi,%rax)
.LVL21:
	movl	$17, %esi
	cmpl	%r11d, %esi
	movq	$0, (%rdi,%rax)
.LVL22:
	movq	$0, (%rdx,%rax)
	leaq	336(%r13), %rdx
	je	.L42
.L43:
	.loc 1 107 0 is_stmt 0 discriminator 3
	movq	-200(%rdx), %r9
	movq	-192(%rdx), %rcx
	prefetcht0	(%rdx)
	movq	-184(%rdx), %rdi
	addl	$16, %esi
	movq	$0, (%r9,%rax)
.LVL23:
	movq	-176(%rdx), %r9
	movq	$0, (%rcx,%rax)
.LVL24:
	movq	-168(%rdx), %rcx
	movq	$0, (%rdi,%rax)
.LVL25:
	movq	-160(%rdx), %rdi
	movq	$0, (%r9,%rax)
.LVL26:
	movq	-152(%rdx), %r9
	movq	$0, (%rcx,%rax)
.LVL27:
	movq	-144(%rdx), %rcx
	movq	$0, (%rdi,%rax)
.LVL28:
	leaq	64(%rdx), %rdi
	subq	$-128, %rdx
	movq	$0, (%r9,%rax)
.LVL29:
	movq	-264(%rdx), %r9
	movq	$0, (%rcx,%rax)
.LVL30:
	movq	-256(%rdx), %rcx
	prefetcht0	(%rdi)
	movq	-248(%rdx), %rdi
	movq	$0, (%r9,%rax)
.LVL31:
	movq	-240(%rdx), %r9
	movq	$0, (%rcx,%rax)
.LVL32:
	movq	-232(%rdx), %rcx
	movq	$0, (%rdi,%rax)
.LVL33:
	movq	-224(%rdx), %rdi
	movq	$0, (%r9,%rax)
.LVL34:
	movq	-216(%rdx), %r9
	movq	$0, (%rcx,%rax)
.LVL35:
	movq	-208(%rdx), %rcx
	cmpl	%r11d, %esi
	movq	$0, (%rdi,%rax)
.LVL36:
	movq	$0, (%r9,%rax)
.LVL37:
	movq	$0, (%rcx,%rax)
.LVL38:
	jne	.L43
.LVL39:
.L42:
	movslq	%esi, %rdx
	movl	%esi, %edi
	leaq	0(%r13,%rdx,8), %r9
	notl	%edi
	addl	%r8d, %edi
	.loc 1 107 0
	movq	(%r9), %rcx
	andl	$7, %edi
	leaq	8(%r9), %rdx
	movq	$0, (%rcx,%rax)
	.loc 1 106 0 is_stmt 1
	leal	1(%rsi), %ecx
	cmpl	%ecx, %r8d
	jle	.L231
	testl	%edi, %edi
	je	.L44
	cmpl	$1, %edi
	je	.L199
	cmpl	$2, %edi
	je	.L200
	cmpl	$3, %edi
	je	.L201
	cmpl	$4, %edi
	je	.L202
	cmpl	$5, %edi
	je	.L203
	cmpl	$6, %edi
	je	.L204
	.loc 1 107 0
	movq	8(%r9), %rdx
	.loc 1 106 0
	leal	2(%rsi), %ecx
	.loc 1 107 0
	movq	$0, (%rdx,%rax)
	leaq	16(%r9), %rdx
.L204:
	movq	(%rdx), %rsi
	.loc 1 106 0
	addl	$1, %ecx
	addq	$8, %rdx
	.loc 1 107 0
	movq	$0, (%rsi,%rax)
.L203:
	movq	(%rdx), %r9
	.loc 1 106 0
	addl	$1, %ecx
	addq	$8, %rdx
	.loc 1 107 0
	movq	$0, (%r9,%rax)
.L202:
	movq	(%rdx), %rdi
	.loc 1 106 0
	addl	$1, %ecx
	addq	$8, %rdx
	.loc 1 107 0
	movq	$0, (%rdi,%rax)
.L201:
	movq	(%rdx), %rsi
	.loc 1 106 0
	addl	$1, %ecx
	addq	$8, %rdx
	.loc 1 107 0
	movq	$0, (%rsi,%rax)
.L200:
	movq	(%rdx), %r9
	.loc 1 106 0
	addl	$1, %ecx
	addq	$8, %rdx
	.loc 1 107 0
	movq	$0, (%r9,%rax)
.L199:
	movq	(%rdx), %rdi
	.loc 1 106 0
	addl	$1, %ecx
	addq	$8, %rdx
	cmpl	%ecx, %r8d
	.loc 1 107 0
	movq	$0, (%rdi,%rax)
	.loc 1 106 0
	jle	.L231
.L44:
	.loc 1 107 0
	movq	(%rdx), %rsi
	movq	8(%rdx), %r9
	.loc 1 106 0
	addl	$8, %ecx
	.loc 1 107 0
	movq	16(%rdx), %rdi
	addq	$64, %rdx
	movq	$0, (%rsi,%rax)
	movq	-40(%rdx), %rsi
	movq	$0, (%r9,%rax)
	movq	-32(%rdx), %r9
	movq	$0, (%rdi,%rax)
	movq	-24(%rdx), %rdi
	movq	$0, (%rsi,%rax)
	movq	-16(%rdx), %rsi
	movq	$0, (%r9,%rax)
	movq	-8(%rdx), %r9
	.loc 1 106 0
	cmpl	%ecx, %r8d
	.loc 1 107 0
	movq	$0, (%rdi,%rax)
	movq	$0, (%rsi,%rax)
	movq	$0, (%r9,%rax)
	.loc 1 106 0
	jg	.L44
.L231:
.LVL40:
	addq	$1, %r10
.LVL41:
	addq	%r12, %rax
	.loc 1 103 0
	cmpl	%r10d, %r8d
	jg	.L41
.L40:
	addq	$8, %rbp
	.loc 1 102 0
	cmpq	%r15, %rbp
	jne	.L38
	movl	16(%rsp), %r14d
	movq	8(%rsp), %r10
	movq	88(%rsp), %rax
	movq	72(%rsp), %rbp
	movq	224(%rsp), %r12
	leal	-9(%r14), %edx
	leaq	1(%r10,%rax), %rcx
	movq	%rbp, 80(%rsp)
	movl	%edx, 96(%rsp)
	shrl	$3, %edx
	leal	8(,%rdx,8), %ebx
.LVL42:
	salq	$3, %rcx
	movq	%rcx, 144(%rsp)
	movl	%ebx, 120(%rsp)
.LVL43:
.L46:
.LBE22:
.LBB23:
.LBB24:
	.loc 1 118 0
	cmpl	$1, 60(%rsp)
	movq	80(%rsp), %rbx
	movl	$1, 8(%rsp)
	jle	.L49
.LVL44:
	.p2align 4,,10
	.p2align 3
.L86:
	.loc 1 119 0
	testl	%r14d, %r14d
	jle	.L56
	cmpl	$8, %r14d
	jle	.L77
	movq	64(%rsp), %r8
	movl	120(%rsp), %r15d
	xorl	%r13d, %r13d
	movl	%r14d, 16(%rsp)
	leaq	80(%r8), %rbp
.LVL45:
	.p2align 4,,10
	.p2align 3
.L54:
	.loc 1 121 0
	movq	%rbx, %r14
	addq	-80(%rbp), %r14
	movq	%r12, %rdi
	prefetcht0	0(%rbp)
	call	_Z7RanUnifPl
.LVL46:
	movq	%r12, %rdi
	addl	$8, %r13d
	addq	$64, %rbp
	movsd	%xmm0, (%r14)
	movq	%rbx, %r14
	addq	-136(%rbp), %r14
	call	_Z7RanUnifPl
.LVL47:
	movq	%r12, %rdi
	movsd	%xmm0, (%r14)
	movq	%rbx, %r14
	addq	-128(%rbp), %r14
	call	_Z7RanUnifPl
.LVL48:
	movq	%r12, %rdi
	movsd	%xmm0, (%r14)
	movq	%rbx, %r14
	addq	-120(%rbp), %r14
	call	_Z7RanUnifPl
.LVL49:
	movq	%r12, %rdi
	movsd	%xmm0, (%r14)
	movq	%rbx, %r14
	addq	-112(%rbp), %r14
	call	_Z7RanUnifPl
.LVL50:
	movq	%r12, %rdi
	movsd	%xmm0, (%r14)
	movq	%rbx, %r14
	addq	-104(%rbp), %r14
	call	_Z7RanUnifPl
.LVL51:
	movq	%r12, %rdi
	movsd	%xmm0, (%r14)
	movq	%rbx, %r14
	addq	-96(%rbp), %r14
	call	_Z7RanUnifPl
.LVL52:
	movq	%r12, %rdi
	movsd	%xmm0, (%r14)
	movq	%rbx, %r14
	addq	-88(%rbp), %r14
	call	_Z7RanUnifPl
.LVL53:
	cmpl	%r15d, %r13d
	movsd	%xmm0, (%r14)
	jne	.L54
	movl	16(%rsp), %r14d
.L53:
	movq	64(%rsp), %rdi
	movslq	%r13d, %r11
	movl	%r13d, %r9d
	notl	%r9d
	movq	%rbx, %rbp
	.loc 1 119 0
	leal	1(%r13), %r15d
	addl	%r14d, %r9d
	leaq	(%rdi,%r11,8), %rsi
	andl	$7, %r9d
	.loc 1 121 0
	movq	%r12, %rdi
	movl	%r9d, 40(%rsp)
	addq	(%rsi), %rbp
	movq	%rsi, 16(%rsp)
	call	_Z7RanUnifPl
.LVL54:
	movq	16(%rsp), %r10
	.loc 1 119 0
	cmpl	%r15d, %r14d
	movl	40(%rsp), %eax
	.loc 1 121 0
	movsd	%xmm0, 0(%rbp)
	leaq	8(%r10), %rbp
	.loc 1 119 0
	jle	.L56
	testl	%eax, %eax
	je	.L55
	cmpl	$1, %eax
	je	.L193
	cmpl	$2, %eax
	je	.L194
	cmpl	$3, %eax
	je	.L195
	cmpl	$4, %eax
	je	.L196
	cmpl	$5, %eax
	je	.L197
	cmpl	$6, %eax
	je	.L198
	.loc 1 121 0
	movq	%rbx, %r15
	movq	%r12, %rdi
	addq	8(%r10), %r15
	movq	%r10, 16(%rsp)
	call	_Z7RanUnifPl
.LVL55:
	movq	16(%rsp), %rcx
	movsd	%xmm0, (%r15)
	.loc 1 119 0
	leal	2(%r13), %r15d
	leaq	16(%rcx), %rbp
.L198:
	.loc 1 121 0
	movq	%rbx, %rdx
	addq	0(%rbp), %rdx
	movq	%r12, %rdi
	.loc 1 119 0
	addl	$1, %r15d
	addq	$8, %rbp
	.loc 1 121 0
	movq	%rdx, 16(%rsp)
	call	_Z7RanUnifPl
.LVL56:
	movq	16(%rsp), %r8
	movsd	%xmm0, (%r8)
.L197:
	movq	%rbx, %r13
	addq	0(%rbp), %r13
	movq	%r12, %rdi
	.loc 1 119 0
	addl	$1, %r15d
	addq	$8, %rbp
	.loc 1 121 0
	movq	%r13, 16(%rsp)
	call	_Z7RanUnifPl
.LVL57:
	movq	16(%rsp), %r11
	movsd	%xmm0, (%r11)
.L196:
	movq	%rbx, %rdi
	addq	0(%rbp), %rdi
	.loc 1 119 0
	addl	$1, %r15d
	addq	$8, %rbp
	.loc 1 121 0
	movq	%rdi, 16(%rsp)
	movq	%r12, %rdi
	call	_Z7RanUnifPl
.LVL58:
	movq	16(%rsp), %rsi
	movsd	%xmm0, (%rsi)
.L195:
	movq	%rbx, %r9
	addq	0(%rbp), %r9
	movq	%r12, %rdi
	.loc 1 119 0
	addl	$1, %r15d
	addq	$8, %rbp
	.loc 1 121 0
	movq	%r9, 16(%rsp)
	call	_Z7RanUnifPl
.LVL59:
	movq	16(%rsp), %r10
	movsd	%xmm0, (%r10)
.L194:
	movq	%rbx, %rax
	addq	0(%rbp), %rax
	movq	%r12, %rdi
	.loc 1 119 0
	addl	$1, %r15d
	addq	$8, %rbp
	.loc 1 121 0
	movq	%rax, 16(%rsp)
	call	_Z7RanUnifPl
.LVL60:
	movq	16(%rsp), %rcx
	movsd	%xmm0, (%rcx)
.L193:
	movq	%rbx, %rdx
	addq	0(%rbp), %rdx
	movq	%r12, %rdi
	.loc 1 119 0
	addl	$1, %r15d
	addq	$8, %rbp
	.loc 1 121 0
	movq	%rdx, 16(%rsp)
	call	_Z7RanUnifPl
.LVL61:
	movq	16(%rsp), %r8
	.loc 1 119 0
	cmpl	%r15d, %r14d
	.loc 1 121 0
	movsd	%xmm0, (%r8)
	.loc 1 119 0
	jle	.L56
.L55:
	.loc 1 121 0
	movq	%rbx, %r13
	addq	0(%rbp), %r13
	movq	%r12, %rdi
	call	_Z7RanUnifPl
.LVL62:
	movq	%r12, %rdi
	.loc 1 119 0
	addl	$8, %r15d
	addq	$64, %rbp
	.loc 1 121 0
	movsd	%xmm0, 0(%r13)
	movq	%rbx, %r13
	addq	-56(%rbp), %r13
	call	_Z7RanUnifPl
.LVL63:
	movq	%r12, %rdi
	movsd	%xmm0, 0(%r13)
	movq	%rbx, %r13
	addq	-48(%rbp), %r13
	call	_Z7RanUnifPl
.LVL64:
	movq	%r12, %rdi
	movsd	%xmm0, 0(%r13)
	movq	%rbx, %r13
	addq	-40(%rbp), %r13
	call	_Z7RanUnifPl
.LVL65:
	movq	%r12, %rdi
	movsd	%xmm0, 0(%r13)
	movq	%rbx, %r13
	addq	-32(%rbp), %r13
	call	_Z7RanUnifPl
.LVL66:
	movq	%r12, %rdi
	movsd	%xmm0, 0(%r13)
	movq	%rbx, %r13
	addq	-24(%rbp), %r13
	call	_Z7RanUnifPl
.LVL67:
	movq	%r12, %rdi
	movsd	%xmm0, 0(%r13)
	movq	%rbx, %r13
	addq	-16(%rbp), %r13
	call	_Z7RanUnifPl
.LVL68:
	movq	%r12, %rdi
	movsd	%xmm0, 0(%r13)
	movq	%rbx, %r13
	addq	-8(%rbp), %r13
	call	_Z7RanUnifPl
.LVL69:
	.loc 1 119 0
	cmpl	%r15d, %r14d
	.loc 1 121 0
	movsd	%xmm0, 0(%r13)
	.loc 1 119 0
	jg	.L55
.L56:
	.loc 1 118 0
	addl	$1, 8(%rsp)
.LVL70:
	addq	72(%rsp), %rbx
	movl	8(%rsp), %r15d
.LVL71:
	cmpl	60(%rsp), %r15d
	jne	.L86
.LVL72:
.L49:
	addq	$8, 80(%rsp)
	movq	80(%rsp), %rbp
.LBE24:
	.loc 1 116 0
	cmpq	144(%rsp), %rbp
	jne	.L46
.LVL73:
.LBE23:
.LBB26:
.LBB27:
	.loc 1 64 0
	testl	%r14d, %r14d
	jle	.L64
.LVL74:
.L50:
	movl	124(%rsp), %esi
	movq	88(%rsp), %r11
.LBB28:
	.loc 1 65 0
	xorl	%eax, %eax
	movq	104(%rsp), %rbp
	movl	%r14d, 72(%rsp)
	movq	%rax, %rcx
	leaq	0(,%r11,8), %rbx
	leaq	1(%rsi,%r11), %r9
	leaq	0(,%r9,8), %r10
	movq	%r10, 40(%rsp)
.LVL75:
.L61:
	movl	232(%rsp), %edx
	movq	%rbx, 8(%rsp)
	testl	%edx, %edx
	jle	.L59
	movq	64(%rsp), %r14
	movq	%rcx, %r15
.LVL76:
	.p2align 4,,10
	.p2align 3
.L84:
.LBB29:
	.loc 1 66 0
	cmpl	$1, 60(%rsp)
	jle	.L60
	movl	60(%rsp), %r8d
	.loc 1 67 0
	movq	8(%rsp), %r13
	movq	(%r14,%r15,8), %r11
	leal	-2(%r8), %r12d
	movsd	(%r11,%r13), %xmm0
	andl	$3, %r12d
	movl	%r12d, 16(%rsp)
	movq	%r13, %r12
	.loc 1 66 0
	movl	$2, %r13d
	.loc 1 67 0
	addq	0(%rbp,%r15,8), %r12
	call	_Z12CumNormalInvd
.LVL77:
	.loc 1 66 0
	cmpl	60(%rsp), %r13d
	movq	8(%rsp), %rdi
	movl	16(%rsp), %esi
	.loc 1 67 0
	movsd	%xmm0, (%r12)
	leaq	(%rdi,%rbx), %r12
	.loc 1 66 0
	je	.L60
	testl	%esi, %esi
	je	.L85
	cmpl	$1, %esi
	je	.L191
	cmpl	$2, %esi
	je	.L192
	.loc 1 67 0
	movq	(%r14,%r15,8), %r9
	movq	%r12, %r13
	addq	0(%rbp,%r15,8), %r13
	movsd	(%r9,%r12), %xmm0
	addq	%rbx, %r12
	call	_Z12CumNormalInvd
.LVL78:
	movsd	%xmm0, 0(%r13)
	.loc 1 66 0
	movl	$3, %r13d
.L192:
	.loc 1 67 0
	movq	(%r14,%r15,8), %rax
	movq	%r12, %r10
	addq	0(%rbp,%r15,8), %r10
	.loc 1 66 0
	addl	$1, %r13d
	.loc 1 67 0
	movsd	(%rax,%r12), %xmm0
	addq	%rbx, %r12
	movq	%r10, 16(%rsp)
	call	_Z12CumNormalInvd
.LVL79:
	movq	16(%rsp), %rcx
	movsd	%xmm0, (%rcx)
.L191:
	movq	(%r14,%r15,8), %r8
	movq	%r12, %rdx
	addq	0(%rbp,%r15,8), %rdx
	.loc 1 66 0
	addl	$1, %r13d
	.loc 1 67 0
	movsd	(%r8,%r12), %xmm0
	addq	%rbx, %r12
	movq	%rdx, 16(%rsp)
	call	_Z12CumNormalInvd
.LVL80:
	.loc 1 66 0
	cmpl	60(%rsp), %r13d
	.loc 1 67 0
	movq	16(%rsp), %r11
	movsd	%xmm0, (%r11)
	.loc 1 66 0
	je	.L60
.L85:
	.loc 1 67 0
	movq	(%r14,%r15,8), %rsi
	movq	%r12, %rdi
	.loc 1 66 0
	addl	$4, %r13d
	.loc 1 67 0
	addq	0(%rbp,%r15,8), %rdi
	movsd	(%rsi,%r12), %xmm0
	addq	%rbx, %r12
	movq	%rdi, 16(%rsp)
	call	_Z12CumNormalInvd
.LVL81:
	movq	16(%rsp), %r9
	movq	(%r14,%r15,8), %rax
	movq	%r12, %r10
	addq	0(%rbp,%r15,8), %r10
	movsd	%xmm0, (%r9)
	movsd	(%rax,%r12), %xmm0
	addq	%rbx, %r12
	movq	%r10, 16(%rsp)
	call	_Z12CumNormalInvd
.LVL82:
	movq	16(%rsp), %rcx
	movq	(%r14,%r15,8), %r8
	movq	%r12, %rdx
	addq	0(%rbp,%r15,8), %rdx
	movsd	%xmm0, (%rcx)
	movsd	(%r8,%r12), %xmm0
	addq	%rbx, %r12
	movq	%rdx, 16(%rsp)
	call	_Z12CumNormalInvd
.LVL83:
	movq	16(%rsp), %r11
	movq	(%r14,%r15,8), %rsi
	movq	%r12, %rdi
	addq	0(%rbp,%r15,8), %rdi
	movsd	%xmm0, (%r11)
	movsd	(%rsi,%r12), %xmm0
	addq	%rbx, %r12
	movq	%rdi, 16(%rsp)
	call	_Z12CumNormalInvd
.LVL84:
	.loc 1 66 0
	cmpl	60(%rsp), %r13d
	.loc 1 67 0
	movq	16(%rsp), %r9
	movsd	%xmm0, (%r9)
	.loc 1 66 0
	jne	.L85
.LVL85:
.L60:
	addq	$8, 8(%rsp)
	movq	8(%rsp), %r12
.LBE29:
	.loc 1 65 0
	cmpq	40(%rsp), %r12
	jne	.L84
	movq	%r15, %rcx
.L59:
.LVL86:
	addq	$1, %rcx
.LVL87:
.LBE28:
	.loc 1 64 0
	cmpl	%ecx, 72(%rsp)
	jg	.L61
	movl	72(%rsp), %r14d
.LVL88:
.LBE27:
.LBE26:
.LBB31:
	.loc 1 144 0
	movl	232(%rsp), %ebp
	leal	-9(%r14), %ebx
	testl	%ebp, %ebp
	movl	%ebx, 96(%rsp)
	jle	.L51
.LVL89:
.L64:
	movl	96(%rsp), %r13d
	movq	88(%rsp), %r15
	pxor	%xmm5, %xmm5
	movq	104(%rsp), %rbp
	movq	152(%rsp), %rbx
	.loc 1 147 0
	movq	$0, 96(%rsp)
	shrl	$3, %r13d
	salq	$3, %r15
	leal	8(,%r13,8), %r13d
	movq	%r15, 80(%rsp)
	movq	%r15, 40(%rsp)
.LVL90:
.L73:
	.loc 1 145 0 discriminator 1
	movl	60(%rsp), %r10d
	cmpl	$1, %r10d
	jle	.L71
	movq	96(%rsp), %rcx
	movq	112(%rsp), %rax
	subl	$2, %r10d
	movl	232(%rsp), %edx
	movl	%r10d, 8(%rsp)
	movq	%rcx, %r8
	addq	$8, %rax
	addl	%ecx, %edx
	salq	$3, %r8
	movq	%rax, 72(%rsp)
	movl	%edx, 120(%rsp)
	movq	%r8, 88(%rsp)
.LVL91:
	.p2align 4,,10
	.p2align 3
.L74:
	movq	72(%rsp), %rdi
	movslq	120(%rsp), %rdx
	.loc 1 147 0 discriminator 1
	xorl	%r10d, %r10d
	movq	80(%rsp), %rsi
	movq	88(%rsp), %r12
	xorl	%eax, %eax
	xorl	%r11d, %r11d
	addq	-8(%rdi), %rsi
	addq	(%rdi), %r12
	salq	$3, %rdx
	movq	%rsi, 16(%rsp)
.LVL92:
	.p2align 4,,10
	.p2align 3
.L72:
	.loc 1 150 0 discriminator 1
	testl	%r14d, %r14d
	jle	.L79
	.loc 1 150 0 is_stmt 0
	xorl	%edi, %edi
	cmpl	$8, %r14d
	movapd	%xmm5, %xmm4
	jle	.L68
	leaq	120(%rbx), %r15
	leaq	120(%rbp), %rcx
	xorl	%edi, %edi
	movapd	%xmm5, %xmm4
.LVL93:
	.p2align 4,,10
	.p2align 3
.L67:
	.loc 1 151 0 is_stmt 1 discriminator 3
	movq	-120(%r15), %r9
	movq	-120(%rcx), %r8
	prefetcht0	(%r15)
	movq	-112(%r15), %rsi
	prefetcht0	(%rcx)
	addl	$8, %edi
.LVL94:
	addq	$64, %r15
	addq	$64, %rcx
	movsd	(%r9,%rax), %xmm2
	movq	-176(%rcx), %r9
	movsd	(%rsi,%rax), %xmm6
	movq	-168(%r15), %rsi
	mulsd	(%r8,%rdx), %xmm2
	movq	-168(%rcx), %r8
	movsd	(%r9,%rdx), %xmm8
	movq	-160(%r15), %r9
	movsd	(%rsi,%rax), %xmm10
	movq	-160(%rcx), %rsi
	mulsd	%xmm6, %xmm8
	movsd	(%r8,%rdx), %xmm11
	movq	-152(%rcx), %r8
	movsd	(%r9,%rax), %xmm13
	movq	-152(%r15), %r9
	addsd	%xmm2, %xmm4
.LVL95:
	mulsd	%xmm10, %xmm11
	mulsd	(%rsi,%rdx), %xmm13
	movq	-144(%r15), %rsi
	movsd	(%r9,%rax), %xmm15
	movq	-144(%rcx), %r9
	addsd	%xmm8, %xmm4
.LVL96:
	mulsd	(%r8,%rdx), %xmm15
	movq	-136(%rcx), %r8
	movsd	(%rsi,%rax), %xmm7
	movq	-136(%r15), %rsi
	mulsd	(%r9,%rdx), %xmm7
	movq	-128(%r15), %r9
	movapd	%xmm4, %xmm12
	movsd	(%rsi,%rax), %xmm3
	movq	-128(%rcx), %rsi
	cmpl	%r13d, %edi
	addsd	%xmm11, %xmm12
.LVL97:
	mulsd	(%r8,%rdx), %xmm3
	movsd	(%r9,%rax), %xmm2
	movapd	%xmm7, %xmm0
	mulsd	(%rsi,%rdx), %xmm2
	addsd	%xmm12, %xmm13
.LVL98:
	movapd	%xmm3, %xmm4
	addsd	%xmm13, %xmm15
.LVL99:
	addsd	%xmm15, %xmm0
.LVL100:
	addsd	%xmm0, %xmm4
.LVL101:
	addsd	%xmm4, %xmm2
	movapd	%xmm2, %xmm4
.LVL102:
	jne	.L67
.LVL103:
.L68:
	movslq	%edi, %rsi
	leal	-1(%r14), %r9d
	salq	$3, %rsi
	leaq	(%rbx,%rsi), %r8
	addq	%rbp, %rsi
	subl	%edi, %r9d
	.loc 1 151 0 is_stmt 0
	movq	(%rsi), %rcx
	andl	$7, %r9d
.LVL104:
	movq	(%r8), %r15
	movsd	(%r15,%rax), %xmm3
	leal	1(%rdi), %r15d
	mulsd	(%rcx,%rdx), %xmm3
	.loc 1 150 0 is_stmt 1
	cmpl	%r15d, %r14d
	movl	$1, %ecx
	.loc 1 151 0
	addsd	%xmm4, %xmm3
.LVL105:
	.loc 1 150 0
	jle	.L66
	testl	%r9d, %r9d
	je	.L65
	cmpl	$1, %r9d
	je	.L185
	cmpl	$2, %r9d
	je	.L186
	cmpl	$3, %r9d
	je	.L187
	cmpl	$4, %r9d
	je	.L188
	cmpl	$5, %r9d
	je	.L189
	cmpl	$6, %r9d
	je	.L190
.LVL106:
	.loc 1 151 0
	movq	8(%r8), %r9
	movq	8(%rsi), %rcx
	movsd	(%r9,%rax), %xmm6
	mulsd	(%rcx,%rdx), %xmm6
	movl	$2, %ecx
	addsd	%xmm6, %xmm3
.LVL107:
.L190:
	movq	(%r8,%rcx,8), %r15
	movq	(%rsi,%rcx,8), %r9
	addq	$1, %rcx
	movsd	(%r15,%rax), %xmm8
	mulsd	(%r9,%rdx), %xmm8
	addsd	%xmm8, %xmm3
.LVL108:
.L189:
	movq	(%r8,%rcx,8), %r15
	movq	(%rsi,%rcx,8), %r9
	addq	$1, %rcx
	movsd	(%r15,%rax), %xmm9
	mulsd	(%r9,%rdx), %xmm9
	addsd	%xmm9, %xmm3
.LVL109:
.L188:
	movq	(%r8,%rcx,8), %r15
	movq	(%rsi,%rcx,8), %r9
	addq	$1, %rcx
	movsd	(%r15,%rax), %xmm10
	mulsd	(%r9,%rdx), %xmm10
	addsd	%xmm10, %xmm3
.LVL110:
.L187:
	movq	(%r8,%rcx,8), %r15
	movq	(%rsi,%rcx,8), %r9
	addq	$1, %rcx
	movsd	(%r15,%rax), %xmm11
	mulsd	(%r9,%rdx), %xmm11
	addsd	%xmm11, %xmm3
.LVL111:
.L186:
	movq	(%r8,%rcx,8), %r15
	movq	(%rsi,%rcx,8), %r9
	addq	$1, %rcx
	movsd	(%r15,%rax), %xmm12
	mulsd	(%r9,%rdx), %xmm12
	addsd	%xmm12, %xmm3
.LVL112:
.L185:
	movq	(%r8,%rcx,8), %r15
	movq	(%rsi,%rcx,8), %r9
	addq	$1, %rcx
	movsd	(%r15,%rax), %xmm13
	leal	(%rdi,%rcx), %r15d
	mulsd	(%r9,%rdx), %xmm13
	.loc 1 150 0
	cmpl	%r15d, %r14d
	.loc 1 151 0
	addsd	%xmm13, %xmm3
.LVL113:
	.loc 1 150 0
	jle	.L66
.LVL114:
.L65:
	.loc 1 151 0
	movq	(%r8,%rcx,8), %r15
	movq	(%rsi,%rcx,8), %r9
	movsd	(%r15,%rax), %xmm14
	mulsd	(%r9,%rdx), %xmm14
	leaq	1(%rcx), %r9
	movq	(%r8,%r9,8), %r15
	movq	(%rsi,%r9,8), %r9
	movsd	(%r15,%rax), %xmm15
	addsd	%xmm14, %xmm3
.LVL115:
	mulsd	(%r9,%rdx), %xmm15
	leaq	2(%rcx), %r9
	movq	(%r8,%r9,8), %r15
	movq	(%rsi,%r9,8), %r9
	movsd	(%r9,%rdx), %xmm7
	leaq	3(%rcx), %r9
	movsd	(%r15,%rax), %xmm1
	addsd	%xmm15, %xmm3
.LVL116:
	movq	(%r8,%r9,8), %r15
	movq	(%rsi,%r9,8), %r9
	mulsd	%xmm1, %xmm7
	movsd	(%r15,%rax), %xmm0
	movsd	(%r9,%rdx), %xmm4
	leaq	4(%rcx), %r9
	addsd	%xmm7, %xmm3
.LVL117:
	movq	(%r8,%r9,8), %r15
	mulsd	%xmm0, %xmm4
	movq	(%rsi,%r9,8), %r9
	movsd	(%r9,%rdx), %xmm2
	leaq	5(%rcx), %r9
	addsd	%xmm4, %xmm3
.LVL118:
	movsd	(%r15,%rax), %xmm8
	movq	(%r8,%r9,8), %r15
	movq	(%rsi,%r9,8), %r9
	mulsd	%xmm8, %xmm2
	movapd	%xmm3, %xmm9
	movsd	(%r9,%rdx), %xmm11
	leaq	6(%rcx), %r9
	movsd	(%r15,%rax), %xmm10
	addsd	%xmm2, %xmm9
.LVL119:
	movq	(%r8,%r9,8), %r15
	movq	(%rsi,%r9,8), %r9
	mulsd	%xmm10, %xmm11
	movsd	(%r9,%rdx), %xmm14
	leaq	7(%rcx), %r9
	movapd	%xmm9, %xmm12
	addq	$8, %rcx
	movsd	(%r15,%rax), %xmm13
	movq	(%r8,%r9,8), %r15
	addsd	%xmm11, %xmm12
.LVL120:
	movq	(%rsi,%r9,8), %r9
	mulsd	%xmm13, %xmm14
	movsd	(%r15,%rax), %xmm3
	leal	(%rdi,%rcx), %r15d
	movapd	%xmm12, %xmm15
	mulsd	(%r9,%rdx), %xmm3
	.loc 1 150 0
	cmpl	%r15d, %r14d
	.loc 1 151 0
	addsd	%xmm14, %xmm15
.LVL121:
	addsd	%xmm15, %xmm3
.LVL122:
	.loc 1 150 0
	jg	.L65
.LVL123:
.L66:
	.loc 1 154 0 discriminator 2
	movq	48(%rsp), %rdi
	movsd	24(%rsp), %xmm1
	movq	16(%rsp), %rsi
	mulsd	32(%rsp), %xmm3
	addl	$1, %r11d
.LVL124:
	mulsd	(%rdi,%rax), %xmm1
	addq	$8, %rax
	addsd	(%rsi,%r10), %xmm1
	addsd	%xmm1, %xmm3
	movsd	%xmm3, (%r12,%r10)
.LVL125:
	addq	40(%rsp), %r10
	.loc 1 147 0 discriminator 2
	cmpl	%r11d, 8(%rsp)
	jge	.L72
	subl	$1, 8(%rsp)
	addq	$8, 72(%rsp)
	movl	8(%rsp), %r12d
	movl	232(%rsp), %edx
	addl	%edx, 120(%rsp)
	.loc 1 145 0
	cmpl	$-1, %r12d
	jne	.L74
.LVL126:
.L71:
	addq	$1, 96(%rsp)
.LVL127:
	addq	$8, 80(%rsp)
	movq	96(%rsp), %r10
	.loc 1 144 0
	cmpl	%r10d, 232(%rsp)
	jg	.L73
.L51:
.LBE31:
	.loc 1 161 0
	movq	128(%rsp), %r14
	movq	136(%rsp), %r13
	xorl	%ecx, %ecx
	movq	104(%rsp), %rdi
	xorl	%esi, %esi
	movq	%r14, %r8
	movq	%r13, %rdx
	call	_Z12free_dmatrixPPdllll
.LVL128:
	.loc 1 162 0
	movq	64(%rsp), %rdi
	movq	%r14, %r8
	movq	%r13, %rdx
	xorl	%ecx, %ecx
	xorl	%esi, %esi
	call	_Z12free_dmatrixPPdllll
.LVL129:
.LBE37:
	.loc 1 165 0
	addq	$168, %rsp
	.cfi_remember_state
	.cfi_def_cfa_offset 56
	movl	$1, %eax
	popq	%rbx
	.cfi_def_cfa_offset 48
	popq	%rbp
	.cfi_def_cfa_offset 40
	popq	%r12
	.cfi_def_cfa_offset 32
	popq	%r13
	.cfi_def_cfa_offset 24
	popq	%r14
	.cfi_def_cfa_offset 16
	popq	%r15
	.cfi_def_cfa_offset 8
	ret
.LVL130:
	.p2align 4,,10
	.p2align 3
.L79:
	.cfi_restore_state
.LBB38:
.LBB32:
	.loc 1 150 0
	movapd	%xmm5, %xmm3
	jmp	.L66
.LVL131:
.L77:
.LBE32:
.LBB33:
.LBB25:
	.loc 1 119 0
	xorl	%r13d, %r13d
	jmp	.L53
.LVL132:
.L75:
.LBE25:
.LBE33:
.LBB34:
	.loc 1 106 0
	movl	$1, %esi
	jmp	.L42
.LVL133:
.L37:
	movslq	232(%rsp), %rbx
.LVL134:
	subl	$1, %edx
.LBE34:
.LBB35:
.LBB30:
	.loc 1 64 0
	testl	%r14d, %r14d
	movl	%edx, 124(%rsp)
	movq	%rbx, 88(%rsp)
	jg	.L50
	jmp	.L51
.LVL135:
.L252:
.LBE30:
.LBE35:
	.loc 1 93 0
	call	sqrt
.LVL136:
	movsd	%xmm0, 32(%rsp)
	jmp	.L35
.LBE38:
	.cfi_endproc
.LFE75:
	.size	_Z28HJM_SimPath_Forward_BlockingPPdiidS_S_S0_Pli, .-_Z28HJM_SimPath_Forward_BlockingPPdiidS_S_S0_Pli
	.section	.text.unlikely
.LCOLDE2:
	.text
.LHOTE2:
.Letext0:
	.section	.text.unlikely
.Letext_cold0:
	.file 2 "/usr/lib/gcc/x86_64-linux-gnu/4.9/include/stddef.h"
	.file 3 "/usr/include/x86_64-linux-gnu/bits/types.h"
	.file 4 "/usr/include/libio.h"
	.file 5 "/usr/include/c++/4.9/cstring"
	.file 6 "/usr/include/string.h"
	.file 7 "/usr/include/stdio.h"
	.file 8 "/if16/jad5ju/Progs/opensource/parsec-3.0//pkgs/apps/swaptions/src/HJM.h"
	.file 9 "/if16/jad5ju/Progs/opensource/parsec-3.0//pkgs/apps/swaptions/src/nr_routines.h"
	.file 10 "/usr/include/x86_64-linux-gnu/bits/mathcalls.h"
	.file 11 "<built-in>"
	.section	.note.GNU-stack,"",@progbits
