	.file	"nr_routines.c"
	.text
.Ltext0:
	.section	.rodata.str1.8,"aMS",@progbits,1
	.align 8
.LC0:
	.string	"Numerical Recipes run-time error...\n"
	.section	.rodata.str1.1,"aMS",@progbits,1
.LC1:
	.string	"%s\n"
.LC2:
	.string	"...now exiting to system...\n"
	.section	.text.unlikely,"ax",@progbits
.LCOLDB3:
	.text
.LHOTB3:
	.p2align 4,,15
	.section	.text.unlikely
.Ltext_cold0:
	.text
	.globl	_Z7nrerrorPKc
	.type	_Z7nrerrorPKc, @function
_Z7nrerrorPKc:
.LFB48:
	.file 1 "/if16/jad5ju/Progs/opensource/parsec-3.0//pkgs/apps/swaptions/src/nr_routines.c"
	.loc 1 13 0
	.cfi_startproc
.LVL0:
.LBB16:
.LBB17:
	.file 2 "/usr/include/x86_64-linux-gnu/bits/stdio2.h"
	.loc 2 98 0
	movq	stderr(%rip), %rcx
.LBE17:
.LBE16:
	.loc 1 13 0
	pushq	%rbx
	.cfi_def_cfa_offset 16
	.cfi_offset 3, -16
.LBB20:
.LBB18:
	.loc 2 98 0
	movl	$36, %edx
.LBE18:
.LBE20:
	.loc 1 13 0
	movq	%rdi, %rbx
.LBB21:
.LBB19:
	.loc 2 98 0
	movl	$1, %esi
	movl	$.LC0, %edi
.LVL1:
	call	fwrite
.LVL2:
.LBE19:
.LBE21:
.LBB22:
.LBB23:
	movq	stderr(%rip), %rdi
	movq	%rbx, %rcx
	movl	$.LC1, %edx
	movl	$1, %esi
	xorl	%eax, %eax
	call	__fprintf_chk
.LVL3:
.LBE23:
.LBE22:
.LBB24:
.LBB25:
	movq	stderr(%rip), %rcx
	movl	$.LC2, %edi
	movl	$28, %edx
	movl	$1, %esi
	call	fwrite
.LVL4:
.LBE25:
.LBE24:
	.loc 1 18 0
	movl	$1, %edi
	call	exit
.LVL5:
	.cfi_endproc
.LFE48:
	.size	_Z7nrerrorPKc, .-_Z7nrerrorPKc
	.section	.text.unlikely
.LCOLDE3:
	.text
.LHOTE3:
	.section	.text.unlikely
.LCOLDB5:
	.text
.LHOTB5:
	.p2align 4,,15
	.globl	_Z6choldcPPdi
	.type	_Z6choldcPPdi, @function
_Z6choldcPPdi:
.LFB49:
	.loc 1 25 0
	.cfi_startproc
.LVL6:
.LBB26:
	.loc 1 36 0
	testl	%esi, %esi
	jle	.L82
.LBE26:
	.loc 1 25 0
	pushq	%r15
	.cfi_def_cfa_offset 16
	.cfi_offset 15, -16
	pushq	%r14
	.cfi_def_cfa_offset 24
	.cfi_offset 14, -24
.LBB27:
	.loc 1 36 0
	movq	$-160, %r11
.LBE27:
	.loc 1 25 0
	pushq	%r13
	.cfi_def_cfa_offset 32
	.cfi_offset 13, -32
	pushq	%r12
	.cfi_def_cfa_offset 40
	.cfi_offset 12, -40
	movq	%rdi, %r13
	pushq	%rbp
	.cfi_def_cfa_offset 48
	.cfi_offset 6, -48
	pushq	%rbx
	.cfi_def_cfa_offset 56
	.cfi_offset 3, -56
.LBB28:
	.loc 1 36 0
	movl	$8, %r10d
	xorl	%r15d, %r15d
.LBE28:
	.loc 1 25 0
	subq	$40, %rsp
	.cfi_def_cfa_offset 96
	movl	%esi, 12(%rsp)
.LBB29:
	.loc 1 36 0
	movl	$1, 8(%rsp)
.LVL7:
	.p2align 4,,10
	.p2align 3
.L4:
	movl	8(%rsp), %r14d
.LBE29:
	.loc 1 25 0 discriminator 1
	movq	%r10, %rbx
	movl	%r14d, %eax
	leal	-9(%r14), %r12d
	subl	$10, %eax
	andl	$-8, %eax
	subl	%eax, %r12d
.LVL8:
	.p2align 4,,10
	.p2align 3
.L15:
.LBB30:
	.loc 1 38 0
	movq	0(%r13,%r10), %rbp
	testl	%r15d, %r15d
	movsd	0(%rbp,%rbx), %xmm1
.LVL9:
	je	.L6
	cmpl	$9, 8(%rsp)
	movq	0(%r13,%rbx), %r9
	jle	.L21
	leaq	0(%rbp,%r11), %rdi
	leaq	(%r9,%r11), %rsi
	movl	%r15d, %r8d
	subl	%r12d, %r8d
	leal	-8(%r15), %ecx
	movsd	160(%rdi), %xmm0
	subl	$8, %r8d
	prefetcht0	(%rdi)
	movsd	152(%rdi), %xmm2
	shrl	$3, %r8d
	prefetcht0	(%rsi)
	mulsd	160(%rsi), %xmm0
	andl	$1, %r8d
	cmpl	%r12d, %ecx
	mulsd	152(%rsi), %xmm2
	leaq	-64(%rdi), %rdx
	leaq	-64(%rsi), %rax
	movsd	144(%rdi), %xmm3
	movsd	136(%rdi), %xmm4
	mulsd	144(%rsi), %xmm3
	mulsd	136(%rsi), %xmm4
	subsd	%xmm0, %xmm1
.LVL10:
	movsd	128(%rdi), %xmm5
	movsd	120(%rdi), %xmm6
	mulsd	128(%rsi), %xmm5
	mulsd	120(%rsi), %xmm6
	subsd	%xmm2, %xmm1
.LVL11:
	movsd	112(%rdi), %xmm7
	movsd	104(%rdi), %xmm8
	mulsd	112(%rsi), %xmm7
	mulsd	104(%rsi), %xmm8
	subsd	%xmm3, %xmm1
.LVL12:
	subsd	%xmm4, %xmm1
.LVL13:
	subsd	%xmm5, %xmm1
.LVL14:
	subsd	%xmm6, %xmm1
.LVL15:
	subsd	%xmm7, %xmm1
.LVL16:
	subsd	%xmm8, %xmm1
.LVL17:
	je	.L7
	testl	%r8d, %r8d
	je	.L8
	movsd	160(%rdx), %xmm9
	leal	-16(%r15), %ecx
	prefetcht0	(%rdx)
	movsd	152(%rdx), %xmm10
	prefetcht0	(%rax)
	mulsd	160(%rax), %xmm9
	cmpl	%r12d, %ecx
	mulsd	152(%rax), %xmm10
	movsd	144(%rdx), %xmm11
	movsd	136(%rdx), %xmm12
	mulsd	144(%rax), %xmm11
	mulsd	136(%rax), %xmm12
	subsd	%xmm9, %xmm1
.LVL18:
	movsd	128(%rdx), %xmm13
	movsd	120(%rdx), %xmm14
	mulsd	128(%rax), %xmm13
	mulsd	120(%rax), %xmm14
	subsd	%xmm10, %xmm1
.LVL19:
	movsd	112(%rdx), %xmm15
	movsd	104(%rdx), %xmm0
.LVL20:
	leaq	-128(%rdi), %rdx
	mulsd	112(%rax), %xmm15
	mulsd	104(%rax), %xmm0
	leaq	-128(%rsi), %rax
	subsd	%xmm11, %xmm1
.LVL21:
	subsd	%xmm12, %xmm1
.LVL22:
	subsd	%xmm13, %xmm1
.LVL23:
	subsd	%xmm14, %xmm1
.LVL24:
	subsd	%xmm15, %xmm1
.LVL25:
	subsd	%xmm0, %xmm1
.LVL26:
	je	.L7
.LVL27:
.L8:
	.loc 1 38 0 is_stmt 0 discriminator 3
	movsd	160(%rdx), %xmm2
	leaq	-64(%rdx), %rdi
	leaq	-64(%rax), %rsi
	movsd	152(%rdx), %xmm3
	prefetcht0	(%rdx)
	prefetcht0	(%rax)
	mulsd	160(%rax), %xmm2
	prefetcht0	(%rdi)
	prefetcht0	(%rsi)
	mulsd	152(%rax), %xmm3
	subl	$16, %ecx
	addq	$-128, %rdx
	movsd	272(%rdx), %xmm4
	addq	$-128, %rax
	movsd	264(%rdx), %xmm5
	mulsd	272(%rax), %xmm4
	mulsd	264(%rax), %xmm5
	subsd	%xmm2, %xmm1
.LVL28:
	movsd	256(%rdx), %xmm6
	movsd	248(%rdx), %xmm7
	mulsd	256(%rax), %xmm6
	mulsd	248(%rax), %xmm7
	subsd	%xmm3, %xmm1
.LVL29:
	movsd	240(%rdx), %xmm8
	movsd	232(%rdx), %xmm9
	mulsd	240(%rax), %xmm8
	mulsd	232(%rax), %xmm9
	subsd	%xmm4, %xmm1
.LVL30:
	movsd	224(%rdx), %xmm10
	movsd	216(%rdx), %xmm11
	mulsd	224(%rax), %xmm10
	mulsd	216(%rax), %xmm11
	subsd	%xmm5, %xmm1
.LVL31:
	movsd	208(%rdx), %xmm12
	movsd	200(%rdx), %xmm13
	mulsd	208(%rax), %xmm12
	mulsd	200(%rax), %xmm13
	subsd	%xmm6, %xmm1
.LVL32:
	movsd	192(%rdx), %xmm14
	movsd	184(%rdx), %xmm15
	mulsd	192(%rax), %xmm14
	mulsd	184(%rax), %xmm15
	subsd	%xmm7, %xmm1
.LVL33:
	movsd	176(%rdx), %xmm0
	mulsd	176(%rax), %xmm0
	movsd	168(%rdx), %xmm2
	subsd	%xmm8, %xmm1
.LVL34:
	mulsd	168(%rax), %xmm2
	cmpl	%r12d, %ecx
	subsd	%xmm9, %xmm1
.LVL35:
	subsd	%xmm10, %xmm1
.LVL36:
	subsd	%xmm11, %xmm1
.LVL37:
	subsd	%xmm12, %xmm1
.LVL38:
	subsd	%xmm13, %xmm1
.LVL39:
	subsd	%xmm14, %xmm1
.LVL40:
	subsd	%xmm15, %xmm1
.LVL41:
	subsd	%xmm0, %xmm1
.LVL42:
	subsd	%xmm2, %xmm1
.LVL43:
	jne	.L8
.LVL44:
.L7:
	movslq	%ecx, %r8
	leal	-1(%rcx), %edx
	movq	$-8, %rax
	salq	$3, %r8
	leaq	0(%rbp,%r8), %rsi
	addq	%r8, %r9
	movl	%edx, %edi
	andl	$7, %edi
	.loc 1 38 0
	testl	%edx, %edx
	movsd	(%rsi), %xmm3
	mulsd	(%r9), %xmm3
.LVL45:
	subsd	%xmm3, %xmm1
.LVL46:
	jle	.L6
	testl	%edi, %edi
	je	.L9
	cmpl	$1, %edi
	je	.L58
	cmpl	$2, %edi
	je	.L59
	cmpl	$3, %edi
	je	.L60
	cmpl	$4, %edi
	je	.L61
	cmpl	$5, %edi
	je	.L62
	cmpl	$6, %edi
	je	.L63
	movsd	-8(%rsi), %xmm4
	leal	-2(%rcx), %edx
	movq	$-16, %rax
	mulsd	-8(%r9), %xmm4
.LVL47:
	subsd	%xmm4, %xmm1
.LVL48:
.L63:
	movsd	(%rsi,%rax), %xmm5
	subl	$1, %edx
	mulsd	(%r9,%rax), %xmm5
.LVL49:
	subq	$8, %rax
	subsd	%xmm5, %xmm1
.LVL50:
.L62:
	movsd	(%rsi,%rax), %xmm6
	subl	$1, %edx
	mulsd	(%r9,%rax), %xmm6
.LVL51:
	subq	$8, %rax
	subsd	%xmm6, %xmm1
.LVL52:
.L61:
	movsd	(%rsi,%rax), %xmm7
	subl	$1, %edx
	mulsd	(%r9,%rax), %xmm7
.LVL53:
	subq	$8, %rax
	subsd	%xmm7, %xmm1
.LVL54:
.L60:
	movsd	(%rsi,%rax), %xmm8
	subl	$1, %edx
	mulsd	(%r9,%rax), %xmm8
.LVL55:
	subq	$8, %rax
	subsd	%xmm8, %xmm1
.LVL56:
.L59:
	movsd	(%rsi,%rax), %xmm9
	subl	$1, %edx
	mulsd	(%r9,%rax), %xmm9
.LVL57:
	subq	$8, %rax
	subsd	%xmm9, %xmm1
.LVL58:
.L58:
	movsd	(%rsi,%rax), %xmm10
	subl	$1, %edx
	mulsd	(%r9,%rax), %xmm10
.LVL59:
	subq	$8, %rax
	testl	%edx, %edx
	subsd	%xmm10, %xmm1
.LVL60:
	jle	.L6
.L9:
	movsd	(%rsi,%rax), %xmm11
	subl	$8, %edx
	movsd	-8(%rsi,%rax), %xmm12
	mulsd	(%r9,%rax), %xmm11
	mulsd	-8(%r9,%rax), %xmm12
	movsd	-16(%rsi,%rax), %xmm13
	movsd	-24(%rsi,%rax), %xmm14
	mulsd	-16(%r9,%rax), %xmm13
	mulsd	-24(%r9,%rax), %xmm14
	subsd	%xmm11, %xmm1
.LVL61:
	movsd	-32(%rsi,%rax), %xmm15
	movsd	-40(%rsi,%rax), %xmm0
	mulsd	-32(%r9,%rax), %xmm15
	mulsd	-40(%r9,%rax), %xmm0
	subsd	%xmm12, %xmm1
	movsd	-48(%rsi,%rax), %xmm2
	movsd	-56(%rsi,%rax), %xmm3
	mulsd	-48(%r9,%rax), %xmm2
	mulsd	-56(%r9,%rax), %xmm3
	subq	$64, %rax
	testl	%edx, %edx
	subsd	%xmm13, %xmm1
	subsd	%xmm14, %xmm1
	subsd	%xmm15, %xmm1
	subsd	%xmm0, %xmm1
	subsd	%xmm2, %xmm1
.LVL62:
	subsd	%xmm3, %xmm1
.LVL63:
	jg	.L9
.L6:
	.loc 1 39 0 is_stmt 1
	cmpl	%r14d, 8(%rsp)
	je	.L83
	.loc 1 44 0
	divsd	0(%rbp,%r10), %xmm1
.LVL64:
	movq	0(%r13,%rbx), %rcx
	movsd	%xmm1, (%rcx,%r10)
.L14:
	.loc 1 37 0 discriminator 2
	addl	$1, %r14d
.LVL65:
	addq	$8, %rbx
	cmpl	%r14d, 12(%rsp)
	jge	.L15
	.loc 1 36 0 discriminator 2
	addl	$1, 8(%rsp)
.LVL66:
	addl	$1, %r15d
	addq	$8, %r10
	movl	8(%rsp), %r14d
.LVL67:
	addq	$8, %r11
	cmpl	%r14d, 12(%rsp)
	jge	.L4
.LVL68:
	.loc 1 48 0
	cmpl	$1, 12(%rsp)
	movl	$16, %r15d
	movl	$1, %ebx
	movl	12(%rsp), %r12d
	jle	.L5
.LVL69:
	.p2align 4,,10
	.p2align 3
.L57:
	.loc 1 49 0
	addl	$1, %ebx
.LVL70:
	cmpl	%ebx, %r12d
	jl	.L17
.LVL71:
	.loc 1 50 0
	movq	%r15, %rdi
	movl	%r12d, %r11d
	addq	-8(%r13,%r15), %rdi
	subl	%ebx, %r11d
	xorl	%esi, %esi
	addq	$8, %r15
	leaq	8(,%r11,8), %rdx
	call	memset
.LVL72:
	.loc 1 48 0
	cmpl	%r12d, %ebx
	jne	.L57
.LVL73:
.L5:
.LBE30:
	.loc 1 53 0
	addq	$40, %rsp
	.cfi_remember_state
	.cfi_def_cfa_offset 56
.LBB31:
	.loc 1 52 0
	movl	$1, %eax
.LBE31:
	.loc 1 53 0
	popq	%rbx
	.cfi_restore 3
	.cfi_def_cfa_offset 48
	popq	%rbp
	.cfi_restore 6
	.cfi_def_cfa_offset 40
	popq	%r12
	.cfi_restore 12
	.cfi_def_cfa_offset 32
	popq	%r13
	.cfi_restore 13
	.cfi_def_cfa_offset 24
.LVL74:
	popq	%r14
	.cfi_restore 14
	.cfi_def_cfa_offset 16
	popq	%r15
	.cfi_restore 15
	.cfi_def_cfa_offset 8
	ret
.LVL75:
	.p2align 4,,10
	.p2align 3
.L21:
	.cfi_restore_state
.LBB32:
	.loc 1 38 0
	movl	%r15d, %ecx
	jmp	.L7
.LVL76:
.L17:
	addq	$8, %r15
	jmp	.L57
.LVL77:
.L82:
	.cfi_def_cfa_offset 8
	.cfi_restore 3
	.cfi_restore 6
	.cfi_restore 12
	.cfi_restore 13
	.cfi_restore 14
	.cfi_restore 15
	.loc 1 52 0
	movl	$1, %eax
.LBE32:
	.loc 1 53 0
	ret
.LVL78:
.L83:
	.cfi_def_cfa_offset 96
	.cfi_offset 3, -56
	.cfi_offset 6, -48
	.cfi_offset 12, -40
	.cfi_offset 13, -32
	.cfi_offset 14, -24
	.cfi_offset 15, -16
.LBB33:
	.loc 1 40 0
	pxor	%xmm4, %xmm4
	ucomisd	%xmm1, %xmm4
	jae	.L22
	.loc 1 43 0
	sqrtsd	%xmm1, %xmm0
	ucomisd	%xmm0, %xmm0
	jnp	.L12
	movapd	%xmm1, %xmm0
	movq	%r11, 24(%rsp)
	movq	%r10, 16(%rsp)
	call	sqrt
.LVL79:
	movq	24(%rsp), %r11
	movq	16(%rsp), %r10
.L12:
	movsd	%xmm0, 0(%rbp,%r10)
	jmp	.L14
.LVL80:
.L22:
.LBE33:
	.loc 1 53 0
	addq	$40, %rsp
	.cfi_def_cfa_offset 56
.LBB34:
	.loc 1 42 0
	xorl	%eax, %eax
.LBE34:
	.loc 1 53 0
	popq	%rbx
	.cfi_restore 3
	.cfi_def_cfa_offset 48
	popq	%rbp
	.cfi_restore 6
	.cfi_def_cfa_offset 40
	popq	%r12
	.cfi_restore 12
	.cfi_def_cfa_offset 32
	popq	%r13
	.cfi_restore 13
	.cfi_def_cfa_offset 24
.LVL81:
	popq	%r14
	.cfi_restore 14
	.cfi_def_cfa_offset 16
.LVL82:
	popq	%r15
	.cfi_restore 15
	.cfi_def_cfa_offset 8
	ret
	.cfi_endproc
.LFE49:
	.size	_Z6choldcPPdi, .-_Z6choldcPPdi
	.section	.text.unlikely
.LCOLDE5:
	.text
.LHOTE5:
	.section	.rodata.str1.8
	.align 8
.LC6:
	.string	"allocation failure in ivector()"
	.section	.rodata.str1.1
.LC8:
	.string	"gaussj: Singular Matrix-1"
.LC9:
	.string	"gaussj: Singular Matrix-2"
	.section	.text.unlikely
.LCOLDB11:
	.text
.LHOTB11:
	.p2align 4,,15
	.globl	_Z6gaussjPPdiS0_i
	.type	_Z6gaussjPPdiS0_i, @function
_Z6gaussjPPdiS0_i:
.LFB50:
	.loc 1 56 0
	.cfi_startproc
.LVL83:
	pushq	%r15
	.cfi_def_cfa_offset 16
	.cfi_offset 15, -16
	pushq	%r14
	.cfi_def_cfa_offset 24
	.cfi_offset 14, -24
	movslq	%esi, %rax
	pushq	%r13
	.cfi_def_cfa_offset 32
	.cfi_offset 13, -32
	pushq	%r12
	.cfi_def_cfa_offset 40
	.cfi_offset 12, -40
	movq	%rax, %r13
	pushq	%rbp
	.cfi_def_cfa_offset 48
	.cfi_offset 6, -48
	pushq	%rbx
	.cfi_def_cfa_offset 56
	.cfi_offset 3, -56
	subq	$152, %rsp
	.cfi_def_cfa_offset 208
	.loc 1 56 0
	movq	%rdx, 40(%rsp)
.LBB51:
.LBB52:
.LBB53:
	.loc 1 119 0
	leaq	4(,%rax,4), %rdx
.LVL84:
.LBE53:
.LBE52:
.LBE51:
	.loc 1 56 0
	movq	%rdi, (%rsp)
.LVL85:
	movl	%ecx, 68(%rsp)
.LBB70:
.LBB56:
.LBB54:
	.loc 1 119 0
	movq	%rdx, %rdi
.LVL86:
	movq	%rdx, 136(%rsp)
	call	malloc
.LVL87:
	.loc 1 120 0
	testq	%rax, %rax
	.loc 1 119 0
	movq	%rax, 88(%rsp)
.LVL88:
	.loc 1 120 0
	movq	(%rsp), %rcx
	je	.L86
.LBE54:
.LBE56:
.LBB57:
.LBB58:
	.loc 1 119 0
	movq	136(%rsp), %rbx
	movq	%rcx, (%rsp)
.LVL89:
	movq	%rbx, %rdi
	call	malloc
.LVL90:
	.loc 1 120 0
	testq	%rax, %rax
	.loc 1 119 0
	movq	%rax, 96(%rsp)
.LVL91:
	.loc 1 120 0
	je	.L86
.LVL92:
.LBE58:
.LBE57:
.LBB59:
.LBB60:
	.loc 1 119 0
	movq	%rbx, %rdi
	call	malloc
.LVL93:
	.loc 1 120 0
	testq	%rax, %rax
	.loc 1 119 0
	movq	%rax, 80(%rsp)
.LVL94:
	.loc 1 120 0
	je	.L86
.LVL95:
.LBE60:
.LBE59:
	.loc 1 65 0 discriminator 1
	testl	%r13d, %r13d
	jle	.L87
	.loc 1 65 0 is_stmt 0
	leal	-1(%r13), %ebp
	movq	%rax, %r9
	xorl	%esi, %esi
	addq	$4, %r9
	leal	-9(%r13), %r12d
	addq	$1, %rbp
	movq	%r9, %rdi
	movq	%r9, 112(%rsp)
	leaq	0(,%rbp,4), %rdx
	movq	%rbp, 120(%rsp)
	andl	$-8, %r12d
	addl	$9, %r12d
	call	memset
.LVL96:
	movl	68(%rsp), %r10d
	pxor	%xmm4, %xmm4
	.loc 1 72 0 is_stmt 1
	movsd	.LC7(%rip), %xmm1
	movl	%r12d, 64(%rsp)
	.loc 1 87 0
	movsd	.LC10(%rip), %xmm3
	.loc 1 65 0
	movq	$0, 72(%rsp)
	movl	%r10d, %r14d
	movl	%r10d, %eax
	movq	(%rsp), %r10
	subl	$9, %r14d
.LBE70:
	.loc 1 56 0
	movapd	%xmm4, %xmm5
	andl	$-8, %r14d
	addl	$9, %r14d
	movl	%r14d, 104(%rsp)
.LBB71:
	.loc 1 65 0
	movl	$-1, %r14d
	addl	%r14d, %eax
	movl	%r14d, %r15d
	addq	$1, %rax
	movq	%rax, 128(%rsp)
.LVL97:
	.p2align 4,,10
	.p2align 3
.L88:
	movq	112(%rsp), %r9
	movq	80(%rsp), %rbx
.LBE71:
	.loc 1 56 0 discriminator 1
	xorl	%edi, %edi
	movapd	%xmm5, %xmm0
	movl	$1, %ebp
.LVL98:
	.p2align 4,,10
	.p2align 3
.L94:
.LBB72:
	.loc 1 69 0
	cmpl	$1, 4(%rbx,%rdi)
	je	.L89
	.loc 1 71 0
	movl	(%r9), %edx
	leal	-1(%r13), %esi
	andl	$3, %esi
.LVL99:
	testl	%edx, %edx
	jne	.L494
	.loc 1 72 0
	movq	8(%r10,%rdi,2), %rcx
	movsd	8(%rcx), %xmm2
	andpd	%xmm1, %xmm2
	ucomisd	%xmm0, %xmm2
	jb	.L495
	.loc 1 73 0
	movapd	%xmm2, %xmm0
.LVL100:
	.loc 1 72 0
	movl	%ebp, %r14d
	movl	$1, %r15d
.L495:
.LVL101:
	.loc 1 70 0
	cmpl	$2, %r13d
	movl	$2, %r11d
	leaq	4(%r9), %rax
	movl	$16, %ecx
	jl	.L89
	testl	%esi, %esi
	je	.L93
	cmpl	$1, %esi
	je	.L609
	cmpl	$2, %esi
	je	.L610
	.loc 1 71 0
	movl	4(%r9), %r8d
	testl	%r8d, %r8d
	je	.L725
	.loc 1 77 0
	cmpl	$1, %r8d
	jg	.L724
.LVL102:
.L499:
	.loc 1 70 0
	addl	$1, %r11d
	addq	$4, %rax
	addq	$8, %rcx
.L610:
	.loc 1 71 0
	movl	(%rax), %esi
	testl	%esi, %esi
	je	.L726
	.loc 1 77 0
	cmpl	$1, %esi
	jg	.L724
.LVL103:
.L504:
	.loc 1 70 0
	addl	$1, %r11d
	addq	$4, %rax
	addq	$8, %rcx
.L609:
	.loc 1 71 0
	movl	(%rax), %r8d
	testl	%r8d, %r8d
	je	.L727
	.loc 1 77 0
	cmpl	$1, %r8d
	jg	.L724
.LVL104:
.L509:
	.loc 1 70 0
	addl	$1, %r11d
	addq	$4, %rax
	addq	$8, %rcx
	cmpl	%r11d, %r13d
	jge	.L93
	jmp	.L89
	.p2align 4,,10
	.p2align 3
.L770:
	.loc 1 72 0
	movq	8(%r10,%rdi,2), %rdx
	movsd	(%rdx,%rcx), %xmm9
	andpd	%xmm1, %xmm9
	ucomisd	%xmm0, %xmm9
	jb	.L91
	.loc 1 73 0
	movapd	%xmm9, %xmm0
.LVL105:
	.loc 1 72 0
	movl	%ebp, %r14d
	movl	%r11d, %r15d
.L91:
.LVL106:
	leaq	4(%rax), %r12
	.loc 1 71 0 discriminator 2
	movl	4(%rax), %eax
	.loc 1 70 0 discriminator 2
	addl	$1, %r11d
	leaq	8(%rcx), %r8
	.loc 1 71 0 discriminator 2
	testl	%eax, %eax
	jne	.L513
	.loc 1 72 0
	movq	8(%r10,%rdi,2), %rsi
	movsd	8(%rsi,%rcx), %xmm10
	andpd	%xmm1, %xmm10
	ucomisd	%xmm0, %xmm10
	jb	.L514
	.loc 1 73 0
	movapd	%xmm10, %xmm0
.LVL107:
	.loc 1 72 0
	movl	%ebp, %r14d
	movl	%r11d, %r15d
.L514:
.LVL108:
	.loc 1 71 0
	movl	4(%r12), %edx
	.loc 1 70 0
	leal	1(%r11), %ecx
	.loc 1 71 0
	testl	%edx, %edx
	je	.L728
.L771:
	.loc 1 77 0
	cmpl	$1, %edx
	jg	.L724
.L518:
	.loc 1 71 0
	movl	8(%r12), %ecx
	.loc 1 70 0
	leal	2(%r11), %esi
	.loc 1 71 0
	testl	%ecx, %ecx
	je	.L729
.L772:
	.loc 1 77 0
	cmpl	$1, %ecx
	jg	.L724
.LVL109:
.L522:
	.loc 1 70 0
	addl	$3, %r11d
	leaq	12(%r12), %rax
	leaq	24(%r8), %rcx
	cmpl	%r11d, %r13d
	jl	.L89
.L93:
	.loc 1 71 0
	movl	(%rax), %esi
	testl	%esi, %esi
	je	.L770
	.loc 1 77 0
	cmpl	$1, %esi
	jle	.L91
.L724:
	.loc 1 77 0 is_stmt 0 discriminator 1
	movl	$.LC8, %edi
	call	_Z7nrerrorPKc
.LVL110:
	.p2align 4,,10
	.p2align 3
.L513:
	.loc 1 77 0
	cmpl	$1, %eax
	jg	.L724
	.loc 1 71 0 is_stmt 1
	movl	4(%r12), %edx
	.loc 1 70 0
	leal	1(%r11), %ecx
	.loc 1 71 0
	testl	%edx, %edx
	jne	.L771
.L728:
	.loc 1 72 0
	movq	8(%r10,%rdi,2), %rax
	movsd	8(%rax,%r8), %xmm11
	andpd	%xmm1, %xmm11
	ucomisd	%xmm0, %xmm11
	jb	.L518
	movl	%ecx, %r15d
	.loc 1 71 0
	movl	8(%r12), %ecx
	.loc 1 72 0
	movl	%ebp, %r14d
	.loc 1 73 0
	movapd	%xmm11, %xmm0
.LVL111:
	.loc 1 70 0
	leal	2(%r11), %esi
	.loc 1 71 0
	testl	%ecx, %ecx
	jne	.L772
.L729:
	.loc 1 72 0
	movq	8(%r10,%rdi,2), %rdx
	movsd	16(%rdx,%r8), %xmm12
	andpd	%xmm1, %xmm12
	ucomisd	%xmm0, %xmm12
	jb	.L522
	.loc 1 73 0
	movapd	%xmm12, %xmm0
.LVL112:
	.loc 1 72 0
	movl	%ebp, %r14d
	movl	%esi, %r15d
	jmp	.L522
.LVL113:
	.p2align 4,,10
	.p2align 3
.L89:
	.loc 1 68 0 discriminator 2
	addl	$1, %ebp
.LVL114:
	addq	$4, %rdi
	cmpl	%ebp, %r13d
	jge	.L94
	.loc 1 79 0
	movq	80(%rsp), %rdi
	movslq	%r15d, %r8
	addl	$1, (%rdi,%r8,4)
	.loc 1 80 0
	cmpl	%r15d, %r14d
	je	.L773
	movslq	%r14d, %r11
	movq	(%r10,%r8,8), %rbp
.LVL115:
	leaq	0(,%r8,8), %r9
	movq	(%r10,%r11,8), %rdx
	movq	%r9, (%rsp)
	leaq	24(%rbp), %r12
	leaq	8(%rbp), %rcx
	leaq	8(%rdx), %rbx
	leaq	24(%rdx), %rsi
	cmpq	%r12, %rbx
	setae	%al
	cmpq	%rcx, %rsi
	setbe	%dil
	orb	%dil, %al
	je	.L163
	cmpl	$15, %r13d
	jbe	.L163
	movq	%rbx, %r9
	movl	$1, %r12d
	salq	$60, %r9
	shrq	$63, %r9
	cmpl	%r9d, %r13d
	cmovbe	%r13d, %r9d
	testl	%r9d, %r9d
	movl	%r9d, %esi
	je	.L98
.LVL116:
	.loc 1 81 0
	movsd	8(%rdx), %xmm13
.LVL117:
	movb	$2, %r12b
	movsd	8(%rbp), %xmm14
	movsd	%xmm14, 8(%rdx)
	movsd	%xmm13, 8(%rbp)
.LVL118:
.L98:
	movl	%r13d, %ebx
	movl	%esi, %ecx
	movl	$1, %edi
	subl	%esi, %ebx
	leaq	8(,%rcx,8), %rcx
	movl	%ebx, 12(%rsp)
	subl	$2, %ebx
	shrl	%ebx
	leaq	(%rdx,%rcx), %rsi
	addq	%rbp, %rcx
	movl	%ebx, %r9d
	leal	1(%rbx), %ebx
	movapd	(%rsi), %xmm15
	andl	$7, %r9d
	leal	(%rbx,%rbx), %eax
	cmpl	%ebx, %edi
	movupd	(%rcx), %xmm2
	movl	%eax, 16(%rsp)
	movl	$16, %eax
	movaps	%xmm2, (%rsi)
	movups	%xmm15, (%rcx)
	jae	.L717
	testl	%r9d, %r9d
	je	.L99
	cmpl	$1, %r9d
	je	.L602
	cmpl	$2, %r9d
	je	.L603
	cmpl	$3, %r9d
	je	.L604
	cmpl	$4, %r9d
	je	.L605
	cmpl	$5, %r9d
	je	.L606
	cmpl	$6, %r9d
	je	.L607
	movapd	16(%rsi), %xmm6
	movl	$2, %edi
	movl	$32, %eax
	movupd	16(%rcx), %xmm7
	movaps	%xmm7, 16(%rsi)
	movups	%xmm6, 16(%rcx)
.L607:
	addl	$1, %edi
	movapd	(%rsi,%rax), %xmm8
	movupd	(%rcx,%rax), %xmm9
	movaps	%xmm9, (%rsi,%rax)
	movups	%xmm8, (%rcx,%rax)
	addq	$16, %rax
.L606:
	addl	$1, %edi
	movapd	(%rsi,%rax), %xmm10
	movupd	(%rcx,%rax), %xmm11
	movaps	%xmm11, (%rsi,%rax)
	movups	%xmm10, (%rcx,%rax)
	addq	$16, %rax
.L605:
	addl	$1, %edi
	movapd	(%rsi,%rax), %xmm12
	movupd	(%rcx,%rax), %xmm0
.LVL119:
	movaps	%xmm0, (%rsi,%rax)
	movups	%xmm12, (%rcx,%rax)
	addq	$16, %rax
.L604:
	addl	$1, %edi
	movapd	(%rsi,%rax), %xmm13
	movupd	(%rcx,%rax), %xmm14
	movaps	%xmm14, (%rsi,%rax)
	movups	%xmm13, (%rcx,%rax)
	addq	$16, %rax
.L603:
	addl	$1, %edi
	movapd	(%rsi,%rax), %xmm15
	movupd	(%rcx,%rax), %xmm2
	movaps	%xmm2, (%rsi,%rax)
	movups	%xmm15, (%rcx,%rax)
	addq	$16, %rax
.L602:
	addl	$1, %edi
	movapd	(%rsi,%rax), %xmm6
	movupd	(%rcx,%rax), %xmm7
	movaps	%xmm7, (%rsi,%rax)
	movups	%xmm6, (%rcx,%rax)
	addq	$16, %rax
	cmpl	%ebx, %edi
	jae	.L717
.L99:
	addl	$8, %edi
	.loc 1 81 0 is_stmt 0 discriminator 3
	movapd	(%rsi,%rax), %xmm8
	movupd	(%rcx,%rax), %xmm9
	movaps	%xmm9, (%rsi,%rax)
	movups	%xmm8, (%rcx,%rax)
	movupd	16(%rcx,%rax), %xmm11
	movapd	16(%rsi,%rax), %xmm10
	movaps	%xmm11, 16(%rsi,%rax)
	movups	%xmm10, 16(%rcx,%rax)
	movupd	32(%rcx,%rax), %xmm0
	movapd	32(%rsi,%rax), %xmm12
	movaps	%xmm0, 32(%rsi,%rax)
	movups	%xmm12, 32(%rcx,%rax)
	movupd	48(%rcx,%rax), %xmm14
	movapd	48(%rsi,%rax), %xmm13
	movaps	%xmm14, 48(%rsi,%rax)
	movups	%xmm13, 48(%rcx,%rax)
	movupd	64(%rcx,%rax), %xmm2
	movapd	64(%rsi,%rax), %xmm15
	movaps	%xmm2, 64(%rsi,%rax)
	movups	%xmm15, 64(%rcx,%rax)
	movupd	80(%rcx,%rax), %xmm7
	movapd	80(%rsi,%rax), %xmm6
	movaps	%xmm7, 80(%rsi,%rax)
	movups	%xmm6, 80(%rcx,%rax)
	movupd	96(%rcx,%rax), %xmm9
	movapd	96(%rsi,%rax), %xmm8
	movaps	%xmm9, 96(%rsi,%rax)
	movups	%xmm8, 96(%rcx,%rax)
	movupd	112(%rcx,%rax), %xmm11
	movapd	112(%rsi,%rax), %xmm10
	movaps	%xmm11, 112(%rsi,%rax)
	movups	%xmm10, 112(%rcx,%rax)
	subq	$-128, %rax
	cmpl	%ebx, %edi
	jb	.L99
.L717:
	movl	16(%rsp), %r9d
	movl	%r9d, %eax
	addl	%r12d, %eax
	cmpl	%r9d, 12(%rsp)
	je	.L101
.LVL120:
	.loc 1 81 0
	cltq
	salq	$3, %rax
.LVL121:
	addq	%rax, %rdx
	addq	%rbp, %rax
	movsd	(%rdx), %xmm12
.LVL122:
	movsd	(%rax), %xmm0
	movsd	%xmm0, (%rdx)
	movsd	%xmm12, (%rax)
.LVL123:
.L101:
	.loc 1 82 0 is_stmt 1 discriminator 1
	movl	68(%rsp), %r9d
	testl	%r9d, %r9d
	jle	.L96
	movq	40(%rsp), %rdi
	movq	(%rdi,%r11,8), %rdx
	movq	(%rdi,%r8,8), %rcx
	leaq	8(%rdx), %r8
	leaq	24(%rcx), %r11
	leaq	24(%rdx), %rbx
	leaq	8(%rcx), %rsi
	cmpq	%r11, %r8
	setae	%al
	cmpq	%rsi, %rbx
	setbe	%r12b
	orb	%r12b, %al
	je	.L102
	cmpl	$15, %r9d
	jbe	.L102
	salq	$60, %r8
	.loc 1 82 0 is_stmt 0
	movl	$1, %ebx
	shrq	$63, %r8
	cmpl	%r8d, %r9d
	movl	%r8d, %esi
	cmovbe	%r9d, %esi
	testl	%esi, %esi
	je	.L103
	movsd	8(%rdx), %xmm10
.LVL124:
	movb	$2, %bl
	movsd	8(%rcx), %xmm11
	movsd	%xmm11, 8(%rdx)
	movsd	%xmm10, 8(%rcx)
.LVL125:
.L103:
	movl	68(%rsp), %r12d
	movl	%esi, %r8d
	subl	%esi, %r12d
	leaq	8(,%r8,8), %rsi
	movl	$1, %r8d
	leal	-2(%r12), %eax
	shrl	%eax
	leal	1(%rax), %r11d
	movl	%eax, %r9d
	movl	$16, %eax
	andl	$7, %r9d
	leal	(%r11,%r11), %edi
	movl	%edi, 12(%rsp)
	leaq	(%rdx,%rsi), %rdi
	addq	%rcx, %rsi
	movupd	(%rsi), %xmm0
	cmpl	%r11d, %r8d
	movapd	(%rdi), %xmm12
	movaps	%xmm0, (%rdi)
	movups	%xmm12, (%rsi)
	jae	.L718
	testl	%r9d, %r9d
	je	.L104
	cmpl	$1, %r9d
	je	.L590
	cmpl	$2, %r9d
	je	.L591
	cmpl	$3, %r9d
	je	.L592
	cmpl	$4, %r9d
	je	.L593
	cmpl	$5, %r9d
	je	.L594
	cmpl	$6, %r9d
	je	.L595
	movapd	16(%rdi), %xmm13
	movl	$2, %r8d
	movl	$32, %eax
	movupd	16(%rsi), %xmm14
	movaps	%xmm14, 16(%rdi)
	movups	%xmm13, 16(%rsi)
.L595:
	addl	$1, %r8d
	movapd	(%rdi,%rax), %xmm15
	movupd	(%rsi,%rax), %xmm2
	movaps	%xmm2, (%rdi,%rax)
	movups	%xmm15, (%rsi,%rax)
	addq	$16, %rax
.L594:
	addl	$1, %r8d
	movapd	(%rdi,%rax), %xmm6
	movupd	(%rsi,%rax), %xmm7
	movaps	%xmm7, (%rdi,%rax)
	movups	%xmm6, (%rsi,%rax)
	addq	$16, %rax
.L593:
	addl	$1, %r8d
	movapd	(%rdi,%rax), %xmm8
	movupd	(%rsi,%rax), %xmm9
	movaps	%xmm9, (%rdi,%rax)
	movups	%xmm8, (%rsi,%rax)
	addq	$16, %rax
.L592:
	addl	$1, %r8d
	movapd	(%rdi,%rax), %xmm10
	movupd	(%rsi,%rax), %xmm11
	movaps	%xmm11, (%rdi,%rax)
	movups	%xmm10, (%rsi,%rax)
	addq	$16, %rax
.L591:
	addl	$1, %r8d
	movapd	(%rdi,%rax), %xmm12
	movupd	(%rsi,%rax), %xmm0
	movaps	%xmm0, (%rdi,%rax)
	movups	%xmm12, (%rsi,%rax)
	addq	$16, %rax
.L590:
	addl	$1, %r8d
	movapd	(%rdi,%rax), %xmm13
	movupd	(%rsi,%rax), %xmm14
	movaps	%xmm14, (%rdi,%rax)
	movups	%xmm13, (%rsi,%rax)
	addq	$16, %rax
	cmpl	%r11d, %r8d
	jae	.L718
.L104:
	addl	$8, %r8d
	.loc 1 82 0 discriminator 3
	movapd	(%rdi,%rax), %xmm15
	movupd	(%rsi,%rax), %xmm2
	movaps	%xmm2, (%rdi,%rax)
	movups	%xmm15, (%rsi,%rax)
	movupd	16(%rsi,%rax), %xmm7
	movapd	16(%rdi,%rax), %xmm6
	movaps	%xmm7, 16(%rdi,%rax)
	movups	%xmm6, 16(%rsi,%rax)
	movupd	32(%rsi,%rax), %xmm9
	movapd	32(%rdi,%rax), %xmm8
	movaps	%xmm9, 32(%rdi,%rax)
	movups	%xmm8, 32(%rsi,%rax)
	movupd	48(%rsi,%rax), %xmm11
	movapd	48(%rdi,%rax), %xmm10
	movaps	%xmm11, 48(%rdi,%rax)
	movups	%xmm10, 48(%rsi,%rax)
	movupd	64(%rsi,%rax), %xmm0
	movapd	64(%rdi,%rax), %xmm12
	movaps	%xmm0, 64(%rdi,%rax)
	movups	%xmm12, 64(%rsi,%rax)
	movupd	80(%rsi,%rax), %xmm14
	movapd	80(%rdi,%rax), %xmm13
	movaps	%xmm14, 80(%rdi,%rax)
	movups	%xmm13, 80(%rsi,%rax)
	movupd	96(%rsi,%rax), %xmm2
	movapd	96(%rdi,%rax), %xmm15
	movaps	%xmm2, 96(%rdi,%rax)
	movups	%xmm15, 96(%rsi,%rax)
	movupd	112(%rsi,%rax), %xmm7
	movapd	112(%rdi,%rax), %xmm6
	movaps	%xmm7, 112(%rdi,%rax)
	movups	%xmm6, 112(%rsi,%rax)
	subq	$-128, %rax
	cmpl	%r11d, %r8d
	jb	.L104
.L718:
	movl	12(%rsp), %r9d
	movl	%r9d, %eax
	addl	%ebx, %eax
	cmpl	%r9d, %r12d
	je	.L96
.LVL126:
	.loc 1 82 0
	cltq
	salq	$3, %rax
.LVL127:
	addq	%rax, %rdx
	addq	%rcx, %rax
	movsd	(%rdx), %xmm8
.LVL128:
	movsd	(%rax), %xmm9
	movsd	%xmm9, (%rdx)
	movsd	%xmm8, (%rax)
.LVL129:
.L96:
	.loc 1 86 0 is_stmt 1
	movq	(%rsp), %rbx
	.loc 1 84 0
	movq	72(%rsp), %rcx
	movq	96(%rsp), %rdx
	.loc 1 85 0
	movq	88(%rsp), %r8
	.loc 1 86 0
	addq	%rbp, %rbx
	movsd	(%rbx), %xmm6
	.loc 1 84 0
	movl	%r14d, 4(%rdx,%rcx,4)
	.loc 1 85 0
	movl	%r15d, 4(%r8,%rcx,4)
	.loc 1 86 0
	ucomisd	%xmm4, %xmm6
	jp	.L108
	je	.L774
.L108:
	leaq	8(%rbp), %r12
	.loc 1 87 0
	movapd	%xmm3, %xmm2
	.loc 1 88 0
	movsd	%xmm3, (%rbx)
	movq	%r12, 32(%rsp)
	salq	$60, %r12
	.loc 1 87 0
	divsd	%xmm6, %xmm2
.LVL130:
	shrq	$63, %r12
	cmpl	%r12d, %r13d
	cmovbe	%r13d, %r12d
	cmpl	$3, %r13d
	jg	.L775
	.loc 1 88 0
	movl	%r13d, %r12d
.L162:
	cmpl	$1, %r12d
	.loc 1 89 0
	movl	$2, %edi
	movsd	8(%rbp), %xmm7
	mulsd	%xmm2, %xmm7
	movsd	%xmm7, 8(%rbp)
.LVL131:
	je	.L112
	movsd	16(%rbp), %xmm8
	cmpl	$3, %r12d
	movb	$3, %dil
	mulsd	%xmm2, %xmm8
	movsd	%xmm8, 16(%rbp)
.LVL132:
	jne	.L112
	movsd	24(%rbp), %xmm9
	movb	$4, %dil
	mulsd	%xmm2, %xmm9
	movsd	%xmm9, 24(%rbp)
.LVL133:
.L112:
	cmpl	%r12d, %r13d
	je	.L113
.L111:
	movl	%r13d, %ebx
	movl	%r12d, %eax
	subl	%r12d, %ebx
	leal	-2(%rbx), %esi
	shrl	%esi
	cmpl	$1, %ebx
	leal	1(%rsi), %r9d
	leal	(%r9,%r9), %r12d
	je	.L114
	leaq	8(,%rax,8), %rax
	movapd	%xmm2, %xmm0
	subl	$4, %esi
	addq	%rbp, %rax
	cmpl	$-6, %esi
	unpcklpd	%xmm0, %xmm0
	ja	.L169
	movapd	(%rax), %xmm10
	shrl	$2, %esi
	movl	$4, %r8d
	leal	4(,%rsi,4), %r11d
	.loc 1 88 0
	movq	%rax, %rcx
	andl	$3, %esi
	.loc 1 89 0
	movapd	16(%rax), %xmm11
	prefetcht0	400(%rax)
	addq	$64, %rax
	mulpd	%xmm0, %xmm10
	movapd	-32(%rax), %xmm12
	mulpd	%xmm0, %xmm11
	movapd	-16(%rax), %xmm13
	mulpd	%xmm0, %xmm12
	movaps	%xmm10, -64(%rax)
	mulpd	%xmm0, %xmm13
	movaps	%xmm11, -48(%rax)
	movaps	%xmm12, -32(%rax)
	movaps	%xmm13, -16(%rax)
	cmpl	%r11d, %r8d
	movq	%rax, %rdx
	je	.L115
	testl	%esi, %esi
	je	.L116
	cmpl	$1, %esi
	je	.L582
	cmpl	$2, %esi
	je	.L583
	movapd	(%rax), %xmm14
	prefetcht0	400(%rax)
	leaq	128(%rcx), %rdx
	addq	$64, %rax
	movl	$8, %r8d
	mulpd	%xmm0, %xmm14
	movaps	%xmm14, 64(%rcx)
	movapd	-48(%rax), %xmm15
	movapd	-32(%rax), %xmm6
	mulpd	%xmm0, %xmm15
	movapd	-16(%rax), %xmm7
	mulpd	%xmm0, %xmm6
	mulpd	%xmm0, %xmm7
	movaps	%xmm15, -48(%rax)
	movaps	%xmm6, -32(%rax)
	movaps	%xmm7, -16(%rax)
.L583:
	prefetcht0	400(%rax)
	addq	$64, %rdx
	addq	$64, %rax
	addl	$4, %r8d
	movapd	-64(%rax), %xmm8
	mulpd	%xmm0, %xmm8
	movaps	%xmm8, -64(%rdx)
	movapd	-48(%rax), %xmm9
	mulpd	%xmm0, %xmm9
	movaps	%xmm9, -48(%rdx)
	movapd	-32(%rax), %xmm10
	mulpd	%xmm0, %xmm10
	movaps	%xmm10, -32(%rdx)
	movapd	-16(%rax), %xmm11
	mulpd	%xmm0, %xmm11
	movaps	%xmm11, -16(%rdx)
.L582:
	prefetcht0	400(%rax)
	addl	$4, %r8d
	addq	$64, %rax
	addq	$64, %rdx
	movapd	-64(%rax), %xmm12
	mulpd	%xmm0, %xmm12
	movaps	%xmm12, -64(%rdx)
	movapd	-48(%rax), %xmm13
	mulpd	%xmm0, %xmm13
	movaps	%xmm13, -48(%rdx)
	movapd	-32(%rax), %xmm14
	mulpd	%xmm0, %xmm14
	movaps	%xmm14, -32(%rdx)
	movapd	-16(%rax), %xmm15
	mulpd	%xmm0, %xmm15
	movaps	%xmm15, -16(%rdx)
	cmpl	%r11d, %r8d
	je	.L115
.L116:
	prefetcht0	400(%rax)
	prefetcht0	464(%rax)
	prefetcht0	528(%rax)
	.loc 1 89 0 is_stmt 0 discriminator 3
	movapd	(%rax), %xmm6
	prefetcht0	592(%rax)
	addl	$16, %r8d
	addq	$256, %rax
	addq	$256, %rdx
	mulpd	%xmm0, %xmm6
	movaps	%xmm6, -256(%rdx)
	movapd	-240(%rax), %xmm7
	mulpd	%xmm0, %xmm7
	movaps	%xmm7, -240(%rdx)
	movapd	-224(%rax), %xmm8
	mulpd	%xmm0, %xmm8
	movaps	%xmm8, -224(%rdx)
	movapd	-208(%rax), %xmm9
	mulpd	%xmm0, %xmm9
	movaps	%xmm9, -208(%rdx)
	movapd	-192(%rax), %xmm10
	mulpd	%xmm0, %xmm10
	movaps	%xmm10, -192(%rdx)
	movapd	-176(%rax), %xmm11
	mulpd	%xmm0, %xmm11
	movaps	%xmm11, -176(%rdx)
	movapd	-160(%rax), %xmm12
	mulpd	%xmm0, %xmm12
	movaps	%xmm12, -160(%rdx)
	movapd	-144(%rax), %xmm13
	mulpd	%xmm0, %xmm13
	movaps	%xmm13, -144(%rdx)
	movapd	-128(%rax), %xmm14
	mulpd	%xmm0, %xmm14
	movaps	%xmm14, -128(%rdx)
	movapd	-112(%rax), %xmm15
	mulpd	%xmm0, %xmm15
	movaps	%xmm15, -112(%rdx)
	movapd	-96(%rax), %xmm6
	mulpd	%xmm0, %xmm6
	movaps	%xmm6, -96(%rdx)
	movapd	-80(%rax), %xmm7
	mulpd	%xmm0, %xmm7
	movaps	%xmm7, -80(%rdx)
	movapd	-64(%rax), %xmm8
	mulpd	%xmm0, %xmm8
	movaps	%xmm8, -64(%rdx)
	movapd	-48(%rax), %xmm9
	mulpd	%xmm0, %xmm9
	movaps	%xmm9, -48(%rdx)
	movapd	-32(%rax), %xmm10
	mulpd	%xmm0, %xmm10
	movaps	%xmm10, -32(%rdx)
	movapd	-16(%rax), %xmm11
	mulpd	%xmm0, %xmm11
	movaps	%xmm11, -16(%rdx)
	cmpl	%r11d, %r8d
	jne	.L116
.L115:
	movl	%r11d, %ecx
	leal	1(%r11), %esi
	.loc 1 89 0
	movapd	(%rax), %xmm12
	notl	%ecx
	addl	%r9d, %ecx
	mulpd	%xmm0, %xmm12
	andl	$7, %ecx
	cmpl	%r9d, %esi
	movl	%ecx, %r8d
	movl	$16, %ecx
	movaps	%xmm12, (%rdx)
	jae	.L719
	testl	%r8d, %r8d
	je	.L118
	cmpl	$1, %r8d
	je	.L576
	cmpl	$2, %r8d
	je	.L577
	cmpl	$3, %r8d
	je	.L578
	cmpl	$4, %r8d
	je	.L579
	cmpl	$5, %r8d
	je	.L580
	cmpl	$6, %r8d
	je	.L581
	movapd	16(%rax), %xmm13
	leal	2(%r11), %esi
	movl	$32, %ecx
	mulpd	%xmm0, %xmm13
	movaps	%xmm13, 16(%rdx)
.L581:
	addl	$1, %esi
	movapd	(%rax,%rcx), %xmm14
	mulpd	%xmm0, %xmm14
	movaps	%xmm14, (%rdx,%rcx)
	addq	$16, %rcx
.L580:
	addl	$1, %esi
	movapd	(%rax,%rcx), %xmm15
	mulpd	%xmm0, %xmm15
	movaps	%xmm15, (%rdx,%rcx)
	addq	$16, %rcx
.L579:
	addl	$1, %esi
	movapd	(%rax,%rcx), %xmm6
	mulpd	%xmm0, %xmm6
	movaps	%xmm6, (%rdx,%rcx)
	addq	$16, %rcx
.L578:
	addl	$1, %esi
	movapd	(%rax,%rcx), %xmm7
	mulpd	%xmm0, %xmm7
	movaps	%xmm7, (%rdx,%rcx)
	addq	$16, %rcx
.L577:
	addl	$1, %esi
	movapd	(%rax,%rcx), %xmm8
	mulpd	%xmm0, %xmm8
	movaps	%xmm8, (%rdx,%rcx)
	addq	$16, %rcx
.L576:
	addl	$1, %esi
	movapd	(%rax,%rcx), %xmm9
	mulpd	%xmm0, %xmm9
	movaps	%xmm9, (%rdx,%rcx)
	addq	$16, %rcx
	cmpl	%r9d, %esi
	jae	.L719
.L118:
	addl	$8, %esi
	movapd	(%rax,%rcx), %xmm10
	mulpd	%xmm0, %xmm10
	movaps	%xmm10, (%rdx,%rcx)
	movapd	16(%rax,%rcx), %xmm11
	mulpd	%xmm0, %xmm11
	movaps	%xmm11, 16(%rdx,%rcx)
	movapd	32(%rax,%rcx), %xmm12
	mulpd	%xmm0, %xmm12
	movaps	%xmm12, 32(%rdx,%rcx)
	movapd	48(%rax,%rcx), %xmm13
	mulpd	%xmm0, %xmm13
	movaps	%xmm13, 48(%rdx,%rcx)
	movapd	64(%rax,%rcx), %xmm14
	mulpd	%xmm0, %xmm14
	movaps	%xmm14, 64(%rdx,%rcx)
	movapd	80(%rax,%rcx), %xmm15
	mulpd	%xmm0, %xmm15
	movaps	%xmm15, 80(%rdx,%rcx)
	movapd	96(%rax,%rcx), %xmm6
	mulpd	%xmm0, %xmm6
	movaps	%xmm6, 96(%rdx,%rcx)
	movapd	112(%rax,%rcx), %xmm7
	mulpd	%xmm0, %xmm7
	movaps	%xmm7, 112(%rdx,%rcx)
	subq	$-128, %rcx
	cmpl	%r9d, %esi
	jb	.L118
.L719:
	addl	%r12d, %edi
	cmpl	%r12d, %ebx
	je	.L113
.L114:
	movslq	%edi, %rdx
	leaq	0(%rbp,%rdx,8), %rax
	movsd	(%rax), %xmm0
	mulsd	%xmm2, %xmm0
	movsd	%xmm0, (%rax)
.L113:
.LVL134:
	.loc 1 90 0 is_stmt 1
	movl	68(%rsp), %r9d
	testl	%r9d, %r9d
	jle	.L130
	movq	40(%rsp), %r11
	movq	(%rsp), %r8
	movl	68(%rsp), %ecx
	movq	(%r11,%r8), %rdi
	leaq	8(%rdi), %rsi
	salq	$60, %rsi
	shrq	$63, %rsi
	cmpl	%ecx, %esi
	cmova	%ecx, %esi
	cmpl	$3, %ecx
	cmovbe	%ecx, %esi
	testl	%esi, %esi
	je	.L170
	movsd	8(%rdi), %xmm8
	cmpl	$1, %esi
	movl	$2, %ebx
	mulsd	%xmm2, %xmm8
	movsd	%xmm8, 8(%rdi)
.LVL135:
	je	.L124
	movsd	16(%rdi), %xmm9
	cmpl	$3, %esi
	movb	$3, %bl
	mulsd	%xmm2, %xmm9
	movsd	%xmm9, 16(%rdi)
.LVL136:
	jne	.L124
	movsd	24(%rdi), %xmm10
	movb	$4, %bl
	mulsd	%xmm2, %xmm10
	movsd	%xmm10, 24(%rdi)
.LVL137:
.L124:
	cmpl	%esi, 68(%rsp)
	je	.L130
.L123:
	movl	68(%rsp), %r12d
	movl	%esi, %r11d
	subl	%esi, %r12d
	leal	-2(%r12), %edx
	shrl	%edx
	cmpl	$1, %r12d
	leal	1(%rdx), %r9d
	leal	(%r9,%r9), %eax
	movl	%eax, 12(%rsp)
	je	.L126
	leaq	8(,%r11,8), %rax
	movapd	%xmm2, %xmm0
	subl	$4, %edx
	addq	%rdi, %rax
	cmpl	$-6, %edx
	unpcklpd	%xmm0, %xmm0
	ja	.L173
	movapd	(%rax), %xmm11
	shrl	$2, %edx
	movl	$4, %r8d
	leal	4(,%rdx,4), %r11d
	movl	%edx, %esi
	movq	%rax, %rcx
	movapd	16(%rax), %xmm12
	andl	$3, %esi
	prefetcht0	400(%rax)
	mulpd	%xmm0, %xmm11
	addq	$64, %rax
	movapd	-32(%rax), %xmm13
	mulpd	%xmm0, %xmm12
	movapd	-16(%rax), %xmm14
	mulpd	%xmm0, %xmm13
	movaps	%xmm11, -64(%rax)
	mulpd	%xmm0, %xmm14
	movaps	%xmm12, -48(%rax)
	movaps	%xmm13, -32(%rax)
	movaps	%xmm14, -16(%rax)
	cmpl	%r11d, %r8d
	movq	%rax, %rdx
	je	.L127
	testl	%esi, %esi
	je	.L128
	cmpl	$1, %esi
	je	.L574
	cmpl	$2, %esi
	je	.L575
	movapd	(%rax), %xmm15
	prefetcht0	400(%rax)
	leaq	128(%rcx), %rdx
	addq	$64, %rax
	movl	$8, %r8d
	mulpd	%xmm0, %xmm15
	movaps	%xmm15, 64(%rcx)
	movapd	-48(%rax), %xmm6
	movapd	-32(%rax), %xmm7
	mulpd	%xmm0, %xmm6
	movapd	-16(%rax), %xmm8
	mulpd	%xmm0, %xmm7
	mulpd	%xmm0, %xmm8
	movaps	%xmm6, -48(%rax)
	movaps	%xmm7, -32(%rax)
	movaps	%xmm8, -16(%rax)
.L575:
	prefetcht0	400(%rax)
	addq	$64, %rdx
	addq	$64, %rax
	addl	$4, %r8d
	movapd	-64(%rax), %xmm9
	mulpd	%xmm0, %xmm9
	movaps	%xmm9, -64(%rdx)
	movapd	-48(%rax), %xmm10
	mulpd	%xmm0, %xmm10
	movaps	%xmm10, -48(%rdx)
	movapd	-32(%rax), %xmm11
	mulpd	%xmm0, %xmm11
	movaps	%xmm11, -32(%rdx)
	movapd	-16(%rax), %xmm12
	mulpd	%xmm0, %xmm12
	movaps	%xmm12, -16(%rdx)
.L574:
	prefetcht0	400(%rax)
	addl	$4, %r8d
	addq	$64, %rax
	addq	$64, %rdx
	movapd	-64(%rax), %xmm13
	mulpd	%xmm0, %xmm13
	movaps	%xmm13, -64(%rdx)
	movapd	-48(%rax), %xmm14
	mulpd	%xmm0, %xmm14
	movaps	%xmm14, -48(%rdx)
	movapd	-32(%rax), %xmm15
	mulpd	%xmm0, %xmm15
	movaps	%xmm15, -32(%rdx)
	movapd	-16(%rax), %xmm6
	mulpd	%xmm0, %xmm6
	movaps	%xmm6, -16(%rdx)
	cmpl	%r11d, %r8d
	je	.L127
.L128:
	prefetcht0	400(%rax)
	prefetcht0	464(%rax)
	prefetcht0	528(%rax)
	.loc 1 90 0 is_stmt 0 discriminator 3
	movapd	(%rax), %xmm7
	prefetcht0	592(%rax)
	addl	$16, %r8d
	addq	$256, %rax
	addq	$256, %rdx
	mulpd	%xmm0, %xmm7
	movaps	%xmm7, -256(%rdx)
	movapd	-240(%rax), %xmm8
	mulpd	%xmm0, %xmm8
	movaps	%xmm8, -240(%rdx)
	movapd	-224(%rax), %xmm9
	mulpd	%xmm0, %xmm9
	movaps	%xmm9, -224(%rdx)
	movapd	-208(%rax), %xmm10
	mulpd	%xmm0, %xmm10
	movaps	%xmm10, -208(%rdx)
	movapd	-192(%rax), %xmm11
	mulpd	%xmm0, %xmm11
	movaps	%xmm11, -192(%rdx)
	movapd	-176(%rax), %xmm12
	mulpd	%xmm0, %xmm12
	movaps	%xmm12, -176(%rdx)
	movapd	-160(%rax), %xmm13
	mulpd	%xmm0, %xmm13
	movaps	%xmm13, -160(%rdx)
	movapd	-144(%rax), %xmm14
	mulpd	%xmm0, %xmm14
	movaps	%xmm14, -144(%rdx)
	movapd	-128(%rax), %xmm15
	mulpd	%xmm0, %xmm15
	movaps	%xmm15, -128(%rdx)
	movapd	-112(%rax), %xmm6
	mulpd	%xmm0, %xmm6
	movaps	%xmm6, -112(%rdx)
	movapd	-96(%rax), %xmm7
	mulpd	%xmm0, %xmm7
	movaps	%xmm7, -96(%rdx)
	movapd	-80(%rax), %xmm8
	mulpd	%xmm0, %xmm8
	movaps	%xmm8, -80(%rdx)
	movapd	-64(%rax), %xmm9
	mulpd	%xmm0, %xmm9
	movaps	%xmm9, -64(%rdx)
	movapd	-48(%rax), %xmm10
	mulpd	%xmm0, %xmm10
	movaps	%xmm10, -48(%rdx)
	movapd	-32(%rax), %xmm11
	mulpd	%xmm0, %xmm11
	movaps	%xmm11, -32(%rdx)
	movapd	-16(%rax), %xmm12
	mulpd	%xmm0, %xmm12
	movaps	%xmm12, -16(%rdx)
	cmpl	%r11d, %r8d
	jne	.L128
.L127:
	movl	%r11d, %ecx
	leal	1(%r11), %esi
	.loc 1 90 0
	movapd	(%rax), %xmm13
	notl	%ecx
	addl	%r9d, %ecx
	mulpd	%xmm0, %xmm13
	andl	$7, %ecx
	cmpl	%r9d, %esi
	movl	%ecx, %r8d
	movl	$16, %ecx
	movaps	%xmm13, (%rdx)
	jae	.L720
	testl	%r8d, %r8d
	je	.L131
	cmpl	$1, %r8d
	je	.L568
	cmpl	$2, %r8d
	je	.L569
	cmpl	$3, %r8d
	je	.L570
	cmpl	$4, %r8d
	je	.L571
	cmpl	$5, %r8d
	je	.L572
	cmpl	$6, %r8d
	je	.L573
	movapd	16(%rax), %xmm14
	leal	2(%r11), %esi
	movl	$32, %ecx
	mulpd	%xmm0, %xmm14
	movaps	%xmm14, 16(%rdx)
.L573:
	addl	$1, %esi
	movapd	(%rax,%rcx), %xmm15
	mulpd	%xmm0, %xmm15
	movaps	%xmm15, (%rdx,%rcx)
	addq	$16, %rcx
.L572:
	addl	$1, %esi
	movapd	(%rax,%rcx), %xmm6
	mulpd	%xmm0, %xmm6
	movaps	%xmm6, (%rdx,%rcx)
	addq	$16, %rcx
.L571:
	addl	$1, %esi
	movapd	(%rax,%rcx), %xmm7
	mulpd	%xmm0, %xmm7
	movaps	%xmm7, (%rdx,%rcx)
	addq	$16, %rcx
.L570:
	addl	$1, %esi
	movapd	(%rax,%rcx), %xmm8
	mulpd	%xmm0, %xmm8
	movaps	%xmm8, (%rdx,%rcx)
	addq	$16, %rcx
.L569:
	addl	$1, %esi
	movapd	(%rax,%rcx), %xmm9
	mulpd	%xmm0, %xmm9
	movaps	%xmm9, (%rdx,%rcx)
	addq	$16, %rcx
.L568:
	addl	$1, %esi
	movapd	(%rax,%rcx), %xmm10
	mulpd	%xmm0, %xmm10
	movaps	%xmm10, (%rdx,%rcx)
	addq	$16, %rcx
	cmpl	%r9d, %esi
	jae	.L720
.L131:
	addl	$8, %esi
	movapd	(%rax,%rcx), %xmm11
	mulpd	%xmm0, %xmm11
	movaps	%xmm11, (%rdx,%rcx)
	movapd	16(%rax,%rcx), %xmm12
	mulpd	%xmm0, %xmm12
	movaps	%xmm12, 16(%rdx,%rcx)
	movapd	32(%rax,%rcx), %xmm13
	mulpd	%xmm0, %xmm13
	movaps	%xmm13, 32(%rdx,%rcx)
	movapd	48(%rax,%rcx), %xmm14
	mulpd	%xmm0, %xmm14
	movaps	%xmm14, 48(%rdx,%rcx)
	movapd	64(%rax,%rcx), %xmm15
	mulpd	%xmm0, %xmm15
	movaps	%xmm15, 64(%rdx,%rcx)
	movapd	80(%rax,%rcx), %xmm6
	mulpd	%xmm0, %xmm6
	movaps	%xmm6, 80(%rdx,%rcx)
	movapd	96(%rax,%rcx), %xmm7
	mulpd	%xmm0, %xmm7
	movaps	%xmm7, 96(%rdx,%rcx)
	movapd	112(%rax,%rcx), %xmm8
	mulpd	%xmm0, %xmm8
	movaps	%xmm8, 112(%rdx,%rcx)
	subq	$-128, %rcx
	cmpl	%r9d, %esi
	jb	.L131
.L720:
	movl	12(%rsp), %edx
	addl	%edx, %ebx
	cmpl	%edx, %r12d
	je	.L130
.L126:
	movslq	%ebx, %rax
	leaq	(%rdi,%rax,8), %r9
	mulsd	(%r9), %xmm2
.LVL138:
	movsd	%xmm2, (%r9)
.L130:
.LVL139:
	leaq	24(%rbp), %r8
	movl	68(%rsp), %edi
	xorl	%r11d, %r11d
	movl	$1, %r9d
	movl	%r15d, 20(%rsp)
	movq	%r8, 48(%rsp)
	movl	%r14d, 108(%rsp)
	movq	%r10, 24(%rsp)
.LVL140:
	.p2align 4,,10
	.p2align 3
.L121:
	.loc 1 92 0 is_stmt 1
	cmpl	20(%rsp), %r9d
	je	.L146
	.loc 1 93 0
	movq	24(%rsp), %r10
	movq	(%rsp), %r14
	movq	8(%r10,%r11), %rcx
	addq	%rcx, %r14
	leaq	8(%rcx), %r15
	cmpq	48(%rsp), %r15
	leaq	24(%rcx), %rbx
	movsd	(%r14), %xmm0
.LVL141:
	.loc 1 94 0
	movq	$0, (%r14)
.LVL142:
	setae	%sil
	cmpq	%rbx, 32(%rsp)
	setae	%r12b
	orb	%r12b, %sil
	je	.L135
	cmpl	$8, %r13d
	jbe	.L135
	salq	$60, %r15
	movl	$1, %r8d
	shrq	$63, %r15
	cmpl	%r13d, %r15d
	cmova	%r13d, %r15d
	testl	%r15d, %r15d
	je	.L136
	.loc 1 95 0
	movsd	8(%rbp), %xmm9
	movb	$2, %r8b
	movsd	8(%rcx), %xmm10
	mulsd	%xmm0, %xmm9
	subsd	%xmm9, %xmm10
	movsd	%xmm10, 8(%rcx)
.LVL143:
.L136:
	movl	%r13d, %edx
	movl	%r15d, %r14d
	subl	%r15d, %edx
	movapd	%xmm0, %xmm2
	leal	-2(%rdx), %r10d
	movl	%edx, 56(%rsp)
	leaq	8(,%r14,8), %rdx
	unpcklpd	%xmm2, %xmm2
	shrl	%r10d
	leal	1(%r10), %eax
	subl	$4, %r10d
	movl	%eax, 12(%rsp)
	addl	%eax, %eax
	movl	%eax, 16(%rsp)
	leaq	(%rcx,%rdx), %rax
	addq	%rbp, %rdx
	cmpl	$-6, %r10d
	ja	.L175
	movupd	(%rdx), %xmm11
	shrl	$2, %r10d
	movl	$4, %ebx
	leal	4(,%r10,4), %r15d
	.loc 1 94 0
	movq	%rax, %r12
	andl	$1, %r10d
	.loc 1 95 0
	mulpd	%xmm2, %xmm11
	prefetcht0	304(%rax)
	addq	$64, %rdx
	movapd	(%rax), %xmm12
	addq	$64, %rax
	movapd	-48(%rax), %xmm14
	subpd	%xmm11, %xmm12
	movapd	-32(%rax), %xmm6
	movapd	-16(%rax), %xmm8
	movaps	%xmm12, -64(%rax)
	movupd	-48(%rdx), %xmm13
	mulpd	%xmm2, %xmm13
	subpd	%xmm13, %xmm14
	movaps	%xmm14, -48(%rax)
	movupd	-32(%rdx), %xmm15
	mulpd	%xmm2, %xmm15
	subpd	%xmm15, %xmm6
	movaps	%xmm6, -32(%rax)
	movupd	-16(%rdx), %xmm7
	mulpd	%xmm2, %xmm7
	subpd	%xmm7, %xmm8
	movaps	%xmm8, -16(%rax)
	cmpl	%r15d, %ebx
	movq	%rax, %rsi
	je	.L137
	testl	%r10d, %r10d
	je	.L138
	movupd	(%rdx), %xmm9
	prefetcht0	304(%rax)
	movl	$8, %ebx
	addq	$64, %rax
	addq	$64, %rdx
	leaq	128(%r12), %rsi
	mulpd	%xmm2, %xmm9
	movapd	-64(%rax), %xmm10
	subpd	%xmm9, %xmm10
	movaps	%xmm10, 64(%r12)
	movupd	-48(%rdx), %xmm11
	mulpd	%xmm2, %xmm11
	movapd	-48(%rax), %xmm12
	movapd	-32(%rax), %xmm14
	subpd	%xmm11, %xmm12
	movapd	-16(%rax), %xmm6
	movaps	%xmm12, -48(%rax)
	movupd	-32(%rdx), %xmm13
	mulpd	%xmm2, %xmm13
	subpd	%xmm13, %xmm14
	movaps	%xmm14, -32(%rax)
	movupd	-16(%rdx), %xmm15
	mulpd	%xmm2, %xmm15
	subpd	%xmm15, %xmm6
	movaps	%xmm6, -16(%rax)
	cmpl	%r15d, %ebx
	je	.L137
.L138:
	prefetcht0	304(%rax)
	prefetcht0	368(%rax)
	addl	$8, %ebx
	.loc 1 95 0 is_stmt 0 discriminator 3
	movupd	(%rdx), %xmm7
	subq	$-128, %rax
	subq	$-128, %rdx
	subq	$-128, %rsi
	mulpd	%xmm2, %xmm7
	movapd	-128(%rax), %xmm8
	subpd	%xmm7, %xmm8
	movaps	%xmm8, -128(%rsi)
	movupd	-112(%rdx), %xmm9
	mulpd	%xmm2, %xmm9
	movapd	-112(%rax), %xmm10
	subpd	%xmm9, %xmm10
	movaps	%xmm10, -112(%rsi)
	movupd	-96(%rdx), %xmm11
	mulpd	%xmm2, %xmm11
	movapd	-96(%rax), %xmm12
	subpd	%xmm11, %xmm12
	movaps	%xmm12, -96(%rsi)
	movupd	-80(%rdx), %xmm13
	mulpd	%xmm2, %xmm13
	movapd	-80(%rax), %xmm14
	subpd	%xmm13, %xmm14
	movaps	%xmm14, -80(%rsi)
	movupd	-64(%rdx), %xmm15
	mulpd	%xmm2, %xmm15
	movapd	-64(%rax), %xmm6
	subpd	%xmm15, %xmm6
	movaps	%xmm6, -64(%rsi)
	movupd	-48(%rdx), %xmm7
	mulpd	%xmm2, %xmm7
	movapd	-48(%rax), %xmm8
	subpd	%xmm7, %xmm8
	movaps	%xmm8, -48(%rsi)
	movupd	-32(%rdx), %xmm9
	mulpd	%xmm2, %xmm9
	movapd	-32(%rax), %xmm10
	subpd	%xmm9, %xmm10
	movaps	%xmm10, -32(%rsi)
	movupd	-16(%rdx), %xmm11
	mulpd	%xmm2, %xmm11
	movapd	-16(%rax), %xmm12
	subpd	%xmm11, %xmm12
	movaps	%xmm12, -16(%rsi)
	cmpl	%r15d, %ebx
	jne	.L138
.L137:
	movl	%r15d, %r12d
	leal	1(%r15), %ebx
	movl	$16, %r10d
	.loc 1 95 0
	movupd	(%rdx), %xmm13
	notl	%r12d
	movl	12(%rsp), %r14d
	mulpd	%xmm2, %xmm13
	movapd	(%rax), %xmm14
	addl	%r14d, %r12d
	andl	$7, %r12d
	cmpl	%ebx, %r14d
	subpd	%xmm13, %xmm14
	movaps	%xmm14, (%rsi)
	jbe	.L722
	testl	%r12d, %r12d
	je	.L140
	cmpl	$1, %r12d
	je	.L562
	cmpl	$2, %r12d
	je	.L563
	cmpl	$3, %r12d
	je	.L564
	cmpl	$4, %r12d
	je	.L565
	cmpl	$5, %r12d
	je	.L566
	cmpl	$6, %r12d
	je	.L567
	movupd	16(%rdx), %xmm15
	leal	2(%r15), %ebx
	movl	$32, %r10d
	mulpd	%xmm2, %xmm15
	movapd	16(%rax), %xmm6
	subpd	%xmm15, %xmm6
	movaps	%xmm6, 16(%rsi)
.L567:
	addl	$1, %ebx
	movupd	(%rdx,%r10), %xmm7
	mulpd	%xmm2, %xmm7
	movapd	(%rax,%r10), %xmm8
	subpd	%xmm7, %xmm8
	movaps	%xmm8, (%rsi,%r10)
	addq	$16, %r10
.L566:
	addl	$1, %ebx
	movupd	(%rdx,%r10), %xmm9
	mulpd	%xmm2, %xmm9
	movapd	(%rax,%r10), %xmm10
	subpd	%xmm9, %xmm10
	movaps	%xmm10, (%rsi,%r10)
	addq	$16, %r10
.L565:
	addl	$1, %ebx
	movupd	(%rdx,%r10), %xmm11
	mulpd	%xmm2, %xmm11
	movapd	(%rax,%r10), %xmm12
	subpd	%xmm11, %xmm12
	movaps	%xmm12, (%rsi,%r10)
	addq	$16, %r10
.L564:
	addl	$1, %ebx
	movupd	(%rdx,%r10), %xmm13
	mulpd	%xmm2, %xmm13
	movapd	(%rax,%r10), %xmm14
	subpd	%xmm13, %xmm14
	movaps	%xmm14, (%rsi,%r10)
	addq	$16, %r10
.L563:
	addl	$1, %ebx
	movupd	(%rdx,%r10), %xmm15
	mulpd	%xmm2, %xmm15
	movapd	(%rax,%r10), %xmm6
	subpd	%xmm15, %xmm6
	movaps	%xmm6, (%rsi,%r10)
	addq	$16, %r10
.L562:
	addl	$1, %ebx
	movupd	(%rdx,%r10), %xmm7
	mulpd	%xmm2, %xmm7
	movapd	(%rax,%r10), %xmm8
	subpd	%xmm7, %xmm8
	movaps	%xmm8, (%rsi,%r10)
	addq	$16, %r10
	cmpl	%ebx, 12(%rsp)
	jbe	.L722
.L140:
	movupd	(%rdx,%r10), %xmm9
	addl	$8, %ebx
	mulpd	%xmm2, %xmm9
	movapd	(%rax,%r10), %xmm10
	subpd	%xmm9, %xmm10
	movaps	%xmm10, (%rsi,%r10)
	movupd	16(%rdx,%r10), %xmm11
	mulpd	%xmm2, %xmm11
	movapd	16(%rax,%r10), %xmm12
	subpd	%xmm11, %xmm12
	movaps	%xmm12, 16(%rsi,%r10)
	movupd	32(%rdx,%r10), %xmm13
	mulpd	%xmm2, %xmm13
	movapd	32(%rax,%r10), %xmm14
	subpd	%xmm13, %xmm14
	movaps	%xmm14, 32(%rsi,%r10)
	movupd	48(%rdx,%r10), %xmm15
	mulpd	%xmm2, %xmm15
	movapd	48(%rax,%r10), %xmm6
	subpd	%xmm15, %xmm6
	movaps	%xmm6, 48(%rsi,%r10)
	movupd	64(%rdx,%r10), %xmm7
	mulpd	%xmm2, %xmm7
	movapd	64(%rax,%r10), %xmm8
	subpd	%xmm7, %xmm8
	movaps	%xmm8, 64(%rsi,%r10)
	movupd	80(%rdx,%r10), %xmm9
	mulpd	%xmm2, %xmm9
	movapd	80(%rax,%r10), %xmm10
	subpd	%xmm9, %xmm10
	movaps	%xmm10, 80(%rsi,%r10)
	movupd	96(%rdx,%r10), %xmm11
	mulpd	%xmm2, %xmm11
	movapd	96(%rax,%r10), %xmm12
	subpd	%xmm11, %xmm12
	movaps	%xmm12, 96(%rsi,%r10)
	movupd	112(%rdx,%r10), %xmm13
	mulpd	%xmm2, %xmm13
	movapd	112(%rax,%r10), %xmm14
	subpd	%xmm13, %xmm14
	movaps	%xmm14, 112(%rsi,%r10)
	subq	$-128, %r10
	cmpl	%ebx, 12(%rsp)
	ja	.L140
.L722:
	movl	16(%rsp), %esi
	addl	%esi, %r8d
	cmpl	56(%rsp), %esi
	je	.L145
.LVL144:
	movslq	%r8d, %rdx
	movsd	0(%rbp,%rdx,8), %xmm15
	leaq	(%rcx,%rdx,8), %rcx
	mulsd	%xmm0, %xmm15
	movsd	(%rcx), %xmm2
	subsd	%xmm15, %xmm2
	movsd	%xmm2, (%rcx)
.LVL145:
.L145:
	.loc 1 96 0 is_stmt 1 discriminator 1
	testl	%edi, %edi
	jle	.L146
	movq	40(%rsp), %rcx
	movq	(%rsp), %r8
	movq	8(%rcx,%r11), %rsi
	movq	(%rcx,%r8), %r8
	leaq	24(%rsi), %rax
	leaq	8(%r8), %r15
	leaq	8(%rsi), %r12
	leaq	24(%r8), %r10
	cmpq	%r15, %rax
	setbe	%r14b
	cmpq	%r10, %r12
	setae	%bl
	orb	%bl, %r14b
	je	.L147
	cmpl	$8, %edi
	jbe	.L147
	salq	$60, %r12
	.loc 1 96 0 is_stmt 0
	movl	$1, 12(%rsp)
	shrq	$63, %r12
	cmpl	%edi, %r12d
	cmova	%edi, %r12d
	testl	%r12d, %r12d
	je	.L148
	movsd	8(%r8), %xmm14
	movl	$2, 12(%rsp)
	movsd	8(%rsi), %xmm15
	mulsd	%xmm0, %xmm14
	subsd	%xmm14, %xmm15
	movsd	%xmm15, 8(%rsi)
.LVL146:
.L148:
	movl	%edi, %r15d
	movl	%r12d, %ecx
	subl	%r12d, %r15d
	leaq	8(,%rcx,8), %rax
	movl	%r15d, 60(%rsp)
	subl	$2, %r15d
	shrl	%r15d
	movapd	%xmm0, %xmm2
	leal	1(%r15), %edx
	subl	$4, %r15d
	unpcklpd	%xmm2, %xmm2
	movl	%edx, 16(%rsp)
	addl	%edx, %edx
	movl	%edx, 56(%rsp)
	leaq	(%rsi,%rax), %rdx
	addq	%r8, %rax
	cmpl	$-6, %r15d
	ja	.L178
	movupd	(%rax), %xmm7
	shrl	$2, %r15d
	leaq	64(%rdx), %rcx
	leal	4(,%r15,4), %r12d
	movl	$4, %r14d
	andl	$1, %r15d
	mulpd	%xmm2, %xmm7
	addq	$64, %rax
	prefetcht0	304(%rdx)
	movapd	(%rdx), %xmm6
	movapd	16(%rdx), %xmm9
	subpd	%xmm7, %xmm6
	movapd	32(%rdx), %xmm11
	movapd	48(%rdx), %xmm13
	movaps	%xmm6, (%rdx)
	movupd	-48(%rax), %xmm8
	mulpd	%xmm2, %xmm8
	subpd	%xmm8, %xmm9
	movaps	%xmm9, 16(%rdx)
	movupd	-32(%rax), %xmm10
	mulpd	%xmm2, %xmm10
	subpd	%xmm10, %xmm11
	movaps	%xmm11, 32(%rdx)
	movupd	-16(%rax), %xmm12
	cmpl	%r12d, %r14d
	mulpd	%xmm2, %xmm12
	subpd	%xmm12, %xmm13
	movaps	%xmm13, 48(%rdx)
	movq	%rcx, %rdx
	je	.L149
	testl	%r15d, %r15d
	je	.L150
	movupd	(%rax), %xmm14
	movl	$8, %r14d
	prefetcht0	304(%rcx)
	addq	$64, %rax
	addq	$64, %rcx
	addq	$64, %rdx
	mulpd	%xmm2, %xmm14
	movapd	-64(%rcx), %xmm15
	movapd	-48(%rcx), %xmm6
	subpd	%xmm14, %xmm15
	movapd	-32(%rcx), %xmm9
	movapd	-16(%rcx), %xmm11
	movaps	%xmm15, -64(%rcx)
	movupd	-48(%rax), %xmm7
	mulpd	%xmm2, %xmm7
	subpd	%xmm7, %xmm6
	movaps	%xmm6, -48(%rcx)
	movupd	-32(%rax), %xmm8
	mulpd	%xmm2, %xmm8
	subpd	%xmm8, %xmm9
	movaps	%xmm9, -32(%rcx)
	movupd	-16(%rax), %xmm10
	mulpd	%xmm2, %xmm10
	subpd	%xmm10, %xmm11
	movaps	%xmm11, -16(%rcx)
	cmpl	%r12d, %r14d
	je	.L149
.L150:
	prefetcht0	304(%rcx)
	prefetcht0	368(%rcx)
	addl	$8, %r14d
	.loc 1 96 0 discriminator 3
	movupd	(%rax), %xmm12
	subq	$-128, %rcx
	subq	$-128, %rax
	subq	$-128, %rdx
	mulpd	%xmm2, %xmm12
	movapd	-128(%rcx), %xmm13
	subpd	%xmm12, %xmm13
	movaps	%xmm13, -128(%rdx)
	movupd	-112(%rax), %xmm14
	mulpd	%xmm2, %xmm14
	movapd	-112(%rcx), %xmm15
	subpd	%xmm14, %xmm15
	movaps	%xmm15, -112(%rdx)
	movupd	-96(%rax), %xmm7
	mulpd	%xmm2, %xmm7
	movapd	-96(%rcx), %xmm6
	subpd	%xmm7, %xmm6
	movaps	%xmm6, -96(%rdx)
	movupd	-80(%rax), %xmm8
	mulpd	%xmm2, %xmm8
	movapd	-80(%rcx), %xmm9
	subpd	%xmm8, %xmm9
	movaps	%xmm9, -80(%rdx)
	movupd	-64(%rax), %xmm10
	mulpd	%xmm2, %xmm10
	movapd	-64(%rcx), %xmm11
	subpd	%xmm10, %xmm11
	movaps	%xmm11, -64(%rdx)
	movupd	-48(%rax), %xmm12
	mulpd	%xmm2, %xmm12
	movapd	-48(%rcx), %xmm13
	subpd	%xmm12, %xmm13
	movaps	%xmm13, -48(%rdx)
	movupd	-32(%rax), %xmm14
	mulpd	%xmm2, %xmm14
	movapd	-32(%rcx), %xmm15
	subpd	%xmm14, %xmm15
	movaps	%xmm15, -32(%rdx)
	movupd	-16(%rax), %xmm7
	mulpd	%xmm2, %xmm7
	movapd	-16(%rcx), %xmm6
	subpd	%xmm7, %xmm6
	movaps	%xmm6, -16(%rdx)
	cmpl	%r12d, %r14d
	jne	.L150
.L149:
	movl	%r12d, %r14d
	leal	1(%r12), %ebx
	movl	$16, %r10d
	.loc 1 96 0
	movupd	(%rax), %xmm8
	notl	%r14d
	movl	16(%rsp), %r15d
	mulpd	%xmm2, %xmm8
	movapd	(%rcx), %xmm9
	addl	%r15d, %r14d
	andl	$7, %r14d
	cmpl	%r15d, %ebx
	subpd	%xmm8, %xmm9
	movaps	%xmm9, (%rdx)
	jae	.L723
	testl	%r14d, %r14d
	je	.L152
	cmpl	$1, %r14d
	je	.L550
	cmpl	$2, %r14d
	je	.L551
	cmpl	$3, %r14d
	je	.L552
	cmpl	$4, %r14d
	je	.L553
	cmpl	$5, %r14d
	je	.L554
	cmpl	$6, %r14d
	je	.L555
	movupd	16(%rax), %xmm10
	leal	2(%r12), %ebx
	movl	$32, %r10d
	mulpd	%xmm2, %xmm10
	movapd	16(%rcx), %xmm11
	subpd	%xmm10, %xmm11
	movaps	%xmm11, 16(%rdx)
.L555:
	addl	$1, %ebx
	movupd	(%rax,%r10), %xmm12
	mulpd	%xmm2, %xmm12
	movapd	(%rcx,%r10), %xmm13
	subpd	%xmm12, %xmm13
	movaps	%xmm13, (%rdx,%r10)
	addq	$16, %r10
.L554:
	addl	$1, %ebx
	movupd	(%rax,%r10), %xmm14
	mulpd	%xmm2, %xmm14
	movapd	(%rcx,%r10), %xmm15
	subpd	%xmm14, %xmm15
	movaps	%xmm15, (%rdx,%r10)
	addq	$16, %r10
.L553:
	addl	$1, %ebx
	movupd	(%rax,%r10), %xmm7
	mulpd	%xmm2, %xmm7
	movapd	(%rcx,%r10), %xmm6
	subpd	%xmm7, %xmm6
	movaps	%xmm6, (%rdx,%r10)
	addq	$16, %r10
.L552:
	addl	$1, %ebx
	movupd	(%rax,%r10), %xmm8
	mulpd	%xmm2, %xmm8
	movapd	(%rcx,%r10), %xmm9
	subpd	%xmm8, %xmm9
	movaps	%xmm9, (%rdx,%r10)
	addq	$16, %r10
.L551:
	addl	$1, %ebx
	movupd	(%rax,%r10), %xmm10
	mulpd	%xmm2, %xmm10
	movapd	(%rcx,%r10), %xmm11
	subpd	%xmm10, %xmm11
	movaps	%xmm11, (%rdx,%r10)
	addq	$16, %r10
.L550:
	addl	$1, %ebx
	movupd	(%rax,%r10), %xmm12
	mulpd	%xmm2, %xmm12
	movapd	(%rcx,%r10), %xmm13
	subpd	%xmm12, %xmm13
	movaps	%xmm13, (%rdx,%r10)
	addq	$16, %r10
	cmpl	16(%rsp), %ebx
	jae	.L723
.L152:
	movupd	(%rax,%r10), %xmm14
	addl	$8, %ebx
	mulpd	%xmm2, %xmm14
	movapd	(%rcx,%r10), %xmm15
	subpd	%xmm14, %xmm15
	movaps	%xmm15, (%rdx,%r10)
	movupd	16(%rax,%r10), %xmm7
	mulpd	%xmm2, %xmm7
	movapd	16(%rcx,%r10), %xmm6
	subpd	%xmm7, %xmm6
	movaps	%xmm6, 16(%rdx,%r10)
	movupd	32(%rax,%r10), %xmm8
	mulpd	%xmm2, %xmm8
	movapd	32(%rcx,%r10), %xmm9
	subpd	%xmm8, %xmm9
	movaps	%xmm9, 32(%rdx,%r10)
	movupd	48(%rax,%r10), %xmm10
	mulpd	%xmm2, %xmm10
	movapd	48(%rcx,%r10), %xmm11
	subpd	%xmm10, %xmm11
	movaps	%xmm11, 48(%rdx,%r10)
	movupd	64(%rax,%r10), %xmm12
	mulpd	%xmm2, %xmm12
	movapd	64(%rcx,%r10), %xmm13
	subpd	%xmm12, %xmm13
	movaps	%xmm13, 64(%rdx,%r10)
	movupd	80(%rax,%r10), %xmm14
	mulpd	%xmm2, %xmm14
	movapd	80(%rcx,%r10), %xmm15
	subpd	%xmm14, %xmm15
	movaps	%xmm15, 80(%rdx,%r10)
	movupd	96(%rax,%r10), %xmm7
	mulpd	%xmm2, %xmm7
	movapd	96(%rcx,%r10), %xmm6
	subpd	%xmm7, %xmm6
	movaps	%xmm6, 96(%rdx,%r10)
	movupd	112(%rax,%r10), %xmm8
	mulpd	%xmm2, %xmm8
	movapd	112(%rcx,%r10), %xmm9
	subpd	%xmm8, %xmm9
	movaps	%xmm9, 112(%rdx,%r10)
	subq	$-128, %r10
	cmpl	16(%rsp), %ebx
	jb	.L152
	.p2align 4,,10
	.p2align 3
.L723:
	movl	56(%rsp), %edx
	movl	12(%rsp), %eax
	addl	%edx, %eax
	cmpl	60(%rsp), %edx
	je	.L146
.LVL147:
	cltq
	mulsd	(%r8,%rax,8), %xmm0
.LVL148:
	leaq	(%rsi,%rax,8), %rsi
	movapd	%xmm0, %xmm2
	movsd	(%rsi), %xmm0
	subsd	%xmm2, %xmm0
	movsd	%xmm0, (%rsi)
.LVL149:
.L146:
	.loc 1 91 0 is_stmt 1
	addl	$1, %r9d
.LVL150:
	addq	$8, %r11
	cmpl	%r9d, %r13d
	jge	.L121
	addq	$1, 72(%rsp)
.LVL151:
	movl	20(%rsp), %r15d
	movq	72(%rsp), %rbx
	movl	108(%rsp), %r14d
	movq	24(%rsp), %r10
.LVL152:
	addl	$1, %ebx
	.loc 1 66 0
	cmpl	%ebx, %r13d
	jge	.L88
.LVL153:
	movq	136(%rsp), %rsi
	movq	96(%rsp), %r8
	movl	%r13d, %ebp
	movq	88(%rsp), %rax
	xorl	%r9d, %r9d
.LVL154:
	subq	$4, %rsi
	leaq	(%r8,%rsi), %r11
	leaq	(%rax,%rsi), %rsi
.LVL155:
.L158:
	.loc 1 100 0
	movslq	(%r11,%r9), %rdi
	movslq	(%rsi,%r9), %rdx
	cmpl	%edx, %edi
	je	.L161
	.loc 1 102 0
	movq	8(%r10), %rcx
	leaq	0(,%rdi,8), %r14
	leaq	0(,%rdx,8), %r12
	leal	-1(%r13), %r15d
	.loc 1 101 0
	movl	$2, %edi
	leaq	16(%r10), %rdx
	.loc 1 102 0
	leaq	(%rcx,%r14), %rbx
	addq	%r12, %rcx
	andl	$3, %r15d
.LVL156:
	movsd	(%rcx), %xmm1
	.loc 1 101 0
	cmpl	$2, %r13d
	.loc 1 102 0
	movsd	(%rbx), %xmm0
.LVL157:
	movsd	%xmm1, (%rbx)
	movsd	%xmm0, (%rcx)
	.loc 1 101 0
	jl	.L161
	testl	%r15d, %r15d
	je	.L160
	cmpl	$1, %r15d
	je	.L542
	cmpl	$2, %r15d
	je	.L543
	.loc 1 102 0
	movq	16(%r10), %r8
	leaq	24(%r10), %rdx
	.loc 1 101 0
	movl	$3, %edi
	.loc 1 102 0
	leaq	(%r8,%r14), %rax
	addq	%r12, %r8
	movsd	(%r8), %xmm4
	movsd	(%rax), %xmm3
	movsd	%xmm4, (%rax)
	movsd	%xmm3, (%r8)
.L543:
	movq	(%rdx), %r15
	.loc 1 101 0
	addl	$1, %edi
	addq	$8, %rdx
	.loc 1 102 0
	leaq	(%r15,%r14), %rcx
	addq	%r12, %r15
	movsd	(%r15), %xmm8
	movsd	(%rcx), %xmm5
	movsd	%xmm8, (%rcx)
	movsd	%xmm5, (%r15)
.L542:
	movq	(%rdx), %r8
	.loc 1 101 0
	addl	$1, %edi
	addq	$8, %rdx
	.loc 1 102 0
	leaq	(%r8,%r14), %rbx
	addq	%r12, %r8
	.loc 1 101 0
	cmpl	%edi, %r13d
	.loc 1 102 0
	movsd	(%r8), %xmm10
	movsd	(%rbx), %xmm9
	movsd	%xmm10, (%rbx)
	movsd	%xmm9, (%r8)
	.loc 1 101 0
	jl	.L161
.L160:
	.loc 1 102 0 discriminator 3
	movq	(%rdx), %rax
	.loc 1 101 0 discriminator 3
	addl	$4, %edi
	addq	$32, %rdx
	.loc 1 102 0 discriminator 3
	movq	-24(%rdx), %rcx
	leaq	(%rax,%r14), %r15
	addq	%r12, %rax
	movsd	(%rax), %xmm12
	leaq	(%rcx,%r14), %r8
	addq	%r12, %rcx
	movsd	(%r15), %xmm11
	movsd	%xmm12, (%r15)
	movq	-8(%rdx), %r15
	movsd	%xmm11, (%rax)
	movq	-16(%rdx), %rax
	movsd	(%rcx), %xmm14
	movsd	(%r8), %xmm13
	leaq	(%rax,%r14), %rbx
	addq	%r12, %rax
	movsd	%xmm14, (%r8)
	movsd	%xmm13, (%rcx)
	leaq	(%r15,%r14), %rcx
	addq	%r12, %r15
	.loc 1 101 0 discriminator 3
	cmpl	%edi, %r13d
	.loc 1 102 0 discriminator 3
	movsd	(%rbx), %xmm15
	movsd	(%rax), %xmm7
	movsd	%xmm7, (%rbx)
	movsd	%xmm15, (%rax)
	movsd	(%rcx), %xmm6
	movsd	(%r15), %xmm2
	movsd	%xmm2, (%rcx)
	movsd	%xmm6, (%r15)
	.loc 1 101 0 discriminator 3
	jge	.L160
.LVL158:
.L161:
	.loc 1 99 0
	subl	$1, %ebp
.LVL159:
	subq	$4, %r9
	testl	%ebp, %ebp
	jg	.L158
.LVL160:
.L87:
.LBB61:
.LBB62:
	.loc 1 128 0
	movq	80(%rsp), %rdi
	call	free
.LVL161:
.LBE62:
.LBE61:
.LBB63:
.LBB64:
	movq	96(%rsp), %rdi
	call	free
.LVL162:
.LBE64:
.LBE63:
.LBB65:
.LBB66:
	movq	88(%rsp), %rdi
.LBE66:
.LBE65:
.LBE72:
	.loc 1 107 0
	addq	$152, %rsp
	.cfi_remember_state
	.cfi_def_cfa_offset 56
	popq	%rbx
	.cfi_def_cfa_offset 48
	popq	%rbp
	.cfi_def_cfa_offset 40
	popq	%r12
	.cfi_def_cfa_offset 32
	popq	%r13
	.cfi_def_cfa_offset 24
.LVL163:
	popq	%r14
	.cfi_def_cfa_offset 16
	popq	%r15
	.cfi_def_cfa_offset 8
.LBB73:
.LBB68:
.LBB67:
	.loc 1 128 0
	jmp	free
.LVL164:
	.p2align 4,,10
	.p2align 3
.L494:
	.cfi_restore_state
.LBE67:
.LBE68:
	.loc 1 77 0
	cmpl	$1, %edx
	jle	.L495
	movl	$.LC8, %edi
	call	_Z7nrerrorPKc
.LVL165:
	.p2align 4,,10
	.p2align 3
.L727:
	.loc 1 72 0
	movq	8(%r10,%rdi,2), %r12
	movsd	(%r12,%rcx), %xmm8
	andpd	%xmm1, %xmm8
	ucomisd	%xmm0, %xmm8
	jb	.L509
	.loc 1 73 0
	movapd	%xmm8, %xmm0
.LVL166:
	.loc 1 72 0
	movl	%ebp, %r14d
	movl	%r11d, %r15d
	jmp	.L509
.LVL167:
	.p2align 4,,10
	.p2align 3
.L726:
	movq	8(%r10,%rdi,2), %rdx
	movsd	(%rdx,%rcx), %xmm7
	andpd	%xmm1, %xmm7
	ucomisd	%xmm0, %xmm7
	jb	.L504
	.loc 1 73 0
	movapd	%xmm7, %xmm0
.LVL168:
	.loc 1 72 0
	movl	%ebp, %r14d
	movl	%r11d, %r15d
	jmp	.L504
.LVL169:
	.p2align 4,,10
	.p2align 3
.L725:
	movq	8(%r10,%rdi,2), %r12
	movsd	16(%r12), %xmm6
	andpd	%xmm1, %xmm6
	ucomisd	%xmm0, %xmm6
	jb	.L499
	.loc 1 73 0
	movapd	%xmm6, %xmm0
.LVL170:
	.loc 1 72 0
	movl	%ebp, %r14d
	movl	$2, %r15d
	jmp	.L499
.LVL171:
	.p2align 4,,10
	.p2align 3
.L135:
	cmpl	$8, %r13d
	jle	.L176
	.loc 1 95 0
	movsd	8(%rbp), %xmm6
	leaq	160(%rcx), %rax
	leaq	160(%rbp), %r15
	movsd	-152(%rax), %xmm7
	movl	64(%rsp), %r12d
	mulsd	%xmm0, %xmm6
	prefetcht0	(%r15)
	prefetcht0	(%rax)
	movsd	-144(%rax), %xmm9
	movl	$9, %r8d
	leaq	224(%rbp), %rsi
	movsd	-136(%rax), %xmm11
	leal	-9(%r12), %r14d
	movsd	-128(%rax), %xmm13
	subsd	%xmm6, %xmm7
	movsd	-120(%rax), %xmm15
	movsd	-112(%rax), %xmm2
	shrl	$3, %r14d
	andl	$1, %r14d
	cmpl	$9, %r12d
	movsd	%xmm7, -152(%rax)
.LVL172:
	movsd	16(%rbp), %xmm8
	mulsd	%xmm0, %xmm8
	subsd	%xmm8, %xmm9
	movsd	-104(%rax), %xmm8
	movsd	%xmm9, -144(%rax)
.LVL173:
	movsd	24(%rbp), %xmm10
	mulsd	%xmm0, %xmm10
	subsd	%xmm10, %xmm11
	movsd	-96(%rax), %xmm10
	movsd	%xmm11, -136(%rax)
.LVL174:
	movsd	32(%rbp), %xmm12
	mulsd	%xmm0, %xmm12
	subsd	%xmm12, %xmm13
	movsd	%xmm13, -128(%rax)
.LVL175:
	movsd	40(%rbp), %xmm14
	mulsd	%xmm0, %xmm14
	subsd	%xmm14, %xmm15
	movsd	%xmm15, -120(%rax)
.LVL176:
	movsd	48(%rbp), %xmm6
	mulsd	%xmm0, %xmm6
	subsd	%xmm6, %xmm2
	movsd	%xmm2, -112(%rax)
.LVL177:
	movsd	56(%rbp), %xmm7
	mulsd	%xmm0, %xmm7
	subsd	%xmm7, %xmm8
	movsd	%xmm8, -104(%rax)
.LVL178:
	movsd	64(%rbp), %xmm9
	mulsd	%xmm0, %xmm9
	subsd	%xmm9, %xmm10
	movsd	%xmm10, -96(%rax)
	leaq	224(%rcx), %rax
	je	.L142
	testl	%r14d, %r14d
	je	.L741
	movsd	-152(%rsi), %xmm11
	prefetcht0	(%rsi)
	cmpl	$17, 64(%rsp)
	movsd	-152(%rax), %xmm12
	prefetcht0	(%rax)
	movl	$17, %r8d
	mulsd	%xmm0, %xmm11
	movsd	-144(%rax), %xmm14
	movsd	-136(%rax), %xmm6
	movsd	-128(%rax), %xmm2
	subsd	%xmm11, %xmm12
	movsd	-120(%rax), %xmm9
	movsd	-112(%rax), %xmm11
	movsd	%xmm12, -152(%rax)
.LVL179:
	movsd	-144(%rsi), %xmm13
	mulsd	%xmm0, %xmm13
	subsd	%xmm13, %xmm14
	movsd	-104(%rax), %xmm13
	movsd	%xmm14, -144(%rax)
.LVL180:
	movsd	-136(%rsi), %xmm15
	mulsd	%xmm0, %xmm15
	subsd	%xmm15, %xmm6
	movsd	-96(%rax), %xmm15
	movsd	%xmm6, -136(%rax)
.LVL181:
	movsd	-128(%rsi), %xmm7
	mulsd	%xmm0, %xmm7
	subsd	%xmm7, %xmm2
	movsd	%xmm2, -128(%rax)
.LVL182:
	movsd	-120(%rsi), %xmm8
	mulsd	%xmm0, %xmm8
	subsd	%xmm8, %xmm9
	movsd	%xmm9, -120(%rax)
.LVL183:
	movsd	-112(%rsi), %xmm10
	mulsd	%xmm0, %xmm10
	subsd	%xmm10, %xmm11
	movsd	%xmm11, -112(%rax)
.LVL184:
	movsd	-104(%rsi), %xmm12
	mulsd	%xmm0, %xmm12
	subsd	%xmm12, %xmm13
	movsd	%xmm13, -104(%rax)
.LVL185:
	movsd	-96(%rsi), %xmm14
	leaq	288(%rbp), %rsi
	mulsd	%xmm0, %xmm14
	subsd	%xmm14, %xmm15
	movsd	%xmm15, -96(%rax)
	leaq	288(%rcx), %rax
	je	.L142
.L741:
	movl	64(%rsp), %ebx
.L143:
	movsd	-152(%rsi), %xmm6
	prefetcht0	(%rsi)
	leaq	64(%rax), %rdx
	movsd	-152(%rax), %xmm7
	leaq	64(%rsi), %r15
	prefetcht0	(%rax)
	mulsd	%xmm0, %xmm6
	prefetcht0	(%rdx)
	addl	$16, %r8d
	movsd	-144(%rax), %xmm2
	prefetcht0	(%r15)
	subq	$-128, %rax
	movsd	-264(%rax), %xmm10
	subq	$-128, %rsi
	movsd	-256(%rax), %xmm12
	subsd	%xmm6, %xmm7
	movsd	-248(%rax), %xmm14
	movsd	-240(%rax), %xmm6
	movsd	%xmm7, -280(%rax)
.LVL186:
	movsd	-272(%rsi), %xmm8
	mulsd	%xmm0, %xmm8
	subsd	%xmm8, %xmm2
	movsd	-232(%rax), %xmm8
	movsd	%xmm2, -272(%rax)
.LVL187:
	movsd	-224(%rax), %xmm2
	movsd	-264(%rsi), %xmm9
	mulsd	%xmm0, %xmm9
	subsd	%xmm9, %xmm10
	movsd	%xmm10, -264(%rax)
.LVL188:
	movsd	-256(%rsi), %xmm11
	mulsd	%xmm0, %xmm11
	subsd	%xmm11, %xmm12
	movsd	%xmm12, -256(%rax)
.LVL189:
	movsd	-248(%rsi), %xmm13
	mulsd	%xmm0, %xmm13
	subsd	%xmm13, %xmm14
	movsd	%xmm14, -248(%rax)
.LVL190:
	movsd	-240(%rsi), %xmm15
	mulsd	%xmm0, %xmm15
	subsd	%xmm15, %xmm6
	movsd	%xmm6, -240(%rax)
.LVL191:
	movsd	-232(%rsi), %xmm7
	mulsd	%xmm0, %xmm7
	subsd	%xmm7, %xmm8
	movsd	%xmm8, -232(%rax)
.LVL192:
	movsd	-224(%rsi), %xmm9
	mulsd	%xmm0, %xmm9
	subsd	%xmm9, %xmm2
	movsd	%xmm2, -224(%rax)
.LVL193:
	movsd	-216(%rsi), %xmm10
	movsd	-152(%rdx), %xmm11
	mulsd	%xmm0, %xmm10
	movsd	-144(%rdx), %xmm13
	subsd	%xmm10, %xmm11
	movsd	%xmm11, -152(%rdx)
.LVL194:
	movsd	-208(%rsi), %xmm12
	mulsd	%xmm0, %xmm12
	subsd	%xmm12, %xmm13
	movsd	%xmm13, -144(%rdx)
.LVL195:
	movsd	-200(%rsi), %xmm14
	movsd	-136(%rdx), %xmm15
	mulsd	%xmm0, %xmm14
	movsd	-128(%rdx), %xmm7
	movsd	-120(%rdx), %xmm9
	movsd	-112(%rdx), %xmm2
	subsd	%xmm14, %xmm15
	movsd	-104(%rdx), %xmm12
	movsd	-96(%rdx), %xmm14
	movsd	%xmm15, -136(%rdx)
.LVL196:
	movsd	-192(%rsi), %xmm6
	mulsd	%xmm0, %xmm6
	subsd	%xmm6, %xmm7
	movsd	%xmm7, -128(%rdx)
.LVL197:
	movsd	-184(%rsi), %xmm8
	mulsd	%xmm0, %xmm8
	subsd	%xmm8, %xmm9
	movsd	%xmm9, -120(%rdx)
.LVL198:
	movsd	-176(%rsi), %xmm10
	mulsd	%xmm0, %xmm10
	subsd	%xmm10, %xmm2
	movsd	%xmm2, -112(%rdx)
.LVL199:
	movsd	-168(%rsi), %xmm11
	mulsd	%xmm0, %xmm11
	subsd	%xmm11, %xmm12
	movsd	%xmm12, -104(%rdx)
.LVL200:
	movsd	-160(%rsi), %xmm13
	cmpl	%r8d, %ebx
	mulsd	%xmm0, %xmm13
	subsd	%xmm13, %xmm14
	movsd	%xmm14, -96(%rdx)
	jne	.L143
.LVL201:
.L142:
	movslq	%r8d, %r12
	movl	%r13d, %r14d
	leal	1(%r8), %r10d
	salq	$3, %r12
	subl	%r8d, %r14d
	movl	$1, %eax
	addq	%r12, %rcx
	addq	%rbp, %r12
	andl	$7, %r14d
	movsd	(%r12), %xmm15
	cmpl	%r10d, %r13d
	movsd	(%rcx), %xmm6
	mulsd	%xmm0, %xmm15
	subsd	%xmm15, %xmm6
	movsd	%xmm6, (%rcx)
	jl	.L145
	testl	%r14d, %r14d
	je	.L144
	cmpl	$1, %r14d
	je	.L556
	cmpl	$2, %r14d
	je	.L557
	cmpl	$3, %r14d
	je	.L558
	cmpl	$4, %r14d
	je	.L559
	cmpl	$5, %r14d
	je	.L560
	cmpl	$6, %r14d
	je	.L561
	movsd	8(%r12), %xmm7
	movl	$2, %eax
	movsd	8(%rcx), %xmm8
	mulsd	%xmm0, %xmm7
	subsd	%xmm7, %xmm8
	movsd	%xmm8, 8(%rcx)
.L561:
	movsd	(%r12,%rax,8), %xmm9
	movsd	(%rcx,%rax,8), %xmm10
	mulsd	%xmm0, %xmm9
	subsd	%xmm9, %xmm10
	movsd	%xmm10, (%rcx,%rax,8)
	addq	$1, %rax
.L560:
	movsd	(%r12,%rax,8), %xmm11
	movsd	(%rcx,%rax,8), %xmm2
	mulsd	%xmm0, %xmm11
	subsd	%xmm11, %xmm2
	movsd	%xmm2, (%rcx,%rax,8)
	addq	$1, %rax
.L559:
	movsd	(%r12,%rax,8), %xmm12
	movsd	(%rcx,%rax,8), %xmm13
	mulsd	%xmm0, %xmm12
	subsd	%xmm12, %xmm13
	movsd	%xmm13, (%rcx,%rax,8)
	addq	$1, %rax
.L558:
	movsd	(%r12,%rax,8), %xmm14
	movsd	(%rcx,%rax,8), %xmm15
	mulsd	%xmm0, %xmm14
	subsd	%xmm14, %xmm15
	movsd	%xmm15, (%rcx,%rax,8)
	addq	$1, %rax
.L557:
	movsd	(%r12,%rax,8), %xmm6
	movsd	(%rcx,%rax,8), %xmm7
	mulsd	%xmm0, %xmm6
	subsd	%xmm6, %xmm7
	movsd	%xmm7, (%rcx,%rax,8)
	addq	$1, %rax
.L556:
	movsd	(%r12,%rax,8), %xmm8
	movsd	(%rcx,%rax,8), %xmm9
	mulsd	%xmm0, %xmm8
	subsd	%xmm8, %xmm9
	movsd	%xmm9, (%rcx,%rax,8)
	addq	$1, %rax
	leal	(%r8,%rax), %esi
	cmpl	%esi, %r13d
	jl	.L145
.L144:
	movsd	(%r12,%rax,8), %xmm10
	leaq	1(%rax), %rbx
	leaq	2(%rax), %rdx
	movsd	(%rcx,%rax,8), %xmm11
	leaq	3(%rax), %r15
	mulsd	%xmm0, %xmm10
	leaq	4(%rax), %r14
	leaq	5(%rax), %r10
	leaq	6(%rax), %rsi
	subsd	%xmm10, %xmm11
	movsd	%xmm11, (%rcx,%rax,8)
	movsd	(%r12,%rbx,8), %xmm12
	movsd	(%rcx,%rbx,8), %xmm2
	mulsd	%xmm0, %xmm12
	subsd	%xmm12, %xmm2
	movsd	%xmm2, (%rcx,%rbx,8)
	leaq	7(%rax), %rbx
	addq	$8, %rax
	movsd	(%r12,%rdx,8), %xmm13
	movsd	(%rcx,%rdx,8), %xmm14
	mulsd	%xmm0, %xmm13
	subsd	%xmm13, %xmm14
	movsd	%xmm14, (%rcx,%rdx,8)
	leal	(%r8,%rax), %edx
	movsd	(%r12,%r15,8), %xmm15
	cmpl	%edx, %r13d
	movsd	(%rcx,%r15,8), %xmm6
	mulsd	%xmm0, %xmm15
	subsd	%xmm15, %xmm6
	movsd	%xmm6, (%rcx,%r15,8)
	movsd	(%r12,%r14,8), %xmm7
	movsd	(%rcx,%r14,8), %xmm8
	mulsd	%xmm0, %xmm7
	subsd	%xmm7, %xmm8
	movsd	%xmm8, (%rcx,%r14,8)
	movsd	(%r12,%r10,8), %xmm9
	movsd	(%rcx,%r10,8), %xmm10
	mulsd	%xmm0, %xmm9
	subsd	%xmm9, %xmm10
	movsd	%xmm10, (%rcx,%r10,8)
	movsd	(%r12,%rsi,8), %xmm11
	movsd	(%rcx,%rsi,8), %xmm12
	mulsd	%xmm0, %xmm11
	subsd	%xmm11, %xmm12
	movsd	%xmm12, (%rcx,%rsi,8)
	movsd	(%r12,%rbx,8), %xmm13
	movsd	(%rcx,%rbx,8), %xmm2
	mulsd	%xmm0, %xmm13
	subsd	%xmm13, %xmm2
	movsd	%xmm2, (%rcx,%rbx,8)
	jge	.L144
	jmp	.L145
.LVL202:
	.p2align 4,,10
	.p2align 3
.L147:
	cmpl	$8, %edi
	jle	.L179
	.loc 1 96 0
	movsd	8(%r8), %xmm10
	leaq	160(%rsi), %r12
	leaq	160(%r8), %r14
	movsd	-152(%r12), %xmm11
	movl	104(%rsp), %r15d
	mulsd	%xmm0, %xmm10
	prefetcht0	(%r14)
	movl	$9, %ebx
	movsd	-144(%r12), %xmm13
	prefetcht0	(%r12)
	leaq	224(%rsi), %rax
	movsd	-136(%r12), %xmm15
	leal	-9(%r15), %r10d
	leaq	224(%r8), %r14
	movsd	-128(%r12), %xmm6
	subsd	%xmm10, %xmm11
	movsd	-120(%r12), %xmm9
	movsd	-112(%r12), %xmm2
	shrl	$3, %r10d
	andl	$1, %r10d
	cmpl	%r15d, %ebx
	movsd	%xmm11, -152(%r12)
.LVL203:
	movsd	16(%r8), %xmm12
	mulsd	%xmm0, %xmm12
	subsd	%xmm12, %xmm13
	movsd	-104(%r12), %xmm12
	movsd	%xmm13, -144(%r12)
.LVL204:
	movsd	24(%r8), %xmm14
	mulsd	%xmm0, %xmm14
	subsd	%xmm14, %xmm15
	movsd	-96(%r12), %xmm14
	movsd	%xmm15, -136(%r12)
.LVL205:
	movsd	32(%r8), %xmm7
	mulsd	%xmm0, %xmm7
	subsd	%xmm7, %xmm6
	movsd	%xmm6, -128(%r12)
.LVL206:
	movsd	40(%r8), %xmm8
	mulsd	%xmm0, %xmm8
	subsd	%xmm8, %xmm9
	movsd	%xmm9, -120(%r12)
.LVL207:
	movsd	48(%r8), %xmm10
	mulsd	%xmm0, %xmm10
	subsd	%xmm10, %xmm2
	movsd	%xmm2, -112(%r12)
.LVL208:
	movsd	56(%r8), %xmm11
	mulsd	%xmm0, %xmm11
	subsd	%xmm11, %xmm12
	movsd	%xmm12, -104(%r12)
.LVL209:
	movsd	64(%r8), %xmm13
	mulsd	%xmm0, %xmm13
	subsd	%xmm13, %xmm14
	movsd	%xmm14, -96(%r12)
	je	.L154
	testl	%r10d, %r10d
	je	.L733
	movsd	-152(%r14), %xmm15
	prefetcht0	(%r14)
	movl	$17, %ebx
	movsd	-152(%rax), %xmm7
	cmpl	104(%rsp), %ebx
	prefetcht0	(%rax)
	mulsd	%xmm0, %xmm15
	movsd	-144(%rax), %xmm8
	movsd	-136(%rax), %xmm10
	movsd	-128(%rax), %xmm2
	subsd	%xmm15, %xmm7
	movsd	-120(%rax), %xmm13
	movsd	-112(%rax), %xmm15
	movsd	%xmm7, -152(%rax)
.LVL210:
	movsd	-144(%r14), %xmm6
	mulsd	%xmm0, %xmm6
	subsd	%xmm6, %xmm8
	movsd	-104(%rax), %xmm6
	movsd	%xmm8, -144(%rax)
.LVL211:
	movsd	-136(%r14), %xmm9
	mulsd	%xmm0, %xmm9
	subsd	%xmm9, %xmm10
	movsd	-96(%rax), %xmm9
	movsd	%xmm10, -136(%rax)
.LVL212:
	movsd	-128(%r14), %xmm11
	mulsd	%xmm0, %xmm11
	subsd	%xmm11, %xmm2
	movsd	%xmm2, -128(%rax)
.LVL213:
	movsd	-120(%r14), %xmm12
	mulsd	%xmm0, %xmm12
	subsd	%xmm12, %xmm13
	movsd	%xmm13, -120(%rax)
.LVL214:
	movsd	-112(%r14), %xmm14
	mulsd	%xmm0, %xmm14
	subsd	%xmm14, %xmm15
	movsd	%xmm15, -112(%rax)
.LVL215:
	movsd	-104(%r14), %xmm7
	mulsd	%xmm0, %xmm7
	subsd	%xmm7, %xmm6
	movsd	%xmm6, -104(%rax)
.LVL216:
	movsd	-96(%r14), %xmm8
	leaq	288(%r8), %r14
	mulsd	%xmm0, %xmm8
	subsd	%xmm8, %xmm9
	movsd	%xmm9, -96(%rax)
	leaq	288(%rsi), %rax
	je	.L154
.L733:
	movl	104(%rsp), %r12d
.L155:
	movsd	-152(%r14), %xmm10
	prefetcht0	(%r14)
	leaq	64(%rax), %r15
	movsd	-152(%rax), %xmm11
	leaq	64(%r14), %rcx
	prefetcht0	(%rax)
	mulsd	%xmm0, %xmm10
	prefetcht0	(%r15)
	addl	$16, %ebx
	movsd	-144(%rax), %xmm2
	prefetcht0	(%rcx)
	subq	$-128, %rax
	movsd	-264(%rax), %xmm14
	subq	$-128, %r14
	movsd	-256(%rax), %xmm7
	subsd	%xmm10, %xmm11
	movsd	-248(%rax), %xmm8
	movsd	-240(%rax), %xmm10
	movsd	%xmm11, -280(%rax)
.LVL217:
	movsd	-272(%r14), %xmm12
	mulsd	%xmm0, %xmm12
	subsd	%xmm12, %xmm2
	movsd	-232(%rax), %xmm12
	movsd	%xmm2, -272(%rax)
.LVL218:
	movsd	-224(%rax), %xmm2
	movsd	-264(%r14), %xmm13
	mulsd	%xmm0, %xmm13
	subsd	%xmm13, %xmm14
	movsd	%xmm14, -264(%rax)
.LVL219:
	movsd	-256(%r14), %xmm15
	mulsd	%xmm0, %xmm15
	subsd	%xmm15, %xmm7
	movsd	%xmm7, -256(%rax)
.LVL220:
	movsd	-248(%r14), %xmm6
	mulsd	%xmm0, %xmm6
	subsd	%xmm6, %xmm8
	movsd	%xmm8, -248(%rax)
.LVL221:
	movsd	-240(%r14), %xmm9
	mulsd	%xmm0, %xmm9
	subsd	%xmm9, %xmm10
	movsd	%xmm10, -240(%rax)
.LVL222:
	movsd	-232(%r14), %xmm11
	mulsd	%xmm0, %xmm11
	subsd	%xmm11, %xmm12
	movsd	%xmm12, -232(%rax)
.LVL223:
	movsd	-224(%r14), %xmm13
	mulsd	%xmm0, %xmm13
	subsd	%xmm13, %xmm2
	movsd	%xmm2, -224(%rax)
.LVL224:
	movsd	-216(%r14), %xmm14
	movsd	-152(%r15), %xmm15
	mulsd	%xmm0, %xmm14
	movsd	-144(%r15), %xmm6
	subsd	%xmm14, %xmm15
	movsd	%xmm15, -152(%r15)
.LVL225:
	movsd	-208(%r14), %xmm7
	mulsd	%xmm0, %xmm7
	subsd	%xmm7, %xmm6
	movsd	%xmm6, -144(%r15)
.LVL226:
	movsd	-200(%r14), %xmm8
	movsd	-136(%r15), %xmm9
	mulsd	%xmm0, %xmm8
	movsd	-128(%r15), %xmm11
	movsd	-120(%r15), %xmm13
	movsd	-112(%r15), %xmm2
	subsd	%xmm8, %xmm9
	movsd	-104(%r15), %xmm7
	movsd	-96(%r15), %xmm8
	movsd	%xmm9, -136(%r15)
.LVL227:
	movsd	-192(%r14), %xmm10
	mulsd	%xmm0, %xmm10
	subsd	%xmm10, %xmm11
	movsd	%xmm11, -128(%r15)
.LVL228:
	movsd	-184(%r14), %xmm12
	mulsd	%xmm0, %xmm12
	subsd	%xmm12, %xmm13
	movsd	%xmm13, -120(%r15)
.LVL229:
	movsd	-176(%r14), %xmm14
	mulsd	%xmm0, %xmm14
	subsd	%xmm14, %xmm2
	movsd	%xmm2, -112(%r15)
.LVL230:
	movsd	-168(%r14), %xmm15
	mulsd	%xmm0, %xmm15
	subsd	%xmm15, %xmm7
	movsd	%xmm7, -104(%r15)
.LVL231:
	movsd	-160(%r14), %xmm6
	cmpl	%r12d, %ebx
	mulsd	%xmm0, %xmm6
	subsd	%xmm6, %xmm8
	movsd	%xmm8, -96(%r15)
	jne	.L155
.LVL232:
.L154:
	movslq	%ebx, %r10
	movl	%edi, %edx
	leal	1(%rbx), %r14d
	salq	$3, %r10
	subl	%ebx, %edx
	movl	$1, %eax
	addq	%r10, %r8
	addq	%r10, %rsi
	andl	$7, %edx
	movsd	(%r8), %xmm9
	cmpl	%r14d, %edi
	movsd	(%rsi), %xmm10
	mulsd	%xmm0, %xmm9
	subsd	%xmm9, %xmm10
	movsd	%xmm10, (%rsi)
	jl	.L146
	testl	%edx, %edx
	je	.L156
	cmpl	$1, %edx
	je	.L544
	cmpl	$2, %edx
	je	.L545
	cmpl	$3, %edx
	je	.L546
	cmpl	$4, %edx
	je	.L547
	cmpl	$5, %edx
	je	.L548
	cmpl	$6, %edx
	je	.L549
	movsd	8(%r8), %xmm11
	movl	$2, %eax
	movsd	8(%rsi), %xmm12
	mulsd	%xmm0, %xmm11
	subsd	%xmm11, %xmm12
	movsd	%xmm12, 8(%rsi)
.L549:
	movsd	(%r8,%rax,8), %xmm13
	movsd	(%rsi,%rax,8), %xmm14
	mulsd	%xmm0, %xmm13
	subsd	%xmm13, %xmm14
	movsd	%xmm14, (%rsi,%rax,8)
	addq	$1, %rax
.L548:
	movsd	(%r8,%rax,8), %xmm15
	movsd	(%rsi,%rax,8), %xmm2
	mulsd	%xmm0, %xmm15
	subsd	%xmm15, %xmm2
	movsd	%xmm2, (%rsi,%rax,8)
	addq	$1, %rax
.L547:
	movsd	(%r8,%rax,8), %xmm7
	movsd	(%rsi,%rax,8), %xmm6
	mulsd	%xmm0, %xmm7
	subsd	%xmm7, %xmm6
	movsd	%xmm6, (%rsi,%rax,8)
	addq	$1, %rax
.L546:
	movsd	(%r8,%rax,8), %xmm8
	movsd	(%rsi,%rax,8), %xmm9
	mulsd	%xmm0, %xmm8
	subsd	%xmm8, %xmm9
	movsd	%xmm9, (%rsi,%rax,8)
	addq	$1, %rax
.L545:
	movsd	(%r8,%rax,8), %xmm10
	movsd	(%rsi,%rax,8), %xmm11
	mulsd	%xmm0, %xmm10
	subsd	%xmm10, %xmm11
	movsd	%xmm11, (%rsi,%rax,8)
	addq	$1, %rax
.L544:
	movsd	(%r8,%rax,8), %xmm12
	movsd	(%rsi,%rax,8), %xmm13
	mulsd	%xmm0, %xmm12
	subsd	%xmm12, %xmm13
	movsd	%xmm13, (%rsi,%rax,8)
	addq	$1, %rax
	leal	(%rbx,%rax), %r12d
	cmpl	%r12d, %edi
	jl	.L146
.L156:
	movsd	(%r8,%rax,8), %xmm14
	leaq	1(%rax), %r15
	leaq	2(%rax), %rcx
	movsd	(%rsi,%rax,8), %xmm15
	leaq	3(%rax), %r10
	mulsd	%xmm0, %xmm14
	leaq	4(%rax), %rdx
	leaq	5(%rax), %r14
	leaq	6(%rax), %r12
	subsd	%xmm14, %xmm15
	movsd	%xmm15, (%rsi,%rax,8)
	movsd	(%r8,%r15,8), %xmm7
	movsd	(%rsi,%r15,8), %xmm2
	mulsd	%xmm0, %xmm7
	subsd	%xmm7, %xmm2
	movsd	%xmm2, (%rsi,%r15,8)
	leaq	7(%rax), %r15
	addq	$8, %rax
	movsd	(%r8,%rcx,8), %xmm6
	movsd	(%rsi,%rcx,8), %xmm8
	mulsd	%xmm0, %xmm6
	subsd	%xmm6, %xmm8
	movsd	%xmm8, (%rsi,%rcx,8)
	leal	(%rbx,%rax), %ecx
	movsd	(%r8,%r10,8), %xmm9
	cmpl	%ecx, %edi
	movsd	(%rsi,%r10,8), %xmm10
	mulsd	%xmm0, %xmm9
	subsd	%xmm9, %xmm10
	movsd	%xmm10, (%rsi,%r10,8)
	movsd	(%r8,%rdx,8), %xmm11
	movsd	(%rsi,%rdx,8), %xmm12
	mulsd	%xmm0, %xmm11
	subsd	%xmm11, %xmm12
	movsd	%xmm12, (%rsi,%rdx,8)
	movsd	(%r8,%r14,8), %xmm13
	movsd	(%rsi,%r14,8), %xmm14
	mulsd	%xmm0, %xmm13
	subsd	%xmm13, %xmm14
	movsd	%xmm14, (%rsi,%r14,8)
	movsd	(%r8,%r12,8), %xmm15
	movsd	(%rsi,%r12,8), %xmm7
	mulsd	%xmm0, %xmm15
	subsd	%xmm15, %xmm7
	movsd	%xmm7, (%rsi,%r12,8)
	movsd	(%r8,%r15,8), %xmm6
	movsd	(%rsi,%r15,8), %xmm2
	mulsd	%xmm0, %xmm6
	subsd	%xmm6, %xmm2
	movsd	%xmm2, (%rsi,%r15,8)
	jge	.L156
	jmp	.L146
.L175:
	.loc 1 94 0
	movq	%rax, %rsi
	xorl	%r15d, %r15d
	jmp	.L137
.L178:
	.loc 1 96 0
	movq	%rdx, %rcx
	xorl	%r12d, %r12d
	jmp	.L149
.LVL233:
.L775:
	testl	%r12d, %r12d
	jne	.L162
	.loc 1 88 0
	movl	$1, %edi
	jmp	.L111
.L170:
	.loc 1 90 0
	movl	$1, %ebx
	jmp	.L123
.LVL234:
.L773:
	leaq	0(,%r8,8), %rbp
.LVL235:
	movq	%rbp, (%rsp)
	movq	(%r10,%r8,8), %rbp
	jmp	.L96
.LVL236:
.L176:
	.loc 1 94 0
	movl	$1, %r8d
	jmp	.L142
.L179:
	.loc 1 96 0
	movl	$1, %ebx
	jmp	.L154
.LVL237:
.L163:
	movq	120(%rsp), %rbx
	.loc 1 81 0
	movsd	8(%rdx), %xmm13
	movsd	8(%rbp), %xmm14
	movl	$1, %edi
	movq	%rbx, %rcx
	movsd	%xmm14, 8(%rdx)
	subq	$1, %rcx
	movsd	%xmm13, 8(%rbp)
	andl	$7, %ecx
.LVL238:
	cmpq	$1, %rbx
	je	.L101
	testq	%rcx, %rcx
	je	.L97
	cmpq	$1, %rcx
	je	.L596
	cmpq	$2, %rcx
	je	.L597
	cmpq	$3, %rcx
	je	.L598
	cmpq	$4, %rcx
	je	.L599
	cmpq	$5, %rcx
	je	.L600
	cmpq	$6, %rcx
	je	.L601
.LVL239:
	movsd	16(%rdx), %xmm15
	movl	$2, %edi
	movsd	16(%rbp), %xmm2
	movsd	%xmm2, 16(%rdx)
	movsd	%xmm15, 16(%rbp)
.LVL240:
.L601:
	movsd	8(%rdx,%rdi,8), %xmm6
	movsd	8(%rbp,%rdi,8), %xmm7
	movsd	%xmm7, 8(%rdx,%rdi,8)
	movsd	%xmm6, 8(%rbp,%rdi,8)
.LVL241:
	addq	$1, %rdi
.LVL242:
.L600:
	movsd	8(%rdx,%rdi,8), %xmm8
	movsd	8(%rbp,%rdi,8), %xmm9
	movsd	%xmm9, 8(%rdx,%rdi,8)
	movsd	%xmm8, 8(%rbp,%rdi,8)
.LVL243:
	addq	$1, %rdi
.LVL244:
.L599:
	movsd	8(%rdx,%rdi,8), %xmm10
	movsd	8(%rbp,%rdi,8), %xmm11
	movsd	%xmm11, 8(%rdx,%rdi,8)
	movsd	%xmm10, 8(%rbp,%rdi,8)
.LVL245:
	addq	$1, %rdi
.LVL246:
.L598:
	movsd	8(%rdx,%rdi,8), %xmm12
	movsd	8(%rbp,%rdi,8), %xmm0
.LVL247:
	movsd	%xmm0, 8(%rdx,%rdi,8)
	movsd	%xmm12, 8(%rbp,%rdi,8)
.LVL248:
	addq	$1, %rdi
.LVL249:
.L597:
	movsd	8(%rdx,%rdi,8), %xmm13
	movsd	8(%rbp,%rdi,8), %xmm14
	movsd	%xmm14, 8(%rdx,%rdi,8)
	movsd	%xmm13, 8(%rbp,%rdi,8)
.LVL250:
	addq	$1, %rdi
.LVL251:
.L596:
	movsd	8(%rdx,%rdi,8), %xmm15
	movsd	8(%rbp,%rdi,8), %xmm2
	movsd	%xmm2, 8(%rdx,%rdi,8)
	movsd	%xmm15, 8(%rbp,%rdi,8)
.LVL252:
	addq	$1, %rdi
	cmpq	%rdi, 120(%rsp)
	je	.L101
.LVL253:
.L97:
	movsd	8(%rdx,%rdi,8), %xmm6
	leaq	1(%rdi), %r12
	leaq	2(%rdi), %r9
	movsd	8(%rbp,%rdi,8), %xmm7
	leaq	3(%rdi), %rax
	leaq	4(%rdi), %rbx
	leaq	5(%rdi), %rcx
	leaq	6(%rdi), %rsi
	movsd	%xmm7, 8(%rdx,%rdi,8)
	movsd	%xmm6, 8(%rbp,%rdi,8)
.LVL254:
	movsd	8(%rdx,%r12,8), %xmm8
	movsd	8(%rbp,%r12,8), %xmm9
	movsd	%xmm9, 8(%rdx,%r12,8)
	movsd	%xmm8, 8(%rbp,%r12,8)
.LVL255:
	leaq	7(%rdi), %r12
	addq	$8, %rdi
	cmpq	%rdi, 120(%rsp)
	movsd	8(%rdx,%r9,8), %xmm10
	movsd	8(%rbp,%r9,8), %xmm11
	movsd	%xmm11, 8(%rdx,%r9,8)
	movsd	%xmm10, 8(%rbp,%r9,8)
.LVL256:
	movsd	8(%rdx,%rax,8), %xmm12
	movsd	8(%rbp,%rax,8), %xmm0
	movsd	%xmm0, 8(%rdx,%rax,8)
	movsd	%xmm12, 8(%rbp,%rax,8)
.LVL257:
	movsd	8(%rdx,%rbx,8), %xmm13
	movsd	8(%rbp,%rbx,8), %xmm14
	movsd	%xmm14, 8(%rdx,%rbx,8)
	movsd	%xmm13, 8(%rbp,%rbx,8)
.LVL258:
	movsd	8(%rdx,%rcx,8), %xmm15
	movsd	8(%rbp,%rcx,8), %xmm2
	movsd	%xmm2, 8(%rdx,%rcx,8)
	movsd	%xmm15, 8(%rbp,%rcx,8)
.LVL259:
	movsd	8(%rdx,%rsi,8), %xmm6
	movsd	8(%rbp,%rsi,8), %xmm7
	movsd	%xmm7, 8(%rdx,%rsi,8)
	movsd	%xmm6, 8(%rbp,%rsi,8)
.LVL260:
	movsd	8(%rdx,%r12,8), %xmm8
	movsd	8(%rbp,%r12,8), %xmm9
	movsd	%xmm9, 8(%rdx,%r12,8)
	movsd	%xmm8, 8(%rbp,%r12,8)
.LVL261:
	jne	.L97
	jmp	.L101
.LVL262:
	.p2align 4,,10
	.p2align 3
.L102:
	movq	128(%rsp), %r11
	.loc 1 82 0
	movsd	8(%rdx), %xmm10
	movsd	8(%rcx), %xmm11
	movl	$1, %r8d
	movq	%r11, %rsi
	movsd	%xmm11, 8(%rdx)
	subq	$1, %rsi
	movsd	%xmm10, 8(%rcx)
	andl	$7, %esi
.LVL263:
	cmpq	%r11, %r8
	je	.L96
	testq	%rsi, %rsi
	je	.L106
	cmpq	$1, %rsi
	je	.L584
	cmpq	$2, %rsi
	je	.L585
	cmpq	$3, %rsi
	je	.L586
	cmpq	$4, %rsi
	je	.L587
	cmpq	$5, %rsi
	je	.L588
	cmpq	$6, %rsi
	je	.L589
.LVL264:
	movsd	16(%rdx), %xmm12
	movl	$2, %r8d
	movsd	16(%rcx), %xmm0
	movsd	%xmm0, 16(%rdx)
	movsd	%xmm12, 16(%rcx)
.LVL265:
.L589:
	movsd	8(%rdx,%r8,8), %xmm13
	movsd	8(%rcx,%r8,8), %xmm14
	movsd	%xmm14, 8(%rdx,%r8,8)
	movsd	%xmm13, 8(%rcx,%r8,8)
.LVL266:
	addq	$1, %r8
.LVL267:
.L588:
	movsd	8(%rdx,%r8,8), %xmm15
	movsd	8(%rcx,%r8,8), %xmm2
	movsd	%xmm2, 8(%rdx,%r8,8)
	movsd	%xmm15, 8(%rcx,%r8,8)
.LVL268:
	addq	$1, %r8
.LVL269:
.L587:
	movsd	8(%rdx,%r8,8), %xmm6
	movsd	8(%rcx,%r8,8), %xmm7
	movsd	%xmm7, 8(%rdx,%r8,8)
	movsd	%xmm6, 8(%rcx,%r8,8)
.LVL270:
	addq	$1, %r8
.LVL271:
.L586:
	movsd	8(%rdx,%r8,8), %xmm8
	movsd	8(%rcx,%r8,8), %xmm9
	movsd	%xmm9, 8(%rdx,%r8,8)
	movsd	%xmm8, 8(%rcx,%r8,8)
.LVL272:
	addq	$1, %r8
.LVL273:
.L585:
	movsd	8(%rdx,%r8,8), %xmm10
	movsd	8(%rcx,%r8,8), %xmm11
	movsd	%xmm11, 8(%rdx,%r8,8)
	movsd	%xmm10, 8(%rcx,%r8,8)
.LVL274:
	addq	$1, %r8
.LVL275:
.L584:
	movsd	8(%rdx,%r8,8), %xmm12
	movsd	8(%rcx,%r8,8), %xmm0
	movsd	%xmm0, 8(%rdx,%r8,8)
	movsd	%xmm12, 8(%rcx,%r8,8)
.LVL276:
	addq	$1, %r8
	cmpq	128(%rsp), %r8
	je	.L96
.LVL277:
.L106:
	movsd	8(%rdx,%r8,8), %xmm13
	leaq	1(%r8), %rbx
	leaq	2(%r8), %r12
	movsd	8(%rcx,%r8,8), %xmm14
	leaq	3(%r8), %r9
	leaq	4(%r8), %rax
	leaq	5(%r8), %r11
	leaq	6(%r8), %rsi
	movsd	%xmm14, 8(%rdx,%r8,8)
	leaq	7(%r8), %rdi
	movsd	%xmm13, 8(%rcx,%r8,8)
.LVL278:
	addq	$8, %r8
	cmpq	128(%rsp), %r8
	movsd	8(%rdx,%rbx,8), %xmm15
	movsd	8(%rcx,%rbx,8), %xmm2
	movsd	%xmm2, 8(%rdx,%rbx,8)
	movsd	%xmm15, 8(%rcx,%rbx,8)
.LVL279:
	movsd	8(%rdx,%r12,8), %xmm6
	movsd	8(%rcx,%r12,8), %xmm7
	movsd	%xmm7, 8(%rdx,%r12,8)
	movsd	%xmm6, 8(%rcx,%r12,8)
.LVL280:
	movsd	8(%rdx,%r9,8), %xmm8
	movsd	8(%rcx,%r9,8), %xmm9
	movsd	%xmm9, 8(%rdx,%r9,8)
	movsd	%xmm8, 8(%rcx,%r9,8)
.LVL281:
	movsd	8(%rdx,%rax,8), %xmm10
	movsd	8(%rcx,%rax,8), %xmm11
	movsd	%xmm11, 8(%rdx,%rax,8)
	movsd	%xmm10, 8(%rcx,%rax,8)
.LVL282:
	movsd	8(%rdx,%r11,8), %xmm12
	movsd	8(%rcx,%r11,8), %xmm0
	movsd	%xmm0, 8(%rdx,%r11,8)
	movsd	%xmm12, 8(%rcx,%r11,8)
.LVL283:
	movsd	8(%rdx,%rsi,8), %xmm13
	movsd	8(%rcx,%rsi,8), %xmm14
	movsd	%xmm14, 8(%rdx,%rsi,8)
	movsd	%xmm13, 8(%rcx,%rsi,8)
.LVL284:
	movsd	8(%rdx,%rdi,8), %xmm15
	movsd	8(%rcx,%rdi,8), %xmm2
	movsd	%xmm2, 8(%rdx,%rdi,8)
	movsd	%xmm15, 8(%rcx,%rdi,8)
.LVL285:
	jne	.L106
	jmp	.L96
.LVL286:
	.p2align 4,,10
	.p2align 3
.L169:
	.loc 1 88 0
	movq	%rax, %rdx
	xorl	%r11d, %r11d
	jmp	.L115
.L173:
	.loc 1 90 0
	movq	%rax, %rdx
	xorl	%r11d, %r11d
	jmp	.L127
.LVL287:
.L86:
.LBB69:
.LBB55:
	.loc 1 120 0
	movl	$.LC6, %edi
	call	_Z7nrerrorPKc
.LVL288:
.L774:
.LBE55:
.LBE69:
	.loc 1 86 0 discriminator 1
	movl	$.LC9, %edi
	call	_Z7nrerrorPKc
.LVL289:
.LBE73:
	.cfi_endproc
.LFE50:
	.size	_Z6gaussjPPdiS0_i, .-_Z6gaussjPPdiS0_i
	.section	.text.unlikely
.LCOLDE11:
	.text
.LHOTE11:
	.section	.text.unlikely
.LCOLDB12:
	.text
.LHOTB12:
	.p2align 4,,15
	.globl	_Z7ivectorll
	.type	_Z7ivectorll, @function
_Z7ivectorll:
.LFB51:
	.loc 1 116 0
	.cfi_startproc
.LVL290:
.LBB74:
	.loc 1 119 0
	subq	%rdi, %rsi
.LVL291:
.LBE74:
	.loc 1 116 0
	pushq	%rbx
	.cfi_def_cfa_offset 16
	.cfi_offset 3, -16
	.loc 1 116 0
	movq	%rdi, %rbx
.LBB75:
	.loc 1 119 0
	leaq	8(,%rsi,4), %rdi
.LVL292:
	call	malloc
.LVL293:
	.loc 1 120 0
	testq	%rax, %rax
	je	.L779
	.loc 1 121 0
	negq	%rbx
.LVL294:
	leaq	4(,%rbx,4), %rdx
.LBE75:
	.loc 1 122 0
	popq	%rbx
	.cfi_remember_state
	.cfi_def_cfa_offset 8
.LVL295:
.LBB76:
	.loc 1 121 0
	addq	%rdx, %rax
.LVL296:
.LBE76:
	.loc 1 122 0
	ret
.LVL297:
.L779:
	.cfi_restore_state
.LBB77:
	.loc 1 120 0 discriminator 1
	movl	$.LC6, %edi
	call	_Z7nrerrorPKc
.LVL298:
.LBE77:
	.cfi_endproc
.LFE51:
	.size	_Z7ivectorll, .-_Z7ivectorll
	.section	.text.unlikely
.LCOLDE12:
	.text
.LHOTE12:
	.section	.text.unlikely
.LCOLDB13:
	.text
.LHOTB13:
	.p2align 4,,15
	.globl	_Z12free_ivectorPill
	.type	_Z12free_ivectorPill, @function
_Z12free_ivectorPill:
.LFB52:
	.loc 1 127 0
	.cfi_startproc
.LVL299:
	.loc 1 128 0
	leaq	-4(,%rsi,4), %rax
	addq	%rax, %rdi
.LVL300:
	jmp	free
.LVL301:
	.cfi_endproc
.LFE52:
	.size	_Z12free_ivectorPill, .-_Z12free_ivectorPill
	.section	.text.unlikely
.LCOLDE13:
	.text
.LHOTE13:
	.section	.rodata.str1.8
	.align 8
.LC14:
	.string	"allocation failure in dvector()"
	.section	.text.unlikely
.LCOLDB15:
	.text
.LHOTB15:
	.p2align 4,,15
	.globl	_Z7dvectorll
	.type	_Z7dvectorll, @function
_Z7dvectorll:
.LFB53:
	.loc 1 133 0
	.cfi_startproc
.LVL302:
.LBB78:
	.loc 1 138 0
	subq	%rdi, %rsi
.LVL303:
.LBE78:
	.loc 1 133 0
	pushq	%rbx
	.cfi_def_cfa_offset 16
	.cfi_offset 3, -16
	.loc 1 133 0
	movq	%rdi, %rbx
.LBB79:
	.loc 1 138 0
	leaq	16(,%rsi,8), %rdi
.LVL304:
	call	malloc
.LVL305:
	.loc 1 139 0
	testq	%rax, %rax
	je	.L784
	.loc 1 140 0
	negq	%rbx
.LVL306:
	leaq	8(,%rbx,8), %rdx
.LBE79:
	.loc 1 142 0
	popq	%rbx
	.cfi_remember_state
	.cfi_def_cfa_offset 8
.LVL307:
.LBB80:
	.loc 1 140 0
	addq	%rdx, %rax
.LVL308:
.LBE80:
	.loc 1 142 0
	ret
.LVL309:
.L784:
	.cfi_restore_state
.LBB81:
	.loc 1 139 0 discriminator 1
	movl	$.LC14, %edi
	call	_Z7nrerrorPKc
.LVL310:
.LBE81:
	.cfi_endproc
.LFE53:
	.size	_Z7dvectorll, .-_Z7dvectorll
	.section	.text.unlikely
.LCOLDE15:
	.text
.LHOTE15:
	.section	.text.unlikely
.LCOLDB16:
	.text
.LHOTB16:
	.p2align 4,,15
	.globl	_Z12free_dvectorPdll
	.type	_Z12free_dvectorPdll, @function
_Z12free_dvectorPdll:
.LFB54:
	.loc 1 146 0
	.cfi_startproc
.LVL311:
	.loc 1 149 0
	leaq	-8(,%rsi,8), %rax
	addq	%rax, %rdi
.LVL312:
	jmp	free
.LVL313:
	.cfi_endproc
.LFE54:
	.size	_Z12free_dvectorPdll, .-_Z12free_dvectorPdll
	.section	.text.unlikely
.LCOLDE16:
	.text
.LHOTE16:
	.section	.rodata.str1.8
	.align 8
.LC17:
	.string	"allocation failure 1 in dmatrix()"
	.align 8
.LC18:
	.string	"allocation failure 2 in dmatrix()"
	.section	.text.unlikely
.LCOLDB19:
	.text
.LHOTB19:
	.p2align 4,,15
	.globl	_Z7dmatrixllll
	.type	_Z7dmatrixllll, @function
_Z7dmatrixllll:
.LFB55:
	.loc 1 155 0
	.cfi_startproc
.LVL314:
.LBB82:
	.loc 1 158 0
	movq	%rsi, %rax
.LBE82:
	.loc 1 155 0
	pushq	%r15
	.cfi_def_cfa_offset 16
	.cfi_offset 15, -16
	pushq	%r14
	.cfi_def_cfa_offset 24
	.cfi_offset 14, -24
.LBB83:
	.loc 1 158 0
	subq	%rdi, %rax
.LBE83:
	.loc 1 155 0
	pushq	%r13
	.cfi_def_cfa_offset 32
	.cfi_offset 13, -32
	pushq	%r12
	.cfi_def_cfa_offset 40
	.cfi_offset 12, -40
	pushq	%rbp
	.cfi_def_cfa_offset 48
	.cfi_offset 6, -48
	pushq	%rbx
	.cfi_def_cfa_offset 56
	.cfi_offset 3, -56
	movq	%rdi, %r12
	movq	%rsi, %r13
.LBB84:
	.loc 1 162 0
	leaq	16(,%rax,8), %rdi
.LVL315:
	.loc 1 158 0
	leaq	1(%rax), %rsi
.LVL316:
.LBE84:
	.loc 1 155 0
	subq	$24, %rsp
	.cfi_def_cfa_offset 80
.LBB85:
	.loc 1 158 0
	subq	%rdx, %rcx
.LVL317:
.LBE85:
	.loc 1 155 0
	movq	%rdx, %r15
.LBB86:
	.loc 1 158 0
	movq	%rsi, (%rsp)
.LVL318:
	leaq	1(%rcx), %rbx
.LVL319:
	.loc 1 162 0
	call	malloc
.LVL320:
	.loc 1 163 0
	testq	%rax, %rax
	movq	(%rsp), %rdi
	je	.L850
.LVL321:
	.loc 1 168 0
	imulq	%rbx, %rdi
	movl	$8, %edx
	.loc 1 165 0
	leaq	0(,%r12,8), %r14
	movq	%rdx, %rbp
	movq	%rdx, 8(%rsp)
	movq	%rax, (%rsp)
.LVL322:
	subq	%r14, %rbp
	addq	%rax, %rbp
.LVL323:
	.loc 1 168 0
	leaq	8(,%rdi,8), %rdi
	addq	%rbp, %r14
	call	malloc
.LVL324:
	.loc 1 169 0
	testq	%rax, %rax
	.loc 1 168 0
	movq	%rax, (%r14)
	.loc 1 169 0
	movq	(%rsp), %r9
	movq	8(%rsp), %r8
	je	.L851
	.loc 1 171 0
	salq	$3, %r15
.LVL325:
	.loc 1 173 0
	leaq	1(%r12), %rsi
	subq	%r15, %r8
	.loc 1 171 0
	addq	%rax, %r8
	.loc 1 173 0
	cmpq	%rsi, %r13
	.loc 1 171 0
	movq	%r8, (%r14)
.LVL326:
	.loc 1 173 0
	jl	.L844
	leaq	-6(%r13), %r15
	leaq	2(%r12), %r10
	leaq	0(,%rbx,8), %r8
	movq	8(%r9), %rdx
	cmpq	%r10, %r15
	jle	.L790
	movabsq	$-9223372036854775802, %r11
	cmpq	%r11, %r13
	jl	.L790
	salq	$4, %rbx
.LVL327:
	movq	%r8, %rdi
	leaq	(%rdx,%r8), %r11
	leaq	(%rbx,%r8,4), %rax
	leaq	(%rdx,%rbx), %r9
	negq	%rdi
	movq	%r15, %rbx
	salq	$2, %rdi
	movq	%r11, 8(%r14)
	leaq	(%rax,%r8,2), %rax
	subq	%rsi, %rbx
	subq	%r8, %rdi
	subq	$2, %rbx
	movq	%r9, 16(%r14)
	prefetcht0	192(%r14)
	leaq	(%rdx,%rax), %rcx
	shrq	$3, %rbx
	addq	%rax, %r11
	andl	$1, %ebx
	addq	%rax, %r9
	leaq	(%rcx,%rdi), %rsi
.LVL328:
	movq	%rbx, (%rsp)
.LVL329:
	leaq	10(%r12), %rbx
	movq	%rcx, %rdx
	movq	%rcx, 64(%r14)
	leaq	(%rcx,%rax), %r10
	movq	%rsi, 24(%r14)
.LVL330:
	addq	%r8, %rsi
	subq	%r8, %rdx
	movq	%rsi, 32(%r14)
.LVL331:
	addq	%r8, %rsi
	movq	%rdx, 56(%r14)
	movq	%rsi, 40(%r14)
.LVL332:
	addq	%r8, %rsi
	cmpq	%rbx, %r15
	movq	%rsi, 48(%r14)
.LVL333:
	movq	%rcx, %rdx
	leaq	9(%r12), %rsi
.LVL334:
	leaq	64(%r14), %rcx
	jle	.L790
	cmpq	$0, (%rsp)
	je	.L791
	leaq	(%r10,%rdi), %rsi
.LVL335:
	prefetcht0	256(%r14)
	movq	%r10, %rdx
	subq	%r8, %rdx
	movq	%r11, 8(%rcx)
.LVL336:
	movq	%r9, 16(%rcx)
.LVL337:
	movq	%rsi, 24(%rcx)
.LVL338:
	addq	%r8, %rsi
	movq	%rdx, 56(%rcx)
	movq	%rsi, 32(%rcx)
.LVL339:
	addq	%r8, %rsi
	movq	%r10, 64(%rcx)
	movq	%rsi, 40(%rcx)
.LVL340:
	addq	%r8, %rsi
	movq	%r10, %rdx
	movq	%rsi, 48(%rcx)
.LVL341:
	leaq	17(%r12), %rsi
.LVL342:
	addq	$18, %r12
.LVL343:
	addq	%rax, %r10
	addq	%rax, %r11
	addq	%rax, %r9
	cmpq	%r12, %r15
	leaq	128(%r14), %rcx
	jle	.L790
.LVL344:
.L791:
	leaq	(%r10,%rax), %rdx
	leaq	(%r10,%rdi), %r12
	.loc 1 173 0 is_stmt 0 discriminator 3
	movq	%r10, 64(%rcx)
	movq	%r10, %r14
	addq	$16, %rsi
	movq	%r11, 8(%rcx)
	movq	%r12, 24(%rcx)
	leaq	(%rdx,%rdi), %r10
	addq	%r8, %r12
	movq	%r12, 32(%rcx)
	addq	%r8, %r12
	movq	%rdx, %rbx
	movq	%r12, 40(%rcx)
	movq	%r10, 88(%rcx)
	addq	%r8, %r12
	addq	%r8, %r10
	movq	%r12, 48(%rcx)
	leaq	1(%rsi), %r12
	movq	%r10, 96(%rcx)
	addq	%r8, %r10
	movq	%r9, 16(%rcx)
	addq	%rax, %r11
	addq	%rax, %r9
	movq	%r10, 104(%rcx)
	subq	%r8, %r14
	addq	%r8, %r10
	subq	%r8, %rbx
	movq	%r11, 72(%rcx)
	movq	%r9, 80(%rcx)
	prefetcht0	192(%rcx)
	movq	%r10, 112(%rcx)
	movq	%r14, 56(%rcx)
	prefetcht0	256(%rcx)
	movq	%rbx, 120(%rcx)
	movq	%rdx, 128(%rcx)
	addq	%rax, %r11
	subq	$-128, %rcx
	addq	%rax, %r9
	cmpq	%r12, %r15
	leaq	(%rdx,%rax), %r10
	jg	.L791
.L790:
	movq	%r13, %r15
	.loc 1 173 0
	leaq	1(%rsi), %rax
	addq	%r8, %rdx
	subq	%rsi, %r15
	movq	%rdx, 0(%rbp,%rsi,8)
	addq	%r8, %rdx
	andl	$7, %r15d
	cmpq	%rax, %r13
	jl	.L844
	testq	%r15, %r15
	je	.L792
	cmpq	$1, %r15
	je	.L828
	cmpq	$2, %r15
	je	.L829
	cmpq	$3, %r15
	je	.L830
	cmpq	$4, %r15
	je	.L831
	cmpq	$5, %r15
	je	.L832
	cmpq	$6, %r15
	je	.L833
	movq	%rdx, 0(%rbp,%rax,8)
	leaq	2(%rsi), %rax
	addq	%r8, %rdx
.L833:
	movq	%rdx, 0(%rbp,%rax,8)
	addq	$1, %rax
	addq	%r8, %rdx
.L832:
	movq	%rdx, 0(%rbp,%rax,8)
	addq	$1, %rax
	addq	%r8, %rdx
.L831:
	movq	%rdx, 0(%rbp,%rax,8)
	addq	$1, %rax
	addq	%r8, %rdx
.L830:
	movq	%rdx, 0(%rbp,%rax,8)
	addq	$1, %rax
	addq	%r8, %rdx
.L829:
	movq	%rdx, 0(%rbp,%rax,8)
	addq	$1, %rax
	addq	%r8, %rdx
.L828:
	movq	%rdx, 0(%rbp,%rax,8)
	addq	$1, %rax
	addq	%r8, %rdx
	cmpq	%rax, %r13
	jl	.L844
.L792:
	movq	%rdx, 0(%rbp,%rax,8)
	addq	%r8, %rdx
	movq	%rdx, 8(%rbp,%rax,8)
	addq	%r8, %rdx
	movq	%rdx, 16(%rbp,%rax,8)
	addq	%r8, %rdx
	movq	%rdx, 24(%rbp,%rax,8)
	addq	%r8, %rdx
	movq	%rdx, 32(%rbp,%rax,8)
	addq	%r8, %rdx
	movq	%rdx, 40(%rbp,%rax,8)
	addq	%r8, %rdx
	movq	%rdx, 48(%rbp,%rax,8)
	addq	%r8, %rdx
	movq	%rdx, 56(%rbp,%rax,8)
	addq	$8, %rax
	addq	%r8, %rdx
	cmpq	%rax, %r13
	jge	.L792
.L844:
.LBE86:
	.loc 1 178 0 is_stmt 1
	addq	$24, %rsp
	.cfi_remember_state
	.cfi_def_cfa_offset 56
	movq	%rbp, %rax
	popq	%rbx
	.cfi_def_cfa_offset 48
	popq	%rbp
	.cfi_def_cfa_offset 40
.LVL345:
	popq	%r12
	.cfi_def_cfa_offset 32
	popq	%r13
	.cfi_def_cfa_offset 24
.LVL346:
	popq	%r14
	.cfi_def_cfa_offset 16
	popq	%r15
	.cfi_def_cfa_offset 8
	ret
.LVL347:
.L850:
	.cfi_restore_state
.LBB87:
	.loc 1 163 0 discriminator 1
	movl	$.LC17, %edi
	call	_Z7nrerrorPKc
.LVL348:
.L851:
	.loc 1 169 0 discriminator 1
	movl	$.LC18, %edi
	call	_Z7nrerrorPKc
.LVL349:
.LBE87:
	.cfi_endproc
.LFE55:
	.size	_Z7dmatrixllll, .-_Z7dmatrixllll
	.section	.text.unlikely
.LCOLDE19:
	.text
.LHOTE19:
	.section	.text.unlikely
.LCOLDB20:
	.text
.LHOTB20:
	.p2align 4,,15
	.globl	_Z12free_dmatrixPPdllll
	.type	_Z12free_dmatrixPPdllll, @function
_Z12free_dmatrixPPdllll:
.LFB56:
	.loc 1 182 0
	.cfi_startproc
.LVL350:
	pushq	%rbp
	.cfi_def_cfa_offset 16
	.cfi_offset 6, -16
	pushq	%rbx
	.cfi_def_cfa_offset 24
	.cfi_offset 3, -24
	.loc 1 185 0
	leaq	-8(,%rcx,8), %rax
	.loc 1 182 0
	movq	%rdi, %rbx
	.loc 1 185 0
	leaq	0(,%rsi,8), %rbp
	.loc 1 182 0
	subq	$8, %rsp
	.cfi_def_cfa_offset 32
	.loc 1 185 0
	addq	(%rdi,%rsi,8), %rax
	movq	%rax, %rdi
.LVL351:
	call	free
.LVL352:
	.loc 1 188 0
	addq	$8, %rsp
	.cfi_def_cfa_offset 24
	.loc 1 186 0
	leaq	-8(%rbx,%rbp), %rdi
	.loc 1 188 0
	popq	%rbx
	.cfi_def_cfa_offset 16
.LVL353:
	popq	%rbp
	.cfi_def_cfa_offset 8
	.loc 1 186 0
	jmp	free
.LVL354:
	.cfi_endproc
.LFE56:
	.size	_Z12free_dmatrixPPdllll, .-_Z12free_dmatrixPPdllll
	.section	.text.unlikely
.LCOLDE20:
	.text
.LHOTE20:
	.section	.rodata.cst16,"aM",@progbits,16
	.align 16
.LC7:
	.long	4294967295
	.long	2147483647
	.long	0
	.long	0
	.section	.rodata.cst8,"aM",@progbits,8
	.align 8
.LC10:
	.long	0
	.long	1072693248
	.text
.Letext0:
	.section	.text.unlikely
.Letext_cold0:
	.file 3 "/usr/lib/gcc/x86_64-linux-gnu/4.9/include/stddef.h"
	.file 4 "/usr/include/x86_64-linux-gnu/bits/types.h"
	.file 5 "/usr/include/stdio.h"
	.file 6 "/usr/include/libio.h"
	.file 7 "/usr/include/stdlib.h"
	.file 8 "/usr/include/x86_64-linux-gnu/bits/mathcalls.h"
	.section	.note.GNU-stack,"",@progbits
