	.file	"all.cpp"
	.text
.Ltext0:
	.p2align 4,,15
	.globl	_Z12CumNormalInvd
	.type	_Z12CumNormalInvd, @function
_Z12CumNormalInvd:
.LFB50:
	.file 1 "all.cpp"
	.loc 1 41 0
	.cfi_startproc
.LVL0:
.LBB71:
	.loc 1 47 0
	movapd	%xmm0, %xmm2
.LBE71:
	.loc 1 41 0
	movapd	%xmm0, %xmm1
.LBB72:
	.loc 1 48 0
	movsd	.LC1(%rip), %xmm0
.LVL1:
	.loc 1 47 0
	subsd	.LC0(%rip), %xmm2
.LVL2:
	.loc 1 48 0
	movsd	.LC2(%rip), %xmm3
	andpd	%xmm2, %xmm0
	ucomisd	%xmm0, %xmm3
	ja	.L16
.LVL3:
	.loc 1 57 0
	xorpd	%xmm4, %xmm4
.LBE72:
	.loc 1 41 0
	subq	$40, %rsp
.LCFI0:
	.cfi_def_cfa_offset 48
.LBB73:
	.loc 1 57 0
	ucomisd	%xmm4, %xmm2
	jbe	.L13
	.loc 1 57 0 is_stmt 0 discriminator 1
	movsd	.LC11(%rip), %xmm0
	subsd	%xmm1, %xmm0
.LVL4:
.L5:
	.loc 1 58 0 is_stmt 1
	movsd	%xmm2, (%rsp)
	call	log
.LVL5:
	movsd	.LC13(%rip), %xmm5
	xorpd	%xmm5, %xmm0
	movapd	%xmm5, 16(%rsp)
	call	log
.LVL6:
	.loc 1 62 0
	xorpd	%xmm8, %xmm8
	.loc 1 61 0
	movsd	.LC14(%rip), %xmm6
	.loc 1 62 0
	movsd	(%rsp), %xmm7
	.loc 1 61 0
	mulsd	%xmm0, %xmm6
	.loc 1 62 0
	movapd	16(%rsp), %xmm9
	ucomisd	%xmm7, %xmm8
	.loc 1 61 0
	addsd	.LC15(%rip), %xmm6
	mulsd	%xmm0, %xmm6
	addsd	.LC16(%rip), %xmm6
	mulsd	%xmm0, %xmm6
	addsd	.LC17(%rip), %xmm6
	mulsd	%xmm0, %xmm6
	addsd	.LC18(%rip), %xmm6
	mulsd	%xmm0, %xmm6
	addsd	.LC19(%rip), %xmm6
	mulsd	%xmm0, %xmm6
	addsd	.LC20(%rip), %xmm6
	mulsd	%xmm0, %xmm6
	addsd	.LC21(%rip), %xmm6
	mulsd	%xmm0, %xmm6
	addsd	.LC22(%rip), %xmm6
.LVL7:
	.loc 1 62 0
	ja	.L17
.LBE73:
	.loc 1 66 0
	movapd	%xmm6, %xmm0
	addq	$40, %rsp
.LCFI1:
	.cfi_def_cfa_offset 8
	ret
.LVL8:
	.p2align 4,,10
	.p2align 3
.L16:
.LBB74:
	.loc 1 50 0
	movapd	%xmm2, %xmm10
	.loc 1 52 0
	movsd	.LC7(%rip), %xmm12
	.loc 1 50 0
	mulsd	%xmm2, %xmm10
.LVL9:
	.loc 1 52 0
	movsd	.LC3(%rip), %xmm11
	mulsd	%xmm10, %xmm12
	mulsd	%xmm10, %xmm11
	subsd	.LC8(%rip), %xmm12
	addsd	.LC4(%rip), %xmm11
	mulsd	%xmm10, %xmm12
	mulsd	%xmm10, %xmm11
	addsd	.LC9(%rip), %xmm12
	subsd	.LC5(%rip), %xmm11
	mulsd	%xmm10, %xmm12
	mulsd	%xmm10, %xmm11
	subsd	.LC10(%rip), %xmm12
	addsd	.LC6(%rip), %xmm11
	mulsd	%xmm10, %xmm12
	mulsd	%xmm2, %xmm11
	addsd	.LC11(%rip), %xmm12
	divsd	%xmm12, %xmm11
.LBE74:
	.loc 1 66 0
	movapd	%xmm11, %xmm0
	ret
.LVL10:
	.p2align 4,,10
	.p2align 3
.L13:
.LCFI2:
	.cfi_def_cfa_offset 48
.LBB75:
	.loc 1 56 0
	movapd	%xmm1, %xmm0
	jmp	.L5
.LVL11:
	.p2align 4,,10
	.p2align 3
.L17:
	.loc 1 62 0 discriminator 1
	xorpd	%xmm9, %xmm6
.LVL12:
.LBE75:
	.loc 1 66 0 discriminator 1
	addq	$40, %rsp
.LCFI3:
	.cfi_def_cfa_offset 8
	movapd	%xmm6, %xmm0
	ret
	.cfi_endproc
.LFE50:
	.size	_Z12CumNormalInvd, .-_Z12CumNormalInvd
	.p2align 4,,15
	.globl	_Z20HJM_Yield_to_ForwardPdiS_
	.type	_Z20HJM_Yield_to_ForwardPdiS_, @function
_Z20HJM_Yield_to_ForwardPdiS_:
.LFB78:
	.loc 1 160 0
	.cfi_startproc
.LBB77:
	.loc 1 167 0
	movsd	(%rdx), %xmm0
	.loc 1 168 0
	cmpl	$1, %esi
	.loc 1 167 0
	movsd	%xmm0, (%rdi)
	.loc 1 168 0
	jle	.L65
.LBE77:
	.loc 1 160 0
	pushq	%r13
.LCFI4:
	.cfi_def_cfa_offset 16
	.cfi_offset 13, -16
	leaq	8(%rdi), %rcx
.LBB78:
	.loc 1 157 0
	leaq	40(%rdx), %r8
	leaq	40(%rdi), %r10
	leaq	8(%rdx), %rax
	leaq	32(%rdx), %r13
.LBE78:
	.loc 1 160 0
	pushq	%r12
.LCFI5:
	.cfi_def_cfa_offset 24
	.cfi_offset 12, -24
	pushq	%rbp
.LCFI6:
	.cfi_def_cfa_offset 32
	.cfi_offset 6, -32
.LBB79:
	.loc 1 157 0
	leal	-1(%rsi), %ebp
.LBE79:
	.loc 1 160 0
	pushq	%rbx
.LCFI7:
	.cfi_def_cfa_offset 40
	.cfi_offset 3, -40
	movl	%ebp, %ebx
	shrl	$2, %ebx
.LBB80:
	.loc 1 157 0
	cmpq	%r8, %rcx
	setae	%r11b
	cmpq	%rax, %r10
	leal	0(,%rbx,4), %r12d
	setbe	%r9b
	orl	%r9d, %r11d
	cmpq	%r13, %rcx
	setae	%r8b
	cmpq	%r10, %rdx
	setae	%r10b
	orl	%r10d, %r8d
	andl	%r8d, %r11d
	cmpl	$4, %ebp
	seta	%r9b
	testb	%r9b, %r11b
	je	.L30
	testl	%r12d, %r12d
	je	.L30
	movdqa	.LC24(%rip), %xmm6
	cmpl	$2, %ebx
	movdqa	%xmm6, %xmm7
	jbe	.L31
	leal	-3(%rbx), %r11d
.LBE80:
	movdqa	.LC23(%rip), %xmm2
	xorl	%r10d, %r10d
.LBB81:
	shrl	%r11d
	movdqa	.LC25(%rip), %xmm4
	salq	$6, %r11
	leaq	72(%rdx,%r11), %r13
	.p2align 4,,10
	.p2align 3
.L22:
	.loc 1 169 0 discriminator 2
	movdqa	%xmm2, %xmm1
	prefetcht0	272(%rax)
	prefetcht0	264(%rax)
	movsd	16(%rax), %xmm8
	movdqa	%xmm2, %xmm3
	movsd	8(%rax), %xmm13
	paddd	%xmm4, %xmm1
	cvtdq2pd	%xmm1, %xmm15
	pshufd	$238, %xmm1, %xmm5
	movhpd	24(%rax), %xmm8
	paddd	%xmm7, %xmm3
	pshufd	$238, %xmm2, %xmm11
	movhpd	16(%rax), %xmm13
	cvtdq2pd	%xmm2, %xmm2
	movsd	(%rax), %xmm0
	addl	$2, %r10d
	cvtdq2pd	%xmm5, %xmm10
	movsd	-8(%rax), %xmm5
	cvtdq2pd	%xmm11, %xmm12
	mulpd	%xmm8, %xmm10
	movhpd	8(%rax), %xmm0
	movhpd	(%rax), %xmm5
	mulpd	%xmm13, %xmm12
	mulpd	%xmm5, %xmm2
	mulpd	%xmm0, %xmm15
	subpd	%xmm12, %xmm10
	pshufd	$238, %xmm3, %xmm14
	subpd	%xmm2, %xmm15
	movlpd	%xmm10, 16(%rcx)
	movdqa	%xmm3, %xmm2
	movhpd	%xmm10, 24(%rcx)
	movdqa	%xmm3, %xmm10
	cvtdq2pd	%xmm3, %xmm3
	paddd	%xmm7, %xmm2
	paddd	%xmm4, %xmm10
	pshufd	$238, %xmm10, %xmm9
	cvtdq2pd	%xmm10, %xmm10
	movlpd	%xmm15, (%rcx)
	movhpd	%xmm15, 8(%rcx)
	cvtdq2pd	%xmm14, %xmm15
	cvtdq2pd	%xmm9, %xmm11
	movsd	48(%rax), %xmm12
	movsd	40(%rax), %xmm0
	movsd	32(%rax), %xmm5
	movhpd	56(%rax), %xmm12
	movsd	24(%rax), %xmm9
	movhpd	48(%rax), %xmm0
	movhpd	40(%rax), %xmm5
	mulpd	%xmm12, %xmm11
	movhpd	32(%rax), %xmm9
	.loc 1 157 0 discriminator 2
	addq	$64, %rax
	.loc 1 169 0 discriminator 2
	mulpd	%xmm0, %xmm15
	.loc 1 157 0 discriminator 2
	leaq	-8(%rax), %r9
	.loc 1 169 0 discriminator 2
	mulpd	%xmm5, %xmm10
	mulpd	%xmm9, %xmm3
	subpd	%xmm15, %xmm11
	subpd	%xmm3, %xmm10
	movlpd	%xmm11, 48(%rcx)
	movhpd	%xmm11, 56(%rcx)
	movlpd	%xmm10, 32(%rcx)
	movhpd	%xmm10, 40(%rcx)
	.loc 1 157 0 discriminator 2
	addq	$64, %rcx
	cmpq	%r13, %rax
	jne	.L22
.L21:
	.loc 1 169 0
	movdqa	%xmm2, %xmm11
	movl	%r10d, %r13d
	movsd	16(%rax), %xmm14
	notl	%r13d
	movsd	16(%r9), %xmm10
	paddd	%xmm4, %xmm11
	cvtdq2pd	%xmm11, %xmm12
	movsd	(%rax), %xmm8
	movhpd	24(%rax), %xmm14
	leal	1(%r10), %r11d
	movsd	(%r9), %xmm9
	movhpd	24(%r9), %xmm10
	pshufd	$238, %xmm11, %xmm7
	movhpd	8(%rax), %xmm8
	cvtdq2pd	%xmm2, %xmm11
	pshufd	$238, %xmm2, %xmm0
	movhpd	8(%r9), %xmm9
	paddd	%xmm6, %xmm2
	mulpd	%xmm8, %xmm12
	addl	%ebx, %r13d
	cvtdq2pd	%xmm7, %xmm13
	andl	$1, %r13d
	cmpl	%r11d, %ebx
	mulpd	%xmm14, %xmm13
	cvtdq2pd	%xmm0, %xmm1
	movl	$32, %r8d
	mulpd	%xmm10, %xmm1
	mulpd	%xmm9, %xmm11
	subpd	%xmm1, %xmm13
	subpd	%xmm11, %xmm12
	movlpd	%xmm13, 16(%rcx)
	movhpd	%xmm13, 24(%rcx)
	movlpd	%xmm12, (%rcx)
	movhpd	%xmm12, 8(%rcx)
	jbe	.L63
	testl	%r13d, %r13d
	je	.L28
	movdqa	%xmm2, %xmm13
	leal	2(%r10), %r11d
	movsd	48(%rax), %xmm0
	movl	$64, %r8d
	movsd	48(%r9), %xmm5
	paddd	%xmm4, %xmm13
	cvtdq2pd	%xmm13, %xmm11
	movsd	32(%rax), %xmm3
	movhpd	56(%rax), %xmm0
	cmpl	%r11d, %ebx
	movsd	32(%r9), %xmm7
	movhpd	56(%r9), %xmm5
	pshufd	$238, %xmm13, %xmm14
	movhpd	40(%rax), %xmm3
	cvtdq2pd	%xmm2, %xmm13
	pshufd	$238, %xmm2, %xmm10
	movhpd	40(%r9), %xmm7
	paddd	%xmm6, %xmm2
	mulpd	%xmm3, %xmm11
	cvtdq2pd	%xmm14, %xmm15
	cvtdq2pd	%xmm10, %xmm12
	mulpd	%xmm0, %xmm15
	mulpd	%xmm5, %xmm12
	mulpd	%xmm7, %xmm13
	subpd	%xmm12, %xmm15
	subpd	%xmm13, %xmm11
	movlpd	%xmm15, 48(%rcx)
	movhpd	%xmm15, 56(%rcx)
	movlpd	%xmm11, 32(%rcx)
	movhpd	%xmm11, 40(%rcx)
	jbe	.L63
	.p2align 4,,10
	.p2align 3
.L28:
	movdqa	%xmm2, %xmm1
	addl	$2, %r11d
	movsd	16(%rax,%r8), %xmm12
	movsd	16(%r9,%r8), %xmm3
	paddd	%xmm4, %xmm1
	cvtdq2pd	%xmm1, %xmm13
	movsd	(%rax,%r8), %xmm7
	movhpd	24(%rax,%r8), %xmm12
	pshufd	$238, %xmm1, %xmm0
	movhpd	24(%r9,%r8), %xmm3
	movsd	(%r9,%r8), %xmm1
	movhpd	8(%rax,%r8), %xmm7
	pshufd	$238, %xmm2, %xmm8
	movdqa	%xmm2, %xmm15
	cvtdq2pd	%xmm2, %xmm2
	movhpd	8(%r9,%r8), %xmm1
	cvtdq2pd	%xmm0, %xmm10
	mulpd	%xmm7, %xmm13
	paddd	%xmm6, %xmm15
	cvtdq2pd	%xmm15, %xmm0
	mulpd	%xmm12, %xmm10
	cvtdq2pd	%xmm8, %xmm11
	mulpd	%xmm1, %xmm2
	mulpd	%xmm3, %xmm11
	pshufd	$238, %xmm15, %xmm3
	subpd	%xmm2, %xmm13
	subpd	%xmm11, %xmm10
	movlpd	%xmm13, (%rcx,%r8)
	movhpd	%xmm13, 8(%rcx,%r8)
	cvtdq2pd	%xmm3, %xmm13
	movlpd	%xmm10, 16(%rcx,%r8)
	movhpd	%xmm10, 24(%rcx,%r8)
	movdqa	%xmm15, %xmm10
	movsd	48(%rax,%r8), %xmm5
	paddd	%xmm4, %xmm10
	cvtdq2pd	%xmm10, %xmm14
	movsd	48(%r9,%r8), %xmm9
	movsd	32(%rax,%r8), %xmm2
	movhpd	56(%rax,%r8), %xmm5
	pshufd	$238, %xmm10, %xmm12
	movhpd	56(%r9,%r8), %xmm9
	movsd	32(%r9,%r8), %xmm10
	movhpd	40(%rax,%r8), %xmm2
	mulpd	%xmm9, %xmm13
	movhpd	40(%r9,%r8), %xmm10
	cvtdq2pd	%xmm12, %xmm11
	mulpd	%xmm2, %xmm14
	movdqa	%xmm15, %xmm2
	mulpd	%xmm5, %xmm11
	paddd	%xmm6, %xmm2
	mulpd	%xmm10, %xmm0
	subpd	%xmm13, %xmm11
	subpd	%xmm0, %xmm14
	movlpd	%xmm11, 48(%rcx,%r8)
	movhpd	%xmm11, 56(%rcx,%r8)
	movlpd	%xmm14, 32(%rcx,%r8)
	movhpd	%xmm14, 40(%rcx,%r8)
	addq	$64, %r8
	cmpl	%r11d, %ebx
	ja	.L28
.L63:
	cmpl	%r12d, %ebp
	leal	1(%r12), %ebx
	je	.L34
.L20:
	cmpl	%ebx, %esi
	.loc 1 157 0
	leal	1(%rbx), %r9d
	leal	-7(%rsi), %r13d
	jle	.L66
	cmpl	%r13d, %r9d
	jge	.L66
	cvtsi2sd	%ebx, %xmm0
	movslq	%ebx, %rcx
	salq	$3, %rcx
	leaq	(%rdx,%rcx), %rax
	addq	%rdi, %rcx
	.p2align 4,,10
	.p2align 3
.L25:
	.loc 1 169 0
	cvtsi2sd	%r9d, %xmm6
	mulsd	-8(%rax), %xmm0
	prefetcht0	96(%rax)
	movsd	(%rax), %xmm4
	.loc 1 157 0
	leal	2(%rbx), %r10d
	prefetcht0	88(%rax)
	leal	3(%rbx), %r8d
	leal	4(%rbx), %r11d
	leal	5(%rbx), %ebp
	.loc 1 169 0
	cvtsi2sd	%r10d, %xmm15
	.loc 1 157 0
	leal	6(%rbx), %r12d
	prefetcht0	96(%rcx)
	.loc 1 169 0
	cvtsi2sd	%r8d, %xmm5
	.loc 1 157 0
	leal	7(%rbx), %r10d
	.loc 1 169 0
	cvtsi2sd	%r11d, %xmm3
	addl	$8, %ebx
	cvtsi2sd	%ebp, %xmm9
	addl	$8, %r9d
	cvtsi2sd	%r12d, %xmm14
	cvtsi2sd	%r10d, %xmm10
	mulsd	%xmm6, %xmm4
	subsd	%xmm0, %xmm4
	cvtsi2sd	%ebx, %xmm0
	movsd	%xmm4, (%rcx)
	movsd	8(%rax), %xmm11
	mulsd	(%rax), %xmm6
	mulsd	%xmm15, %xmm11
	subsd	%xmm6, %xmm11
	movsd	%xmm11, 8(%rcx)
	movsd	16(%rax), %xmm8
	mulsd	8(%rax), %xmm15
	mulsd	%xmm5, %xmm8
	subsd	%xmm15, %xmm8
	movsd	%xmm8, 16(%rcx)
	movsd	24(%rax), %xmm13
	mulsd	16(%rax), %xmm5
	mulsd	%xmm3, %xmm13
	subsd	%xmm5, %xmm13
	movsd	%xmm13, 24(%rcx)
	movsd	32(%rax), %xmm7
	mulsd	24(%rax), %xmm3
	mulsd	%xmm9, %xmm7
	subsd	%xmm3, %xmm7
	movsd	%xmm7, 32(%rcx)
	movsd	40(%rax), %xmm2
	mulsd	32(%rax), %xmm9
	mulsd	%xmm14, %xmm2
	subsd	%xmm9, %xmm2
	movsd	%xmm2, 40(%rcx)
	movsd	48(%rax), %xmm1
	mulsd	40(%rax), %xmm14
	mulsd	%xmm10, %xmm1
	subsd	%xmm14, %xmm1
	movsd	%xmm1, 48(%rcx)
	movsd	56(%rax), %xmm12
	mulsd	48(%rax), %xmm10
	addq	$64, %rax
	mulsd	%xmm0, %xmm12
	subsd	%xmm10, %xmm12
	movsd	%xmm12, 56(%rcx)
	addq	$64, %rcx
	cmpl	%r9d, %r13d
	jg	.L25
	leal	1(%rbx), %r9d
.L24:
	.loc 1 157 0
	movslq	%ebx, %rbx
	leaq	-8(%rdx,%rbx,8), %r13
	leaq	(%rdi,%rbx,8), %rdx
	movl	%esi, %edi
	subl	%r9d, %edi
	andl	$3, %edi
	je	.L26
	.loc 1 169 0
	cvtsi2sd	%r9d, %xmm6
	mulsd	0(%r13), %xmm0
	movl	%r9d, %ecx
	mulsd	8(%r13), %xmm6
	addq	$8, %r13
	subsd	%xmm0, %xmm6
	movsd	%xmm6, (%rdx)
	addq	$8, %rdx
	.loc 1 168 0
	cmpl	%r9d, %esi
	jle	.L34
	addl	$1, %r9d
	cmpl	$1, %edi
	cvtsi2sd	%ecx, %xmm0
	je	.L26
	cmpl	$2, %edi
	je	.L55
	.loc 1 169 0
	cvtsi2sd	%r9d, %xmm4
	mulsd	0(%r13), %xmm0
	movl	%r9d, %eax
	addl	$1, %r9d
	mulsd	8(%r13), %xmm4
	addq	$8, %r13
	subsd	%xmm0, %xmm4
	cvtsi2sd	%eax, %xmm0
	movsd	%xmm4, (%rdx)
	addq	$8, %rdx
.L55:
	cvtsi2sd	%r9d, %xmm15
	mulsd	0(%r13), %xmm0
	movl	%r9d, %r8d
	addl	$1, %r9d
	mulsd	8(%r13), %xmm15
	addq	$8, %r13
	subsd	%xmm0, %xmm15
	cvtsi2sd	%r8d, %xmm0
	movsd	%xmm15, (%rdx)
	addq	$8, %rdx
	jmp	.L26
	.p2align 4,,10
	.p2align 3
.L67:
	leal	1(%r9), %r11d
	movsd	16(%r13), %xmm3
	mulsd	8(%r13), %xmm11
	leal	2(%r9), %ebp
	leal	3(%r9), %r12d
	cvtsi2sd	%r11d, %xmm8
	addl	$4, %r9d
	cvtsi2sd	%ebp, %xmm13
	cvtsi2sd	%r12d, %xmm0
	mulsd	%xmm8, %xmm3
	subsd	%xmm11, %xmm3
	movsd	%xmm3, 8(%rdx)
	movsd	24(%r13), %xmm9
	mulsd	16(%r13), %xmm8
	mulsd	%xmm13, %xmm9
	subsd	%xmm8, %xmm9
	movsd	%xmm9, 16(%rdx)
	movsd	32(%r13), %xmm7
	mulsd	24(%r13), %xmm13
	addq	$32, %r13
	mulsd	%xmm0, %xmm7
	subsd	%xmm13, %xmm7
	movsd	%xmm7, 24(%rdx)
	addq	$32, %rdx
.L26:
	cvtsi2sd	%r9d, %xmm11
	mulsd	0(%r13), %xmm0
	movsd	8(%r13), %xmm5
	.loc 1 168 0
	cmpl	%r9d, %esi
	.loc 1 169 0
	mulsd	%xmm11, %xmm5
	subsd	%xmm0, %xmm5
	movsd	%xmm5, (%rdx)
	.loc 1 168 0
	jg	.L67
.L34:
.LBE81:
	.loc 1 174 0
	popq	%rbx
.LCFI8:
	.cfi_remember_state
	.cfi_restore 3
	.cfi_def_cfa_offset 32
	popq	%rbp
.LCFI9:
	.cfi_restore 6
	.cfi_def_cfa_offset 24
	popq	%r12
.LCFI10:
	.cfi_restore 12
	.cfi_def_cfa_offset 16
	movl	$1, %eax
	popq	%r13
.LCFI11:
	.cfi_restore 13
	.cfi_def_cfa_offset 8
	ret
	.p2align 4,,10
	.p2align 3
.L66:
.LCFI12:
	.cfi_restore_state
	cvtsi2sd	%ebx, %xmm0
	jmp	.L24
	.p2align 4,,10
	.p2align 3
.L31:
	.loc 1 157 0
	movq	%rdx, %r9
	xorl	%r10d, %r10d
	movdqa	.LC23(%rip), %xmm2
	movdqa	.LC25(%rip), %xmm4
	jmp	.L21
	.p2align 4,,10
	.p2align 3
.L65:
.LCFI13:
	.cfi_def_cfa_offset 8
	.cfi_restore 3
	.cfi_restore 6
	.cfi_restore 12
	.cfi_restore 13
	.loc 1 174 0
	movl	$1, %eax
	ret
.L30:
.LCFI14:
	.cfi_def_cfa_offset 40
	.cfi_offset 3, -40
	.cfi_offset 6, -32
	.cfi_offset 12, -24
	.cfi_offset 13, -16
	.loc 1 168 0
	movl	$1, %ebx
	jmp	.L20
	.cfi_endproc
.LFE78:
	.size	_Z20HJM_Yield_to_ForwardPdiS_, .-_Z20HJM_Yield_to_ForwardPdiS_
	.p2align 4,,15
	.globl	_Z11HJM_FactorsPPdiiS_S0_
	.type	_Z11HJM_FactorsPPdiiS_S0_, @function
_Z11HJM_FactorsPPdiiS_S0_:
.LFB79:
	.loc 1 182 0
	.cfi_startproc
.LBB82:
	.loc 1 205 0
	testl	%edx, %edx
	jle	.L128
.LBE82:
	.loc 1 182 0
	pushq	%r15
.LCFI15:
	.cfi_def_cfa_offset 16
	.cfi_offset 15, -16
.LBB83:
	.loc 1 177 0
	leal	-10(%rsi), %eax
	subl	$1, %edx
	movq	%rcx, %r15
	leal	-1(%rsi), %ecx
.LBE83:
	.loc 1 182 0
	pushq	%r14
.LCFI16:
	.cfi_def_cfa_offset 24
	.cfi_offset 14, -24
.LBB84:
	.loc 1 177 0
	shrl	$3, %eax
.LBE84:
	.loc 1 182 0
	pushq	%r13
.LCFI17:
	.cfi_def_cfa_offset 32
	.cfi_offset 13, -32
	movq	%r8, %r13
.LBB85:
	.loc 1 177 0
	leaq	8(%rdi,%rdx,8), %r8
.LBE85:
	.loc 1 182 0
	pushq	%r12
.LCFI18:
	.cfi_def_cfa_offset 40
	.cfi_offset 12, -40
	movq	%rdi, %r12
.LBB86:
	.loc 1 177 0
	leal	8(,%rax,8), %edi
.LBE86:
	.loc 1 182 0
	pushq	%rbp
.LCFI19:
	.cfi_def_cfa_offset 48
	.cfi_offset 6, -48
	pushq	%rbx
.LCFI20:
	.cfi_def_cfa_offset 56
	.cfi_offset 3, -56
	subq	$56, %rsp
.LCFI21:
	.cfi_def_cfa_offset 112
	.p2align 4,,10
	.p2align 3
.L70:
.LBB87:
	.loc 1 206 0 discriminator 1
	testl	%ecx, %ecx
	jle	.L74
	.loc 1 177 0
	xorl	%ebx, %ebx
	xorl	%r14d, %r14d
	cmpl	$9, %esi
	leaq	64(%r15), %rbp
	jle	.L92
	.p2align 4,,10
	.p2align 3
.L94:
	.loc 1 207 0 discriminator 2
	movq	0(%r13), %rdx
	movsd	-64(%rbp), %xmm1
	prefetcht0	0(%rbp)
	movq	(%r12), %r9
	movsd	(%rdx,%rbx), %xmm0
	addq	%rbx, %r9
	mulsd	%xmm1, %xmm0
	mulsd	%xmm1, %xmm0
	sqrtsd	%xmm0, %xmm2
	ucomisd	%xmm2, %xmm2
	jp	.L129
.L75:
	movq	0(%r13), %r11
	movsd	%xmm2, (%r9)
	movq	(%r12), %r10
	movsd	-56(%rbp), %xmm3
	movsd	8(%r11,%rbx), %xmm0
	leaq	8(%r10,%rbx), %rax
	mulsd	%xmm3, %xmm0
	mulsd	%xmm3, %xmm0
	sqrtsd	%xmm0, %xmm4
	ucomisd	%xmm4, %xmm4
	jp	.L130
.L77:
	movq	0(%r13), %r9
	movsd	%xmm4, (%rax)
	movq	(%r12), %rdx
	movsd	-48(%rbp), %xmm5
	movsd	16(%r9,%rbx), %xmm0
	leaq	16(%rdx,%rbx), %r10
	mulsd	%xmm5, %xmm0
	mulsd	%xmm5, %xmm0
	sqrtsd	%xmm0, %xmm6
	ucomisd	%xmm6, %xmm6
	jp	.L131
.L79:
	movq	0(%r13), %rdx
	movsd	%xmm6, (%r10)
	movq	(%r12), %r11
	movsd	-40(%rbp), %xmm7
	movsd	24(%rdx,%rbx), %xmm0
	leaq	24(%r11,%rbx), %rax
	mulsd	%xmm7, %xmm0
	mulsd	%xmm7, %xmm0
	sqrtsd	%xmm0, %xmm8
	ucomisd	%xmm8, %xmm8
	jp	.L132
.L81:
	movq	0(%r13), %r10
	movsd	%xmm8, (%rax)
	movq	(%r12), %r9
	movsd	-32(%rbp), %xmm9
	movsd	32(%r10,%rbx), %xmm0
	leaq	32(%r9,%rbx), %r11
	mulsd	%xmm9, %xmm0
	mulsd	%xmm9, %xmm0
	sqrtsd	%xmm0, %xmm10
	ucomisd	%xmm10, %xmm10
	jp	.L133
.L83:
	movq	0(%r13), %r9
	movsd	%xmm10, (%r11)
	movq	(%r12), %rdx
	movsd	-24(%rbp), %xmm11
	movsd	40(%r9,%rbx), %xmm0
	leaq	40(%rdx,%rbx), %rax
	mulsd	%xmm11, %xmm0
	mulsd	%xmm11, %xmm0
	sqrtsd	%xmm0, %xmm12
	ucomisd	%xmm12, %xmm12
	jp	.L134
.L85:
	movq	0(%r13), %r11
	movsd	%xmm12, (%rax)
	movq	(%r12), %r10
	movsd	-16(%rbp), %xmm13
	movsd	48(%r11,%rbx), %xmm0
	leaq	48(%r10,%rbx), %rdx
	mulsd	%xmm13, %xmm0
	mulsd	%xmm13, %xmm0
	sqrtsd	%xmm0, %xmm14
	ucomisd	%xmm14, %xmm14
	jp	.L135
.L87:
	movq	0(%r13), %r10
	movsd	%xmm14, (%rdx)
	movq	(%r12), %r9
	movsd	-8(%rbp), %xmm15
	movsd	56(%r10,%rbx), %xmm0
	leaq	56(%r9,%rbx), %rax
	mulsd	%xmm15, %xmm0
	mulsd	%xmm15, %xmm0
	sqrtsd	%xmm0, %xmm1
	ucomisd	%xmm1, %xmm1
	jp	.L136
.L89:
	.loc 1 206 0 discriminator 2
	addl	$8, %r14d
	addq	$64, %rbx
	addq	$64, %rbp
	cmpl	%edi, %r14d
	.loc 1 207 0 discriminator 2
	movsd	%xmm1, (%rax)
	jne	.L94
.L92:
	.loc 1 207 0 is_stmt 0
	movq	0(%r13), %rdx
	.loc 1 177 0 is_stmt 1
	movslq	%r14d, %r11
	movl	%r14d, %ebp
	.loc 1 207 0
	movsd	(%r15,%r11,8), %xmm2
	movq	(%r12), %rbx
	leaq	0(,%r11,8), %r9
	notl	%ebp
	movsd	(%rdx,%r11,8), %xmm0
	addl	%ecx, %ebp
	andl	$3, %ebp
	addq	%r9, %rbx
	mulsd	%xmm2, %xmm0
	mulsd	%xmm2, %xmm0
	sqrtsd	%xmm0, %xmm3
	ucomisd	%xmm3, %xmm3
	jp	.L137
.L120:
	.loc 1 206 0
	addl	$1, %r14d
	.loc 1 207 0
	movsd	%xmm3, (%rbx)
	leaq	8(%r9), %rbx
	.loc 1 206 0
	cmpl	%r14d, %ecx
	jle	.L74
	testl	%ebp, %ebp
	je	.L73
	cmpl	$1, %ebp
	je	.L115
	cmpl	$2, %ebp
	.p2align 4,,3
	je	.L116
	.loc 1 207 0
	movq	0(%r13), %r10
	movsd	8(%r15,%r9), %xmm4
	movq	(%r12), %rbp
	movsd	8(%r10,%r9), %xmm0
	addq	%rbx, %rbp
	mulsd	%xmm4, %xmm0
	mulsd	%xmm4, %xmm0
	sqrtsd	%xmm0, %xmm5
	ucomisd	%xmm5, %xmm5
	jp	.L138
.L122:
	movsd	%xmm5, 0(%rbp)
	.loc 1 206 0
	addl	$1, %r14d
	addq	$8, %rbx
.L116:
	.loc 1 207 0
	movq	0(%r13), %rax
	movsd	(%r15,%rbx), %xmm6
	movq	(%r12), %rbp
	movsd	(%rax,%rbx), %xmm0
	addq	%rbx, %rbp
	mulsd	%xmm6, %xmm0
	mulsd	%xmm6, %xmm0
	sqrtsd	%xmm0, %xmm7
	ucomisd	%xmm7, %xmm7
	jp	.L139
.L123:
	movsd	%xmm7, 0(%rbp)
	.loc 1 206 0
	addl	$1, %r14d
	addq	$8, %rbx
.L115:
	.loc 1 207 0
	movq	0(%r13), %r11
	movsd	(%r15,%rbx), %xmm8
	movq	(%r12), %rbp
	movsd	(%r11,%rbx), %xmm0
	addq	%rbx, %rbp
	mulsd	%xmm8, %xmm0
	mulsd	%xmm8, %xmm0
	sqrtsd	%xmm0, %xmm9
	ucomisd	%xmm9, %xmm9
	jp	.L140
.L124:
	.loc 1 206 0
	addl	$1, %r14d
	addq	$8, %rbx
	.loc 1 207 0
	movsd	%xmm9, 0(%rbp)
	.loc 1 206 0
	cmpl	%r14d, %ecx
	jle	.L74
.L73:
	.loc 1 207 0
	movq	0(%r13), %rdx
	movsd	(%r15,%rbx), %xmm10
	movq	(%r12), %rbp
	movsd	(%rdx,%rbx), %xmm0
	addq	%rbx, %rbp
	mulsd	%xmm10, %xmm0
	mulsd	%xmm10, %xmm0
	sqrtsd	%xmm0, %xmm11
	ucomisd	%xmm11, %xmm11
	jp	.L141
.L71:
	movq	0(%r13), %r9
	movsd	%xmm11, 0(%rbp)
	movq	(%r12), %r10
	leaq	8(%rbx), %rbp
	.loc 1 206 0
	addl	$1, %r14d
	.loc 1 207 0
	movsd	8(%r15,%rbx), %xmm12
	movsd	8(%r9,%rbx), %xmm0
	addq	%rbp, %r10
	mulsd	%xmm12, %xmm0
	mulsd	%xmm12, %xmm0
	sqrtsd	%xmm0, %xmm13
	ucomisd	%xmm13, %xmm13
	jp	.L142
.L121:
	movq	0(%r13), %rax
	movsd	%xmm13, (%r10)
	movq	(%r12), %rbx
	movsd	8(%r15,%rbp), %xmm14
	movsd	8(%rax,%rbp), %xmm0
	leaq	8(%rbx,%rbp), %rbx
	mulsd	%xmm14, %xmm0
	mulsd	%xmm14, %xmm0
	sqrtsd	%xmm0, %xmm15
	ucomisd	%xmm15, %xmm15
	jp	.L143
.L125:
	movq	0(%r13), %rdx
	movsd	%xmm15, (%rbx)
	movq	(%r12), %r11
	movsd	16(%r15,%rbp), %xmm1
	movsd	16(%rdx,%rbp), %xmm0
	leaq	16(%r11,%rbp), %rbx
	mulsd	%xmm1, %xmm0
	mulsd	%xmm1, %xmm0
	sqrtsd	%xmm0, %xmm2
	ucomisd	%xmm2, %xmm2
	jp	.L144
.L126:
	.loc 1 206 0
	addl	$3, %r14d
	.loc 1 207 0
	movsd	%xmm2, (%rbx)
	leaq	24(%rbp), %rbx
	.loc 1 206 0
	cmpl	%r14d, %ecx
	jg	.L73
.L74:
	addq	$8, %r12
	addq	$8, %r13
	.loc 1 205 0
	cmpq	%r8, %r12
	jne	.L70
.LBE87:
	.loc 1 211 0
	addq	$56, %rsp
.LCFI22:
	.cfi_remember_state
	.cfi_def_cfa_offset 56
	movl	$1, %eax
	popq	%rbx
.LCFI23:
	.cfi_restore 3
	.cfi_def_cfa_offset 48
	popq	%rbp
.LCFI24:
	.cfi_restore 6
	.cfi_def_cfa_offset 40
	popq	%r12
.LCFI25:
	.cfi_restore 12
	.cfi_def_cfa_offset 32
	popq	%r13
.LCFI26:
	.cfi_restore 13
	.cfi_def_cfa_offset 24
	popq	%r14
.LCFI27:
	.cfi_restore 14
	.cfi_def_cfa_offset 16
	popq	%r15
.LCFI28:
	.cfi_restore 15
	.cfi_def_cfa_offset 8
	ret
.L129:
.LCFI29:
	.cfi_restore_state
.LBB88:
	.loc 1 207 0 discriminator 2
	movq	%r9, 40(%rsp)
	movl	%ecx, 32(%rsp)
	movl	%esi, 8(%rsp)
	movl	%edi, 16(%rsp)
	movq	%r8, 24(%rsp)
	call	sqrt
	movq	24(%rsp), %r8
	movapd	%xmm0, %xmm2
	movl	16(%rsp), %edi
	movl	8(%rsp), %esi
	movl	32(%rsp), %ecx
	movq	40(%rsp), %r9
	jmp	.L75
.L130:
	movq	%rax, 40(%rsp)
	movl	%ecx, 32(%rsp)
	movl	%esi, 8(%rsp)
	movl	%edi, 16(%rsp)
	movq	%r8, 24(%rsp)
	call	sqrt
	movq	24(%rsp), %r8
	movapd	%xmm0, %xmm4
	movl	16(%rsp), %edi
	movl	8(%rsp), %esi
	movl	32(%rsp), %ecx
	movq	40(%rsp), %rax
	jmp	.L77
.L131:
	movq	%r10, 40(%rsp)
	movl	%ecx, 32(%rsp)
	movl	%esi, 8(%rsp)
	movl	%edi, 16(%rsp)
	movq	%r8, 24(%rsp)
	call	sqrt
	movq	24(%rsp), %r8
	movapd	%xmm0, %xmm6
	movl	16(%rsp), %edi
	movl	8(%rsp), %esi
	movl	32(%rsp), %ecx
	movq	40(%rsp), %r10
	jmp	.L79
.L132:
	movq	%rax, 40(%rsp)
	movl	%ecx, 32(%rsp)
	movl	%esi, 8(%rsp)
	movl	%edi, 16(%rsp)
	movq	%r8, 24(%rsp)
	call	sqrt
	movq	24(%rsp), %r8
	movapd	%xmm0, %xmm8
	movl	16(%rsp), %edi
	movl	8(%rsp), %esi
	movl	32(%rsp), %ecx
	movq	40(%rsp), %rax
	jmp	.L81
.L133:
	movq	%r11, 40(%rsp)
	movl	%ecx, 32(%rsp)
	movl	%esi, 8(%rsp)
	movl	%edi, 16(%rsp)
	movq	%r8, 24(%rsp)
	call	sqrt
	movq	24(%rsp), %r8
	movapd	%xmm0, %xmm10
	movl	16(%rsp), %edi
	movl	8(%rsp), %esi
	movl	32(%rsp), %ecx
	movq	40(%rsp), %r11
	jmp	.L83
.L134:
	movq	%rax, 40(%rsp)
	movl	%ecx, 32(%rsp)
	movl	%esi, 8(%rsp)
	movl	%edi, 16(%rsp)
	movq	%r8, 24(%rsp)
	call	sqrt
	movq	24(%rsp), %r8
	movapd	%xmm0, %xmm12
	movl	16(%rsp), %edi
	movl	8(%rsp), %esi
	movl	32(%rsp), %ecx
	movq	40(%rsp), %rax
	jmp	.L85
.L135:
	movq	%rdx, 40(%rsp)
	movl	%ecx, 32(%rsp)
	movl	%esi, 8(%rsp)
	movl	%edi, 16(%rsp)
	movq	%r8, 24(%rsp)
	call	sqrt
	movq	24(%rsp), %r8
	movapd	%xmm0, %xmm14
	movl	16(%rsp), %edi
	movl	8(%rsp), %esi
	movl	32(%rsp), %ecx
	movq	40(%rsp), %rdx
	jmp	.L87
.L136:
	movq	%rax, 40(%rsp)
	movl	%ecx, 32(%rsp)
	movl	%esi, 8(%rsp)
	movl	%edi, 16(%rsp)
	movq	%r8, 24(%rsp)
	call	sqrt
	movq	24(%rsp), %r8
	movapd	%xmm0, %xmm1
	movl	16(%rsp), %edi
	movl	8(%rsp), %esi
	movl	32(%rsp), %ecx
	movq	40(%rsp), %rax
	jmp	.L89
.L144:
	.loc 1 207 0 is_stmt 0
	movl	%ecx, 32(%rsp)
	movl	%esi, 8(%rsp)
	movl	%edi, 16(%rsp)
	movq	%r8, 24(%rsp)
	call	sqrt
	movq	24(%rsp), %r8
	movapd	%xmm0, %xmm2
	movl	16(%rsp), %edi
	movl	8(%rsp), %esi
	movl	32(%rsp), %ecx
	jmp	.L126
.L143:
	movl	%ecx, 32(%rsp)
	movl	%esi, 8(%rsp)
	movl	%edi, 16(%rsp)
	movq	%r8, 24(%rsp)
	call	sqrt
	movq	24(%rsp), %r8
	movapd	%xmm0, %xmm15
	movl	16(%rsp), %edi
	movl	8(%rsp), %esi
	movl	32(%rsp), %ecx
	jmp	.L125
.L142:
	movq	%r10, 40(%rsp)
	movl	%ecx, 32(%rsp)
	movl	%esi, 8(%rsp)
	movl	%edi, 16(%rsp)
	movq	%r8, 24(%rsp)
	call	sqrt
	movq	24(%rsp), %r8
	movapd	%xmm0, %xmm13
	movl	16(%rsp), %edi
	movl	8(%rsp), %esi
	movl	32(%rsp), %ecx
	movq	40(%rsp), %r10
	jmp	.L121
.L141:
	movl	%ecx, 32(%rsp)
	movl	%esi, 8(%rsp)
	movl	%edi, 16(%rsp)
	movq	%r8, 24(%rsp)
	call	sqrt
	movq	24(%rsp), %r8
	movapd	%xmm0, %xmm11
	movl	16(%rsp), %edi
	movl	8(%rsp), %esi
	movl	32(%rsp), %ecx
	jmp	.L71
.L140:
	movl	%ecx, 32(%rsp)
	movl	%esi, 8(%rsp)
	movl	%edi, 16(%rsp)
	movq	%r8, 24(%rsp)
	call	sqrt
	movq	24(%rsp), %r8
	movapd	%xmm0, %xmm9
	movl	16(%rsp), %edi
	movl	8(%rsp), %esi
	movl	32(%rsp), %ecx
	jmp	.L124
.L137:
	movq	%r9, 40(%rsp)
	movl	%ecx, 32(%rsp)
	movl	%esi, 8(%rsp)
	movl	%edi, 16(%rsp)
	movq	%r8, 24(%rsp)
	call	sqrt
	movq	24(%rsp), %r8
	movapd	%xmm0, %xmm3
	movl	16(%rsp), %edi
	movl	8(%rsp), %esi
	movl	32(%rsp), %ecx
	movq	40(%rsp), %r9
	jmp	.L120
.L139:
	movl	%ecx, 32(%rsp)
	movl	%esi, 8(%rsp)
	movl	%edi, 16(%rsp)
	movq	%r8, 24(%rsp)
	call	sqrt
	movq	24(%rsp), %r8
	movapd	%xmm0, %xmm7
	movl	16(%rsp), %edi
	movl	8(%rsp), %esi
	movl	32(%rsp), %ecx
	jmp	.L123
.L138:
	movl	%ecx, 32(%rsp)
	movl	%esi, 8(%rsp)
	movl	%edi, 16(%rsp)
	movq	%r8, 24(%rsp)
	call	sqrt
	movq	24(%rsp), %r8
	movapd	%xmm0, %xmm5
	movl	16(%rsp), %edi
	movl	8(%rsp), %esi
	movl	32(%rsp), %ecx
	jmp	.L122
.L128:
.LCFI30:
	.cfi_def_cfa_offset 8
	.cfi_restore 3
	.cfi_restore 6
	.cfi_restore 12
	.cfi_restore 13
	.cfi_restore 14
	.cfi_restore 15
.LBE88:
	.loc 1 211 0 is_stmt 1
	movl	$1, %eax
	ret
	.cfi_endproc
.LFE79:
	.size	_Z11HJM_FactorsPPdiiS_S0_, .-_Z11HJM_FactorsPPdiiS_S0_
	.p2align 4,,15
	.globl	_Z10HJM_DriftsPdPS_iidS0_
	.type	_Z10HJM_DriftsPdPS_iidS0_, @function
_Z10HJM_DriftsPdPS_iidS0_:
.LFB80:
	.loc 1 220 0
	.cfi_startproc
.LVL13:
.LBB89:
	.loc 1 225 0
	cvtsi2sd	%edx, %xmm1
.LBE89:
	.loc 1 220 0
	pushq	%r15
.LCFI31:
	.cfi_def_cfa_offset 16
	.cfi_offset 15, -16
.LBB90:
	.loc 1 229 0
	testl	%ecx, %ecx
.LBE90:
	.loc 1 220 0
	pushq	%r14
.LCFI32:
	.cfi_def_cfa_offset 24
	.cfi_offset 14, -24
	pushq	%r13
.LCFI33:
	.cfi_def_cfa_offset 32
	.cfi_offset 13, -32
	pushq	%r12
.LCFI34:
	.cfi_def_cfa_offset 40
	.cfi_offset 12, -40
	pushq	%rbp
.LCFI35:
	.cfi_def_cfa_offset 48
	.cfi_offset 6, -48
	pushq	%rbx
.LCFI36:
	.cfi_def_cfa_offset 56
	.cfi_offset 3, -56
	.loc 1 220 0
	movq	%rdi, %rbx
.LBB91:
	.loc 1 225 0
	divsd	%xmm1, %xmm0
.LVL14:
	.loc 1 229 0
	jle	.L146
	movsd	.LC0(%rip), %xmm4
	cmpl	$8, %ecx
	movq	%r8, %r12
	mulsd	%xmm0, %xmm4
	jle	.L171
	.loc 1 214 0
	leal	-9(%rcx), %ebp
	leaq	136(%rsi), %rdi
.LVL15:
	leaq	136(%r8), %rax
.LBE91:
	.loc 1 229 0
	xorl	%r9d, %r9d
.LBB92:
	.loc 1 214 0
	shrl	$3, %ebp
	leal	8(,%rbp,8), %r11d
.LVL16:
	.p2align 4,,10
	.p2align 3
.L148:
	.loc 1 230 0 discriminator 2
	movq	-136(%rax), %r10
	movq	-136(%rdi), %r13
	.loc 1 229 0 discriminator 2
	addl	$8, %r9d
	.loc 1 230 0 discriminator 2
	movq	-128(%rax), %r14
	movq	-128(%rdi), %r15
	prefetcht0	(%rdi)
	movq	-120(%rax), %r8
	movq	-120(%rdi), %rbp
	prefetcht0	(%rax)
	movsd	(%r10), %xmm2
	movq	-112(%rax), %r10
	movapd	%xmm2, %xmm0
	mulsd	%xmm4, %xmm0
	mulsd	%xmm2, %xmm0
	movsd	%xmm0, 0(%r13)
	movq	-112(%rdi), %r13
	movsd	(%r14), %xmm3
	movq	-104(%rax), %r14
	movapd	%xmm3, %xmm5
	mulsd	%xmm4, %xmm5
	mulsd	%xmm3, %xmm5
	movsd	%xmm5, (%r15)
	movq	-104(%rdi), %r15
	movsd	(%r8), %xmm6
	movq	-96(%rax), %r8
	movapd	%xmm6, %xmm7
	mulsd	%xmm4, %xmm7
	mulsd	%xmm6, %xmm7
	movsd	%xmm7, 0(%rbp)
	movq	-96(%rdi), %rbp
	movsd	(%r10), %xmm8
	movq	-88(%rax), %r10
	movapd	%xmm8, %xmm9
	mulsd	%xmm4, %xmm9
	mulsd	%xmm8, %xmm9
	movsd	%xmm9, 0(%r13)
	movq	-88(%rdi), %r13
	movsd	(%r14), %xmm10
	movq	-80(%rax), %r14
	addq	$64, %rax
	movapd	%xmm10, %xmm11
	mulsd	%xmm4, %xmm11
	mulsd	%xmm10, %xmm11
	movsd	%xmm11, (%r15)
	movq	-80(%rdi), %r15
	addq	$64, %rdi
	cmpl	%r11d, %r9d
	movsd	(%r8), %xmm12
	movapd	%xmm12, %xmm13
	mulsd	%xmm4, %xmm13
	mulsd	%xmm12, %xmm13
	movsd	%xmm13, 0(%rbp)
	movsd	(%r10), %xmm14
	movapd	%xmm14, %xmm15
	mulsd	%xmm4, %xmm15
	mulsd	%xmm14, %xmm15
	movsd	%xmm15, 0(%r13)
.LVL17:
	movsd	(%r14), %xmm1
	movapd	%xmm1, %xmm2
	mulsd	%xmm4, %xmm2
	mulsd	%xmm1, %xmm2
	movsd	%xmm2, (%r15)
	jne	.L148
.LVL18:
.L147:
	.loc 1 214 0
	movslq	%r9d, %rbp
	movl	%r9d, %eax
	leal	1(%r9), %r13d
	salq	$3, %rbp
	notl	%eax
	leaq	(%rsi,%rbp), %rdi
	addq	%r12, %rbp
	leal	(%rax,%rcx), %r11d
	.loc 1 230 0
	movq	0(%rbp), %r8
	movl	$1, %eax
	movq	(%rdi), %r10
	andl	$7, %r11d
	.loc 1 229 0
	cmpl	%r13d, %ecx
	.loc 1 230 0
	movsd	(%r8), %xmm3
	movapd	%xmm3, %xmm0
	mulsd	%xmm4, %xmm0
	mulsd	%xmm3, %xmm0
	movsd	%xmm0, (%r10)
	.loc 1 229 0
	jle	.L356
	testl	%r11d, %r11d
	je	.L150
	cmpl	$1, %r11d
	je	.L317
	cmpl	$2, %r11d
	je	.L318
	cmpl	$3, %r11d
	je	.L319
	cmpl	$4, %r11d
	je	.L320
	cmpl	$5, %r11d
	je	.L321
	cmpl	$6, %r11d
	je	.L322
	.loc 1 230 0
	movq	8(%rbp), %r14
	movq	8(%rdi), %r15
	movl	$2, %eax
	movsd	(%r14), %xmm5
	movapd	%xmm5, %xmm6
	mulsd	%xmm4, %xmm6
	mulsd	%xmm5, %xmm6
	movsd	%xmm6, (%r15)
.L322:
	movq	0(%rbp,%rax,8), %r11
	movq	(%rdi,%rax,8), %r8
	addq	$1, %rax
	movsd	(%r11), %xmm7
	movapd	%xmm7, %xmm8
	mulsd	%xmm4, %xmm8
	mulsd	%xmm7, %xmm8
	movsd	%xmm8, (%r8)
.L321:
	movq	0(%rbp,%rax,8), %r10
	movq	(%rdi,%rax,8), %r13
	addq	$1, %rax
	movsd	(%r10), %xmm9
	movapd	%xmm9, %xmm10
	mulsd	%xmm4, %xmm10
	mulsd	%xmm9, %xmm10
	movsd	%xmm10, 0(%r13)
.L320:
	movq	0(%rbp,%rax,8), %r14
	movq	(%rdi,%rax,8), %r15
	addq	$1, %rax
	movsd	(%r14), %xmm11
	movapd	%xmm11, %xmm12
	mulsd	%xmm4, %xmm12
	mulsd	%xmm11, %xmm12
	movsd	%xmm12, (%r15)
.L319:
	movq	0(%rbp,%rax,8), %r11
	movq	(%rdi,%rax,8), %r8
	addq	$1, %rax
	movsd	(%r11), %xmm13
	movapd	%xmm13, %xmm14
	mulsd	%xmm4, %xmm14
	mulsd	%xmm13, %xmm14
	movsd	%xmm14, (%r8)
.L318:
	movq	0(%rbp,%rax,8), %r10
	movq	(%rdi,%rax,8), %r13
	addq	$1, %rax
	movsd	(%r10), %xmm15
	movapd	%xmm15, %xmm1
	mulsd	%xmm4, %xmm1
	mulsd	%xmm15, %xmm1
	movsd	%xmm1, 0(%r13)
.L317:
	movq	0(%rbp,%rax,8), %r14
	movq	(%rdi,%rax,8), %r15
	addq	$1, %rax
	.loc 1 214 0
	leal	(%r9,%rax), %r11d
	.loc 1 230 0
	movsd	(%r14), %xmm2
	.loc 1 229 0
	cmpl	%r11d, %ecx
	.loc 1 230 0
	movapd	%xmm2, %xmm3
	mulsd	%xmm4, %xmm3
	mulsd	%xmm2, %xmm3
	movsd	%xmm3, (%r15)
	.loc 1 229 0
	jle	.L356
.L150:
	.loc 1 230 0
	movq	0(%rbp,%rax,8), %r8
	movq	(%rdi,%rax,8), %r10
	leaq	1(%rax), %r13
	movq	0(%rbp,%r13,8), %r14
	movq	(%rdi,%r13,8), %r15
	leaq	3(%rax), %r13
	movsd	(%r8), %xmm5
	leaq	2(%rax), %r8
	movapd	%xmm5, %xmm0
	movq	0(%rbp,%r8,8), %r11
	mulsd	%xmm4, %xmm0
	mulsd	%xmm5, %xmm0
	movsd	%xmm0, (%r10)
	movq	(%rdi,%r8,8), %r10
	leaq	4(%rax), %r8
	movsd	(%r14), %xmm6
	movq	0(%rbp,%r13,8), %r14
	movapd	%xmm6, %xmm7
	mulsd	%xmm4, %xmm7
	mulsd	%xmm6, %xmm7
	movsd	%xmm7, (%r15)
	movq	(%rdi,%r13,8), %r15
	leaq	5(%rax), %r13
	movsd	(%r11), %xmm8
	movq	0(%rbp,%r8,8), %r11
	movapd	%xmm8, %xmm9
	mulsd	%xmm4, %xmm9
	mulsd	%xmm8, %xmm9
	movsd	%xmm9, (%r10)
	movq	(%rdi,%r8,8), %r10
	leaq	6(%rax), %r8
	movsd	(%r14), %xmm10
	movq	0(%rbp,%r13,8), %r14
	movapd	%xmm10, %xmm11
	mulsd	%xmm4, %xmm11
	mulsd	%xmm10, %xmm11
	movsd	%xmm11, (%r15)
	movq	(%rdi,%r13,8), %r15
	leaq	7(%rax), %r13
	addq	$8, %rax
	movsd	(%r11), %xmm12
	movq	0(%rbp,%r8,8), %r11
	movapd	%xmm12, %xmm13
	mulsd	%xmm4, %xmm13
	mulsd	%xmm12, %xmm13
	movsd	%xmm13, (%r10)
	movq	(%rdi,%r8,8), %r10
	.loc 1 214 0
	leal	(%r9,%rax), %r8d
	.loc 1 230 0
	movsd	(%r14), %xmm14
	.loc 1 229 0
	cmpl	%r8d, %ecx
	.loc 1 230 0
	movq	0(%rbp,%r13,8), %r14
	movapd	%xmm14, %xmm15
	mulsd	%xmm4, %xmm15
	mulsd	%xmm14, %xmm15
	movsd	%xmm15, (%r15)
	movq	(%rdi,%r13,8), %r15
	movsd	(%r11), %xmm1
	movapd	%xmm1, %xmm2
	mulsd	%xmm4, %xmm2
	mulsd	%xmm1, %xmm2
	movsd	%xmm2, (%r10)
	movsd	(%r14), %xmm3
	movapd	%xmm3, %xmm5
	mulsd	%xmm4, %xmm5
	mulsd	%xmm3, %xmm5
	movsd	%xmm5, (%r15)
	.loc 1 229 0
	jg	.L150
.L356:
	xorpd	%xmm7, %xmm7
	leal	-1(%rdx), %r8d
	xorl	%ebp, %ebp
.LVL19:
	.p2align 4,,10
	.p2align 3
.L149:
	.loc 1 234 0 discriminator 1
	cmpl	$1, %r8d
	jle	.L162
	movq	(%rsi,%rbp,8), %r11
	movq	(%r12,%rbp,8), %rdi
	.loc 1 214 0
	movl	$1, %r10d
	leaq	8(%r11), %rax
.LVL20:
	.p2align 4,,10
	.p2align 3
.L160:
	cmpl	$8, %r10d
	.loc 1 236 0
	movq	$0, (%rax)
.LVL21:
	jle	.L172
	.loc 1 238 0
	movapd	%xmm7, %xmm6
	.loc 1 214 0
	leal	-9(%r10), %r9d
	leaq	200(%r11), %rdx
	.loc 1 237 0
	movl	$8, %r13d
	leaq	264(%r11), %r15
	.loc 1 238 0
	subsd	(%r11), %xmm6
	.loc 1 214 0
	shrl	$3, %r9d
	leal	8(,%r9,8), %r14d
	andl	$1, %r9d
	prefetcht0	(%rdx)
	cmpl	%r14d, %r13d
	.loc 1 238 0
	movsd	%xmm6, (%rax)
.LVL22:
	subsd	8(%r11), %xmm6
	movsd	%xmm6, (%rax)
	subsd	16(%r11), %xmm6
	movsd	%xmm6, (%rax)
	subsd	24(%r11), %xmm6
	movsd	%xmm6, (%rax)
	subsd	32(%r11), %xmm6
	movsd	%xmm6, (%rax)
	subsd	40(%r11), %xmm6
	movsd	%xmm6, (%rax)
	subsd	48(%r11), %xmm6
	movsd	%xmm6, (%rax)
	subsd	56(%r11), %xmm6
	movsd	%xmm6, (%rax)
	je	.L152
	testl	%r9d, %r9d
	je	.L153
	subsd	-200(%r15), %xmm6
	.loc 1 237 0
	movl	$16, %r13d
	prefetcht0	(%r15)
	cmpl	%r14d, %r13d
	.loc 1 238 0
	movsd	%xmm6, (%rax)
	subsd	-192(%r15), %xmm6
	movsd	%xmm6, (%rax)
	subsd	-184(%r15), %xmm6
	movsd	%xmm6, (%rax)
	subsd	-176(%r15), %xmm6
	movsd	%xmm6, (%rax)
	subsd	-168(%r15), %xmm6
	movsd	%xmm6, (%rax)
	subsd	-160(%r15), %xmm6
	movsd	%xmm6, (%rax)
	subsd	-152(%r15), %xmm6
	movsd	%xmm6, (%rax)
	subsd	-144(%r15), %xmm6
	leaq	328(%r11), %r15
	movsd	%xmm6, (%rax)
	je	.L152
.L153:
	.loc 1 238 0 is_stmt 0 discriminator 2
	subsd	-200(%r15), %xmm6
	leaq	64(%r15), %rdx
	.loc 1 237 0 is_stmt 1 discriminator 2
	addl	$16, %r13d
	prefetcht0	(%r15)
	prefetcht0	(%rdx)
	.loc 1 238 0 discriminator 2
	movsd	%xmm6, (%rax)
	subsd	-192(%r15), %xmm6
	movsd	%xmm6, (%rax)
	subsd	-184(%r15), %xmm6
	movsd	%xmm6, (%rax)
	subsd	-176(%r15), %xmm6
	movsd	%xmm6, (%rax)
	subsd	-168(%r15), %xmm6
	movsd	%xmm6, (%rax)
	subsd	-160(%r15), %xmm6
	movsd	%xmm6, (%rax)
	subsd	-152(%r15), %xmm6
	movsd	%xmm6, (%rax)
	subsd	-144(%r15), %xmm6
	movsd	%xmm6, (%rax)
	subsd	-136(%r15), %xmm6
	movsd	%xmm6, (%rax)
	subsd	-128(%r15), %xmm6
	movsd	%xmm6, (%rax)
	subsd	-120(%r15), %xmm6
	movsd	%xmm6, (%rax)
	subsd	-112(%r15), %xmm6
	movsd	%xmm6, (%rax)
	subsd	-104(%r15), %xmm6
	movsd	%xmm6, (%rax)
	subsd	-96(%r15), %xmm6
	movsd	%xmm6, (%rax)
	subsd	-88(%r15), %xmm6
	movsd	%xmm6, (%rax)
	subsd	-80(%r15), %xmm6
	subq	$-128, %r15
	cmpl	%r14d, %r13d
	movsd	%xmm6, (%rax)
	jne	.L153
.L152:
	.loc 1 214 0
	movslq	%r13d, %r9
	movl	%r13d, %r14d
	leaq	(%r11,%r9,8), %r15
	notl	%r14d
	.loc 1 237 0
	leal	1(%r13), %r9d
	addl	%r10d, %r14d
	.loc 1 238 0
	subsd	(%r15), %xmm6
	andl	$7, %r14d
	.loc 1 237 0
	cmpl	%r9d, %r10d
	leaq	8(%r15), %rdx
	.loc 1 238 0
	movsd	%xmm6, (%rax)
	.loc 1 237 0
	jle	.L357
	testl	%r14d, %r14d
	je	.L156
	cmpl	$1, %r14d
	je	.L311
	cmpl	$2, %r14d
	je	.L312
	cmpl	$3, %r14d
	je	.L313
	cmpl	$4, %r14d
	je	.L314
	cmpl	$5, %r14d
	je	.L315
	cmpl	$6, %r14d
	je	.L316
	.loc 1 238 0
	subsd	8(%r15), %xmm6
	.loc 1 237 0
	leal	2(%r13), %r9d
	leaq	16(%r15), %rdx
	.loc 1 238 0
	movsd	%xmm6, (%rax)
.L316:
	subsd	(%rdx), %xmm6
	.loc 1 237 0
	addl	$1, %r9d
	addq	$8, %rdx
	.loc 1 238 0
	movsd	%xmm6, (%rax)
.L315:
	subsd	(%rdx), %xmm6
	.loc 1 237 0
	addl	$1, %r9d
	addq	$8, %rdx
	.loc 1 238 0
	movsd	%xmm6, (%rax)
.L314:
	subsd	(%rdx), %xmm6
	.loc 1 237 0
	addl	$1, %r9d
	addq	$8, %rdx
	.loc 1 238 0
	movsd	%xmm6, (%rax)
.L313:
	subsd	(%rdx), %xmm6
	.loc 1 237 0
	addl	$1, %r9d
	addq	$8, %rdx
	.loc 1 238 0
	movsd	%xmm6, (%rax)
.L312:
	subsd	(%rdx), %xmm6
	.loc 1 237 0
	addl	$1, %r9d
	addq	$8, %rdx
	.loc 1 238 0
	movsd	%xmm6, (%rax)
.L311:
	subsd	(%rdx), %xmm6
	.loc 1 237 0
	addl	$1, %r9d
	addq	$8, %rdx
	cmpl	%r9d, %r10d
	.loc 1 238 0
	movsd	%xmm6, (%rax)
	.loc 1 237 0
	jle	.L357
.L156:
	.loc 1 238 0
	subsd	(%rdx), %xmm6
	.loc 1 237 0
	addl	$8, %r9d
	.loc 1 238 0
	movsd	%xmm6, (%rax)
	subsd	8(%rdx), %xmm6
	movsd	%xmm6, (%rax)
	subsd	16(%rdx), %xmm6
	movsd	%xmm6, (%rax)
	subsd	24(%rdx), %xmm6
	movsd	%xmm6, (%rax)
	subsd	32(%rdx), %xmm6
	movsd	%xmm6, (%rax)
	subsd	40(%rdx), %xmm6
	movsd	%xmm6, (%rax)
	subsd	48(%rdx), %xmm6
	movsd	%xmm6, (%rax)
	subsd	56(%rdx), %xmm6
	addq	$64, %rdx
	.loc 1 237 0
	cmpl	%r9d, %r10d
	.loc 1 238 0
	movsd	%xmm6, (%rax)
	.loc 1 237 0
	jg	.L156
.L357:
	xorl	%r13d, %r13d
	cmpl	$7, %r10d
	movapd	%xmm7, %xmm0
	jle	.L155
	.loc 1 241 0
	movsd	(%rdi), %xmm0
	.loc 1 214 0
	leal	-8(%r10), %r15d
	leaq	232(%rdi), %r13
	leaq	296(%rdi), %rdx
	.loc 1 241 0
	addsd	%xmm7, %xmm0
.LVL23:
	.loc 1 214 0
	shrl	$3, %r15d
	leal	8(,%r15,8), %r14d
	prefetcht0	0(%r13)
	.loc 1 240 0
	movl	$8, %r13d
	andl	$3, %r15d
	cmpl	%r14d, %r13d
	.loc 1 241 0
	addsd	8(%rdi), %xmm0
.LVL24:
	addsd	16(%rdi), %xmm0
.LVL25:
	addsd	24(%rdi), %xmm0
.LVL26:
	addsd	32(%rdi), %xmm0
.LVL27:
	addsd	40(%rdi), %xmm0
.LVL28:
	addsd	48(%rdi), %xmm0
.LVL29:
	addsd	56(%rdi), %xmm0
.LVL30:
	je	.L155
	testl	%r15d, %r15d
	je	.L158
	cmpl	$1, %r15d
	je	.L309
	cmpl	$2, %r15d
	je	.L310
	addsd	-232(%rdx), %xmm0
.LVL31:
	prefetcht0	(%rdx)
	.loc 1 240 0
	movl	$16, %r13d
	.loc 1 241 0
	addsd	-224(%rdx), %xmm0
	addsd	-216(%rdx), %xmm0
	addsd	-208(%rdx), %xmm0
	addsd	-200(%rdx), %xmm0
	addsd	-192(%rdx), %xmm0
	addsd	-184(%rdx), %xmm0
	addsd	-176(%rdx), %xmm0
.LVL32:
	leaq	360(%rdi), %rdx
.L310:
	addsd	-232(%rdx), %xmm0
.LVL33:
	prefetcht0	(%rdx)
	.loc 1 240 0
	addl	$8, %r13d
.LVL34:
	.loc 1 241 0
	addsd	-224(%rdx), %xmm0
.LVL35:
	addsd	-216(%rdx), %xmm0
.LVL36:
	addsd	-208(%rdx), %xmm0
.LVL37:
	addsd	-200(%rdx), %xmm0
.LVL38:
	addsd	-192(%rdx), %xmm0
.LVL39:
	addsd	-184(%rdx), %xmm0
.LVL40:
	addsd	-176(%rdx), %xmm0
.LVL41:
	addq	$64, %rdx
.L309:
	addsd	-232(%rdx), %xmm0
.LVL42:
	.loc 1 240 0
	addl	$8, %r13d
.LVL43:
	prefetcht0	(%rdx)
	.loc 1 241 0
	addsd	-224(%rdx), %xmm0
.LVL44:
	addsd	-216(%rdx), %xmm0
.LVL45:
	addsd	-208(%rdx), %xmm0
.LVL46:
	addsd	-200(%rdx), %xmm0
.LVL47:
	addsd	-192(%rdx), %xmm0
.LVL48:
	addsd	-184(%rdx), %xmm0
.LVL49:
	addsd	-176(%rdx), %xmm0
.LVL50:
	addq	$64, %rdx
	cmpl	%r14d, %r13d
	je	.L155
.L158:
	.loc 1 241 0 is_stmt 0 discriminator 2
	addsd	-232(%rdx), %xmm0
.LVL51:
	leaq	64(%rdx), %r9
	leaq	128(%rdx), %r15
	.loc 1 240 0 is_stmt 1 discriminator 2
	addl	$32, %r13d
.LVL52:
	prefetcht0	(%rdx)
.LVL53:
	prefetcht0	(%r9)
	leaq	192(%rdx), %r9
	prefetcht0	(%r15)
	prefetcht0	(%r9)
	.loc 1 241 0 discriminator 2
	addsd	-224(%rdx), %xmm0
	addsd	-216(%rdx), %xmm0
	addsd	-208(%rdx), %xmm0
	addsd	-200(%rdx), %xmm0
	addsd	-192(%rdx), %xmm0
	addsd	-184(%rdx), %xmm0
	addsd	-176(%rdx), %xmm0
	addsd	-168(%rdx), %xmm0
	addsd	-160(%rdx), %xmm0
	addsd	-152(%rdx), %xmm0
	addsd	-144(%rdx), %xmm0
	addsd	-136(%rdx), %xmm0
	addsd	-128(%rdx), %xmm0
	addsd	-120(%rdx), %xmm0
	addsd	-112(%rdx), %xmm0
	addsd	-104(%rdx), %xmm0
	addsd	-96(%rdx), %xmm0
	addsd	-88(%rdx), %xmm0
	addsd	-80(%rdx), %xmm0
	addsd	-72(%rdx), %xmm0
	addsd	-64(%rdx), %xmm0
	addsd	-56(%rdx), %xmm0
	addsd	-48(%rdx), %xmm0
	addsd	-40(%rdx), %xmm0
	addsd	-32(%rdx), %xmm0
	addsd	-24(%rdx), %xmm0
	addsd	-16(%rdx), %xmm0
	addsd	-8(%rdx), %xmm0
	addsd	(%rdx), %xmm0
	addsd	8(%rdx), %xmm0
	addsd	16(%rdx), %xmm0
.LVL54:
	addq	$256, %rdx
	cmpl	%r14d, %r13d
	jne	.L158
.LVL55:
.L155:
	.loc 1 214 0
	movslq	%r13d, %r14
	.loc 1 240 0
	leal	1(%r13), %r9d
	.loc 1 214 0
	leaq	(%rdi,%r14,8), %r15
	movl	%r10d, %r14d
	subl	%r13d, %r14d
	andl	$7, %r14d
	.loc 1 240 0
	cmpl	%r9d, %r10d
	.loc 1 241 0
	addsd	(%r15), %xmm0
.LVL56:
	leaq	8(%r15), %rdx
	.loc 1 240 0
	jl	.L358
	testl	%r14d, %r14d
	je	.L159
	cmpl	$1, %r14d
	je	.L303
	cmpl	$2, %r14d
	je	.L304
	cmpl	$3, %r14d
	je	.L305
	cmpl	$4, %r14d
	je	.L306
	cmpl	$5, %r14d
	je	.L307
	cmpl	$6, %r14d
	je	.L308
	.loc 1 241 0
	addsd	8(%r15), %xmm0
	.loc 1 240 0
	leal	2(%r13), %r9d
	leaq	16(%r15), %rdx
.LVL57:
.L308:
	.loc 1 241 0
	addsd	(%rdx), %xmm0
	.loc 1 240 0
	addl	$1, %r9d
	addq	$8, %rdx
.L307:
	.loc 1 241 0
	addsd	(%rdx), %xmm0
	.loc 1 240 0
	addl	$1, %r9d
	addq	$8, %rdx
.L306:
	.loc 1 241 0
	addsd	(%rdx), %xmm0
	.loc 1 240 0
	addl	$1, %r9d
	addq	$8, %rdx
.L305:
	.loc 1 241 0
	addsd	(%rdx), %xmm0
	.loc 1 240 0
	addl	$1, %r9d
	addq	$8, %rdx
.L304:
	.loc 1 241 0
	addsd	(%rdx), %xmm0
	.loc 1 240 0
	addl	$1, %r9d
	addq	$8, %rdx
.L303:
	addl	$1, %r9d
	.loc 1 241 0
	addsd	(%rdx), %xmm0
	addq	$8, %rdx
	.loc 1 240 0
	cmpl	%r9d, %r10d
	jl	.L358
.L159:
	.loc 1 241 0
	addsd	(%rdx), %xmm0
	.loc 1 240 0
	addl	$8, %r9d
	.loc 1 241 0
	addsd	8(%rdx), %xmm0
	addsd	16(%rdx), %xmm0
	addsd	24(%rdx), %xmm0
	addsd	32(%rdx), %xmm0
	addsd	40(%rdx), %xmm0
	addsd	48(%rdx), %xmm0
	addsd	56(%rdx), %xmm0
	addq	$64, %rdx
	.loc 1 240 0
	cmpl	%r9d, %r10d
	jge	.L159
.L358:
	.loc 1 242 0
	movapd	%xmm4, %xmm8
	.loc 1 234 0
	addl	$1, %r10d
.LVL58:
	.loc 1 242 0
	mulsd	%xmm0, %xmm8
	mulsd	%xmm0, %xmm8
	addsd	%xmm6, %xmm8
	movsd	%xmm8, (%rax)
	addq	$8, %rax
	.loc 1 234 0
	cmpl	%r8d, %r10d
	jne	.L160
.LVL59:
.L162:
	addq	$1, %rbp
	.loc 1 233 0
	cmpl	%ebp, %ecx
	jg	.L149
.LVL60:
.L161:
	.loc 1 246 0 discriminator 1
	testl	%r8d, %r8d
	jle	.L359
	.loc 1 214 0
	subl	$1, %r8d
	xorpd	%xmm10, %xmm10
	leaq	8(%rbx,%r8,8), %rbp
	leal	-9(%rcx), %r8d
	movq	%rbx, %rax
	shrl	$3, %r8d
	leal	8(,%r8,8), %r11d
.LVL61:
	.p2align 4,,10
	.p2align 3
.L165:
	movq	%rax, %rdx
	.loc 1 248 0
	movq	$0, (%rax)
.LVL62:
	.loc 1 214 0
	subq	%rbx, %rdx
	.loc 1 249 0
	testl	%ecx, %ecx
	jle	.L170
	cmpl	$8, %ecx
	jle	.L173
	.loc 1 250 0
	movq	(%rsi), %rdi
	movq	8(%rsi), %r15
	.loc 1 214 0
	leaq	160(%rsi), %r10
	.loc 1 250 0
	movq	16(%rsi), %r14
	movq	24(%rsi), %r9
	leal	-8(%r11), %r13d
	movq	32(%rsi), %r12
	movq	40(%rsi), %r8
	prefetcht0	(%r10)
	movsd	(%rdi,%rdx), %xmm9
	movq	48(%rsi), %r10
	shrl	$3, %r13d
	movq	56(%rsi), %rdi
	andl	$1, %r13d
	addsd	%xmm10, %xmm9
	movsd	%xmm9, (%rax)
.LVL63:
	addsd	(%r15,%rdx), %xmm9
	.loc 1 249 0
	movl	$8, %r15d
	cmpl	%r11d, %r15d
	.loc 1 250 0
	movsd	%xmm9, (%rax)
	addsd	(%r14,%rdx), %xmm9
	movsd	%xmm9, (%rax)
	addsd	(%r9,%rdx), %xmm9
	movsd	%xmm9, (%rax)
	addsd	(%r12,%rdx), %xmm9
	movsd	%xmm9, (%rax)
	addsd	(%r8,%rdx), %xmm9
	movsd	%xmm9, (%rax)
	addsd	(%r10,%rdx), %xmm9
	movsd	%xmm9, (%rax)
	addsd	(%rdi,%rdx), %xmm9
	leaq	224(%rsi), %rdi
	movsd	%xmm9, (%rax)
	je	.L167
	testl	%r13d, %r13d
	je	.L168
	movq	-160(%rdi), %r13
	movq	-152(%rdi), %r15
	prefetcht0	(%rdi)
	movq	-144(%rdi), %r14
	movq	-136(%rdi), %r9
	movq	-128(%rdi), %r12
	movq	-120(%rdi), %r8
	addsd	0(%r13,%rdx), %xmm9
	movq	-112(%rdi), %r10
	movq	-104(%rdi), %rdi
	movsd	%xmm9, (%rax)
	addsd	(%r15,%rdx), %xmm9
	.loc 1 249 0
	movl	$16, %r15d
	cmpl	%r11d, %r15d
	.loc 1 250 0
	movsd	%xmm9, (%rax)
	addsd	(%r14,%rdx), %xmm9
	movsd	%xmm9, (%rax)
	addsd	(%r9,%rdx), %xmm9
	movsd	%xmm9, (%rax)
	addsd	(%r12,%rdx), %xmm9
	movsd	%xmm9, (%rax)
	addsd	(%r8,%rdx), %xmm9
	movsd	%xmm9, (%rax)
	addsd	(%r10,%rdx), %xmm9
	movsd	%xmm9, (%rax)
	addsd	(%rdi,%rdx), %xmm9
	leaq	288(%rsi), %rdi
	movsd	%xmm9, (%rax)
	je	.L167
.L168:
	.loc 1 250 0 is_stmt 0 discriminator 2
	movq	-160(%rdi), %r13
	movq	-152(%rdi), %r14
	.loc 1 249 0 is_stmt 1 discriminator 2
	addl	$16, %r15d
	.loc 1 250 0 discriminator 2
	movq	-144(%rdi), %r9
	movq	-136(%rdi), %r12
	prefetcht0	(%rdi)
	movq	-128(%rdi), %r8
	movq	-120(%rdi), %r10
	addsd	0(%r13,%rdx), %xmm9
	movq	-112(%rdi), %r13
	movsd	%xmm9, (%rax)
	addsd	(%r14,%rdx), %xmm9
	movq	-104(%rdi), %r14
	movsd	%xmm9, (%rax)
	addsd	(%r9,%rdx), %xmm9
	leaq	64(%rdi), %r9
	prefetcht0	(%r9)
	movsd	%xmm9, (%rax)
	addsd	(%r12,%rdx), %xmm9
	movq	-96(%rdi), %r12
	movsd	%xmm9, (%rax)
	addsd	(%r8,%rdx), %xmm9
	movq	-88(%rdi), %r8
	movsd	%xmm9, (%rax)
	addsd	(%r10,%rdx), %xmm9
	movq	-80(%rdi), %r10
	movsd	%xmm9, (%rax)
	addsd	0(%r13,%rdx), %xmm9
	movq	-72(%rdi), %r13
	movsd	%xmm9, (%rax)
	addsd	(%r14,%rdx), %xmm9
	movsd	%xmm9, (%rax)
	addsd	(%r12,%rdx), %xmm9
	movsd	%xmm9, (%rax)
	addsd	(%r8,%rdx), %xmm9
	movsd	%xmm9, (%rax)
	addsd	(%r10,%rdx), %xmm9
	movsd	%xmm9, (%rax)
	addsd	0(%r13,%rdx), %xmm9
	movsd	%xmm9, (%rax)
	movq	-64(%rdi), %r14
	movq	-56(%rdi), %r9
	movq	-48(%rdi), %r12
	movq	-40(%rdi), %r8
	subq	$-128, %rdi
	cmpl	%r11d, %r15d
	addsd	(%r14,%rdx), %xmm9
	movsd	%xmm9, (%rax)
	addsd	(%r9,%rdx), %xmm9
	movsd	%xmm9, (%rax)
	addsd	(%r12,%rdx), %xmm9
	movsd	%xmm9, (%rax)
	addsd	(%r8,%rdx), %xmm9
	movsd	%xmm9, (%rax)
	jne	.L168
.L167:
	.loc 1 214 0
	movslq	%r15d, %rdi
	movl	%r15d, %r10d
	.loc 1 249 0
	leal	1(%r15), %r12d
	.loc 1 214 0
	leaq	(%rsi,%rdi,8), %r13
	notl	%r10d
	addl	%ecx, %r10d
	.loc 1 250 0
	movq	0(%r13), %r14
	andl	$7, %r10d
	.loc 1 249 0
	cmpl	%ecx, %r12d
	leaq	8(%r13), %r8
	.loc 1 250 0
	addsd	(%r14,%rdx), %xmm9
	movsd	%xmm9, (%rax)
	.loc 1 249 0
	jge	.L170
	testl	%r10d, %r10d
	je	.L169
	cmpl	$1, %r10d
	je	.L297
	cmpl	$2, %r10d
	je	.L298
	cmpl	$3, %r10d
	je	.L299
	cmpl	$4, %r10d
	je	.L300
	cmpl	$5, %r10d
	je	.L301
	cmpl	$6, %r10d
	je	.L302
	.loc 1 250 0
	movq	8(%r13), %r9
	.loc 1 249 0
	leal	2(%r15), %r12d
	leaq	16(%r13), %r8
	.loc 1 250 0
	addsd	(%r9,%rdx), %xmm9
	movsd	%xmm9, (%rax)
.L302:
	movq	(%r8), %r15
	.loc 1 249 0
	addl	$1, %r12d
	addq	$8, %r8
	.loc 1 250 0
	addsd	(%r15,%rdx), %xmm9
	movsd	%xmm9, (%rax)
.L301:
	movq	(%r8), %rdi
	.loc 1 249 0
	addl	$1, %r12d
	addq	$8, %r8
	.loc 1 250 0
	addsd	(%rdi,%rdx), %xmm9
	movsd	%xmm9, (%rax)
.L300:
	movq	(%r8), %r13
	.loc 1 249 0
	addl	$1, %r12d
	addq	$8, %r8
	.loc 1 250 0
	addsd	0(%r13,%rdx), %xmm9
	movsd	%xmm9, (%rax)
.L299:
	movq	(%r8), %r10
	.loc 1 249 0
	addl	$1, %r12d
	addq	$8, %r8
	.loc 1 250 0
	addsd	(%r10,%rdx), %xmm9
	movsd	%xmm9, (%rax)
.L298:
	movq	(%r8), %r14
	.loc 1 249 0
	addl	$1, %r12d
	addq	$8, %r8
	.loc 1 250 0
	addsd	(%r14,%rdx), %xmm9
	movsd	%xmm9, (%rax)
.L297:
	movq	(%r8), %r9
	.loc 1 249 0
	addl	$1, %r12d
	addq	$8, %r8
	cmpl	%ecx, %r12d
	.loc 1 250 0
	addsd	(%r9,%rdx), %xmm9
	movsd	%xmm9, (%rax)
	.loc 1 249 0
	jge	.L170
.L169:
	.loc 1 250 0
	movq	(%r8), %r15
	movq	8(%r8), %rdi
	.loc 1 249 0
	addl	$8, %r12d
	.loc 1 250 0
	movq	16(%r8), %r13
	movq	24(%r8), %r10
	movq	32(%r8), %r14
	movq	40(%r8), %r9
	addsd	(%r15,%rdx), %xmm9
	movq	48(%r8), %r15
	movsd	%xmm9, (%rax)
	addsd	(%rdi,%rdx), %xmm9
	movq	56(%r8), %rdi
	addq	$64, %r8
	.loc 1 249 0
	cmpl	%ecx, %r12d
	.loc 1 250 0
	movsd	%xmm9, (%rax)
	addsd	0(%r13,%rdx), %xmm9
	movsd	%xmm9, (%rax)
	addsd	(%r10,%rdx), %xmm9
	movsd	%xmm9, (%rax)
	addsd	(%r14,%rdx), %xmm9
	movsd	%xmm9, (%rax)
	addsd	(%r9,%rdx), %xmm9
	movsd	%xmm9, (%rax)
	addsd	(%r15,%rdx), %xmm9
	movsd	%xmm9, (%rax)
	addsd	(%rdi,%rdx), %xmm9
	movsd	%xmm9, (%rax)
	.loc 1 249 0
	jl	.L169
.L170:
	addq	$8, %rax
	.loc 1 246 0
	cmpq	%rbp, %rax
	jne	.L165
.L359:
.LBE92:
	.loc 1 255 0
	popq	%rbx
.LCFI37:
	.cfi_remember_state
	.cfi_def_cfa_offset 48
.LVL64:
	popq	%rbp
.LCFI38:
	.cfi_def_cfa_offset 40
	popq	%r12
.LCFI39:
	.cfi_def_cfa_offset 32
	popq	%r13
.LCFI40:
	.cfi_def_cfa_offset 24
	popq	%r14
.LCFI41:
	.cfi_def_cfa_offset 16
	movl	$1, %eax
	popq	%r15
.LCFI42:
	.cfi_def_cfa_offset 8
	ret
.LVL65:
	.p2align 4,,10
	.p2align 3
.L172:
.LCFI43:
	.cfi_restore_state
.LBB93:
	.loc 1 236 0
	movapd	%xmm7, %xmm6
	xorl	%r13d, %r13d
	jmp	.L152
.LVL66:
.L173:
	.loc 1 249 0
	movapd	%xmm10, %xmm9
	xorl	%r15d, %r15d
	jmp	.L167
.LVL67:
.L146:
	leal	-1(%rdx), %r8d
.LVL68:
	jmp	.L161
.LVL69:
.L171:
	.loc 1 229 0
	xorl	%r9d, %r9d
	jmp	.L147
.LBE93:
	.cfi_endproc
.LFE80:
	.size	_Z10HJM_DriftsPdPS_iidS0_, .-_Z10HJM_DriftsPdPS_iidS0_
	.p2align 4,,15
	.globl	_Z20HJM_Forward_to_YieldPdiS_
	.type	_Z20HJM_Forward_to_YieldPdiS_, @function
_Z20HJM_Forward_to_YieldPdiS_:
.LFB83:
	.loc 1 363 0
	.cfi_startproc
.LVL70:
.LBB94:
	.loc 1 370 0
	movsd	(%rdx), %xmm0
	.loc 1 371 0
	cmpl	$1, %esi
	.loc 1 370 0
	movsd	%xmm0, (%rdi)
.LVL71:
	.loc 1 371 0
	jle	.L406
	cmpl	$9, %esi
	jle	.L367
.LBE94:
	movl	$1, %ecx
.LBB95:
	.loc 1 360 0
	leal	-10(%rsi), %r11d
	movq	%rdi, %rax
	cvtsi2sd	%ecx, %xmm8
	movq	%rdx, %r8
	andl	$-8, %r11d
	addl	$9, %r11d
.LVL72:
	.p2align 4,,10
	.p2align 3
.L364:
	.loc 1 360 0 is_stmt 0 discriminator 2
	leal	1(%rcx), %r10d
	.loc 1 372 0 is_stmt 1 discriminator 2
	mulsd	(%rax), %xmm8
	.loc 1 360 0 discriminator 2
	leaq	64(%rax), %r9
	prefetcht0	72(%r8)
	prefetcht0	72(%rax)
	.loc 1 372 0 discriminator 2
	cvtsi2sd	%r10d, %xmm1
	.loc 1 360 0 discriminator 2
	leal	2(%rcx), %r10d
	prefetcht0	(%r9)
	.loc 1 372 0 discriminator 2
	cvtsi2sd	%r10d, %xmm2
	.loc 1 360 0 discriminator 2
	leal	3(%rcx), %r10d
	.loc 1 372 0 discriminator 2
	addsd	8(%r8), %xmm8
	cvtsi2sd	%r10d, %xmm4
	.loc 1 360 0 discriminator 2
	leal	4(%rcx), %r10d
	.loc 1 372 0 discriminator 2
	cvtsi2sd	%r10d, %xmm5
	.loc 1 360 0 discriminator 2
	leal	5(%rcx), %r10d
	.loc 1 372 0 discriminator 2
	cvtsi2sd	%r10d, %xmm3
	.loc 1 360 0 discriminator 2
	leal	6(%rcx), %r10d
	.loc 1 372 0 discriminator 2
	divsd	%xmm1, %xmm8
	cvtsi2sd	%r10d, %xmm6
	.loc 1 360 0 discriminator 2
	leal	7(%rcx), %r10d
	.loc 1 372 0 discriminator 2
	addl	$8, %ecx
	cvtsi2sd	%r10d, %xmm7
	movsd	%xmm8, 8(%rax)
.LVL73:
	mulsd	%xmm1, %xmm8
	addsd	16(%r8), %xmm8
	divsd	%xmm2, %xmm8
	mulsd	%xmm8, %xmm2
	movsd	%xmm8, 16(%rax)
.LVL74:
	cvtsi2sd	%ecx, %xmm8
	addsd	24(%r8), %xmm2
	divsd	%xmm4, %xmm2
	movsd	%xmm2, 24(%rax)
	mulsd	%xmm4, %xmm2
	addsd	32(%r8), %xmm2
	divsd	%xmm5, %xmm2
	mulsd	%xmm2, %xmm5
	movsd	%xmm2, 32(%rax)
	addsd	40(%r8), %xmm5
	divsd	%xmm3, %xmm5
	movsd	%xmm5, 40(%rax)
	mulsd	%xmm3, %xmm5
	addsd	48(%r8), %xmm5
	divsd	%xmm6, %xmm5
	mulsd	%xmm5, %xmm6
	movsd	%xmm5, 48(%rax)
	addsd	56(%r8), %xmm6
	divsd	%xmm7, %xmm6
	movsd	%xmm6, 56(%rax)
	mulsd	%xmm7, %xmm6
	addsd	64(%r8), %xmm6
	addq	$64, %r8
	cmpl	%r11d, %ecx
	divsd	%xmm8, %xmm6
	movsd	%xmm6, 64(%rax)
.LVL75:
	movq	%r9, %rax
	jne	.L364
.LVL76:
.L363:
	.loc 1 360 0
	movslq	%ecx, %r8
	movl	%ecx, %r10d
	leaq	-8(%rdi,%r8,8), %r11
	leaq	(%rdx,%r8,8), %r9
	.loc 1 372 0
	leal	1(%rcx), %edx
.LVL77:
	notl	%r10d
	mulsd	(%r11), %xmm8
	cvtsi2sd	%edx, %xmm0
	addl	%esi, %r10d
	leaq	8(%r11), %rax
	leaq	8(%r9), %rdi
.LVL78:
	andl	$7, %r10d
	.loc 1 371 0
	cmpl	%edx, %esi
	.loc 1 372 0
	addsd	(%r9), %xmm8
	divsd	%xmm0, %xmm8
	movsd	%xmm8, 8(%r11)
.LVL79:
	.loc 1 371 0
	jle	.L406
	testl	%r10d, %r10d
	je	.L365
	cmpl	$1, %r10d
	je	.L393
	cmpl	$2, %r10d
	je	.L394
	cmpl	$3, %r10d
	je	.L395
	cmpl	$4, %r10d
	je	.L396
	cmpl	$5, %r10d
	je	.L397
	cmpl	$6, %r10d
	je	.L398
	.loc 1 372 0
	movsd	(%rax), %xmm9
	leal	2(%rcx), %edx
	mulsd	%xmm0, %xmm9
	cvtsi2sd	%edx, %xmm0
	addsd	(%rdi), %xmm9
	leaq	16(%r9), %rdi
	divsd	%xmm0, %xmm9
	movsd	%xmm9, 8(%rax)
	leaq	16(%r11), %rax
.LVL80:
.L398:
	movsd	(%rax), %xmm10
	addl	$1, %edx
	mulsd	%xmm0, %xmm10
	cvtsi2sd	%edx, %xmm0
	addsd	(%rdi), %xmm10
	addq	$8, %rdi
	divsd	%xmm0, %xmm10
	movsd	%xmm10, 8(%rax)
	addq	$8, %rax
.L397:
	movsd	(%rax), %xmm11
	addl	$1, %edx
	mulsd	%xmm0, %xmm11
	cvtsi2sd	%edx, %xmm0
	addsd	(%rdi), %xmm11
	addq	$8, %rdi
	divsd	%xmm0, %xmm11
	movsd	%xmm11, 8(%rax)
	addq	$8, %rax
.L396:
	movsd	(%rax), %xmm12
	addl	$1, %edx
	mulsd	%xmm0, %xmm12
	cvtsi2sd	%edx, %xmm0
	addsd	(%rdi), %xmm12
	addq	$8, %rdi
	divsd	%xmm0, %xmm12
	movsd	%xmm12, 8(%rax)
	addq	$8, %rax
.L395:
	movsd	(%rax), %xmm13
	addl	$1, %edx
	mulsd	%xmm0, %xmm13
	cvtsi2sd	%edx, %xmm0
	addsd	(%rdi), %xmm13
	addq	$8, %rdi
	divsd	%xmm0, %xmm13
	movsd	%xmm13, 8(%rax)
	addq	$8, %rax
.L394:
	movsd	(%rax), %xmm14
	addl	$1, %edx
	mulsd	%xmm0, %xmm14
	cvtsi2sd	%edx, %xmm0
	addsd	(%rdi), %xmm14
	addq	$8, %rdi
	divsd	%xmm0, %xmm14
	movsd	%xmm14, 8(%rax)
	addq	$8, %rax
.L393:
	movsd	(%rax), %xmm15
	addl	$1, %edx
	mulsd	%xmm0, %xmm15
	cvtsi2sd	%edx, %xmm0
	addsd	(%rdi), %xmm15
	addq	$8, %rdi
	divsd	%xmm0, %xmm15
	movsd	%xmm15, 8(%rax)
	addq	$8, %rax
	.loc 1 371 0
	cmpl	%edx, %esi
	jle	.L406
.L365:
	.loc 1 372 0
	leal	1(%rdx), %ecx
	mulsd	(%rax), %xmm0
	leal	2(%rdx), %r8d
	leal	3(%rdx), %r11d
	leal	4(%rdx), %r9d
	leal	5(%rdx), %r10d
	cvtsi2sd	%ecx, %xmm1
	leal	6(%rdx), %ecx
	cvtsi2sd	%r8d, %xmm2
	leal	7(%rdx), %r8d
	cvtsi2sd	%r11d, %xmm4
	addl	$8, %edx
	cvtsi2sd	%r9d, %xmm5
	addsd	(%rdi), %xmm0
	cvtsi2sd	%r10d, %xmm3
	cvtsi2sd	%ecx, %xmm6
	cvtsi2sd	%r8d, %xmm7
	divsd	%xmm1, %xmm0
	movsd	%xmm0, 8(%rax)
	mulsd	%xmm1, %xmm0
	addsd	8(%rdi), %xmm0
	divsd	%xmm2, %xmm0
	movsd	%xmm0, 16(%rax)
	mulsd	%xmm2, %xmm0
	addsd	16(%rdi), %xmm0
	divsd	%xmm4, %xmm0
	movsd	%xmm0, 24(%rax)
	mulsd	%xmm4, %xmm0
	addsd	24(%rdi), %xmm0
	divsd	%xmm5, %xmm0
	movsd	%xmm0, 32(%rax)
	mulsd	%xmm5, %xmm0
	addsd	32(%rdi), %xmm0
	divsd	%xmm3, %xmm0
	movsd	%xmm0, 40(%rax)
	mulsd	%xmm3, %xmm0
	addsd	40(%rdi), %xmm0
	divsd	%xmm6, %xmm0
	movsd	%xmm0, 48(%rax)
	mulsd	%xmm6, %xmm0
	addsd	48(%rdi), %xmm0
	divsd	%xmm7, %xmm0
	movsd	%xmm0, 56(%rax)
	mulsd	%xmm0, %xmm7
	cvtsi2sd	%edx, %xmm0
	addsd	56(%rdi), %xmm7
	addq	$64, %rdi
	divsd	%xmm0, %xmm7
	movsd	%xmm7, 64(%rax)
	addq	$64, %rax
	.loc 1 371 0
	cmpl	%edx, %esi
	jg	.L365
.L406:
.LBE95:
	.loc 1 376 0
	movl	$1, %eax
	ret
.LVL81:
	.p2align 4,,10
	.p2align 3
.L367:
.LBB96:
	.loc 1 371 0
	movl	$1, %ecx
	cvtsi2sd	%ecx, %xmm8
	jmp	.L363
.LBE96:
	.cfi_endproc
.LFE83:
	.size	_Z20HJM_Forward_to_YieldPdiS_, .-_Z20HJM_Forward_to_YieldPdiS_
	.p2align 4,,15
	.globl	_Z16Discount_FactorsPdidS_
	.type	_Z16Discount_FactorsPdidS_, @function
_Z16Discount_FactorsPdidS_:
.LFB84:
	.loc 1 382 0
	.cfi_startproc
.LVL82:
	pushq	%r15
.LCFI44:
	.cfi_def_cfa_offset 16
	.cfi_offset 15, -16
	pushq	%r14
.LCFI45:
	.cfi_def_cfa_offset 24
	.cfi_offset 14, -24
	pushq	%r13
.LCFI46:
	.cfi_def_cfa_offset 32
	.cfi_offset 13, -32
	pushq	%r12
.LCFI47:
	.cfi_def_cfa_offset 40
	.cfi_offset 12, -40
	pushq	%rbp
.LCFI48:
	.cfi_def_cfa_offset 48
	.cfi_offset 6, -48
	pushq	%rbx
.LCFI49:
	.cfi_def_cfa_offset 56
	.cfi_offset 3, -56
	subq	$40, %rsp
.LCFI50:
	.cfi_def_cfa_offset 96
.LBB97:
	.loc 1 390 0
	testl	%esi, %esi
.LBE97:
	.loc 1 382 0
	movsd	%xmm0, 8(%rsp)
	movl	%esi, 20(%rsp)
	movq	%rdx, 24(%rsp)
.LBB98:
	.loc 1 387 0
	cvtsi2sd	%esi, %xmm0
.LVL83:
	movsd	8(%rsp), %xmm1
	divsd	%xmm0, %xmm1
	movsd	%xmm1, 8(%rsp)
.LVL84:
	.loc 1 390 0
	jle	.L408
	.loc 1 378 0
	movq	%rdi, %rax
	salq	$60, %rax
	shrq	$63, %rax
	cmpl	%eax, %esi
	cmovb	%esi, %eax
.LBE98:
	cmpl	$6, %esi
	cmova	%eax, %esi
.LVL85:
	testl	%esi, %esi
	je	.L431
	cmpl	$8, %esi
	jbe	.L432
.LBB99:
	leal	-9(%rsi), %edx
.LVL86:
	leaq	232(%rdi), %rcx
	.loc 1 391 0
	movabsq	$4607182418800017408, %r9
	movabsq	$4607182418800017408, %r12
	movabsq	$4607182418800017408, %r13
	movabsq	$4607182418800017408, %r14
	.loc 1 378 0
	shrl	$3, %edx
	.loc 1 391 0
	movabsq	$4607182418800017408, %r15
	movabsq	$4607182418800017408, %rbx
	.loc 1 378 0
	leaq	1(%rdx), %r10
	movl	$64, %edx
	.loc 1 391 0
	movabsq	$4607182418800017408, %rbp
	movabsq	$4607182418800017408, %r11
	prefetcht0	(%rcx)
	movq	%r9, 48(%rdi)
	.loc 1 378 0
	salq	$6, %r10
	.loc 1 391 0
	movq	%r12, (%rdi)
.LVL87:
	movq	%r13, 8(%rdi)
	leaq	-64(%r10), %r8
	movq	%r14, 16(%rdi)
	movq	%r15, 24(%rdi)
	movq	%rbx, 32(%rdi)
	movq	%rbp, 40(%rdi)
	.loc 1 390 0
	movl	$8, %ecx
	shrq	$6, %r8
	.loc 1 391 0
	movq	%r11, 56(%rdi)
	movl	$8, %r9d
	andl	$3, %r8d
	cmpq	%r10, %rdx
	leaq	296(%rdi), %rax
	je	.L411
	testq	%r8, %r8
	je	.L412
	cmpq	$1, %r8
	je	.L582
	cmpq	$2, %r8
	je	.L583
	movabsq	$4607182418800017408, %rcx
	movabsq	$4607182418800017408, %rdx
	movabsq	$4607182418800017408, %r8
	movabsq	$4607182418800017408, %r12
	movabsq	$4607182418800017408, %r13
	movabsq	$4607182418800017408, %r14
	movabsq	$4607182418800017408, %r15
	movabsq	$4607182418800017408, %rbx
	movq	%rcx, -232(%rax)
	movq	%rdx, -224(%rax)
	prefetcht0	(%rax)
	movq	%r8, -216(%rax)
	movq	%r12, -208(%rax)
	movq	%r13, -200(%rax)
	.loc 1 390 0
	movl	$16, %ecx
	.loc 1 391 0
	movq	%r14, -192(%rax)
	movq	%r15, -184(%rax)
	movl	$128, %edx
	movq	%rbx, -176(%rax)
	leaq	360(%rdi), %rax
.L583:
	movabsq	$4607182418800017408, %rbp
	movabsq	$4607182418800017408, %r9
	movabsq	$4607182418800017408, %r11
	movabsq	$4607182418800017408, %r8
	movabsq	$4607182418800017408, %r12
	movabsq	$4607182418800017408, %r13
	movabsq	$4607182418800017408, %r14
	movabsq	$4607182418800017408, %r15
	prefetcht0	(%rax)
	movq	%rbp, -232(%rax)
	movq	%r9, -224(%rax)
	.loc 1 390 0
	addl	$8, %ecx
	.loc 1 391 0
	movq	%r11, -216(%rax)
	movq	%r8, -208(%rax)
	addq	$64, %rdx
	movq	%r12, -200(%rax)
	movq	%r13, -192(%rax)
	movq	%r14, -184(%rax)
	movq	%r15, -176(%rax)
	addq	$64, %rax
.L582:
	movabsq	$4607182418800017408, %r9
	movabsq	$4607182418800017408, %rbx
	movabsq	$4607182418800017408, %rbp
	movabsq	$4607182418800017408, %r11
	movabsq	$4607182418800017408, %r8
	movabsq	$4607182418800017408, %r12
	movabsq	$4607182418800017408, %r13
	movabsq	$4607182418800017408, %r14
	addq	$64, %rdx
	movq	%r9, -216(%rax)
	.loc 1 390 0
	addl	$8, %ecx
	prefetcht0	(%rax)
	.loc 1 391 0
	movq	%rbx, -232(%rax)
	movq	%rbp, -224(%rax)
	movl	%ecx, %r9d
	movq	%r11, -208(%rax)
	movq	%r8, -200(%rax)
	movq	%r12, -192(%rax)
	movq	%r13, -184(%rax)
	movq	%r14, -176(%rax)
	addq	$64, %rax
	cmpq	%r10, %rdx
	je	.L411
.L412:
	leaq	64(%rax), %r9
	movabsq	$4607182418800017408, %r15
	movabsq	$4607182418800017408, %rbx
	movabsq	$4607182418800017408, %rbp
	movabsq	$4607182418800017408, %r11
	movabsq	$4607182418800017408, %r8
	movabsq	$4607182418800017408, %r12
	movabsq	$4607182418800017408, %r13
	movabsq	$4607182418800017408, %r14
	movq	%r15, -232(%rax)
	movq	%rbx, -224(%rax)
	movabsq	$4607182418800017408, %r15
	movq	%rbp, -216(%rax)
	movq	%r11, -208(%rax)
	movabsq	$4607182418800017408, %rbx
	movq	%r8, -200(%rax)
	movq	%r12, -192(%rax)
	movabsq	$4607182418800017408, %rbp
	movq	%r13, -184(%rax)
	movq	%r14, -176(%rax)
	movabsq	$4607182418800017408, %r11
	movabsq	$4607182418800017408, %r8
	movabsq	$4607182418800017408, %r12
	movabsq	$4607182418800017408, %r13
	movabsq	$4607182418800017408, %r14
	prefetcht0	(%r9)
	leaq	128(%rax), %r9
	movq	%r15, -168(%rax)
	movq	%rbx, -160(%rax)
	movabsq	$4607182418800017408, %r15
	movq	%rbp, -152(%rax)
	movq	%r11, -144(%rax)
	movabsq	$4607182418800017408, %rbx
	movq	%r8, -136(%rax)
	movq	%r12, -128(%rax)
	movabsq	$4607182418800017408, %rbp
	movq	%r13, -120(%rax)
	movq	%r14, -112(%rax)
	movabsq	$4607182418800017408, %r11
	movabsq	$4607182418800017408, %r8
	movabsq	$4607182418800017408, %r12
	movabsq	$4607182418800017408, %r13
	movabsq	$4607182418800017408, %r14
	movq	%r15, -104(%rax)
	movq	%rbx, -96(%rax)
	movq	%rbp, -88(%rax)
	movq	%r11, -80(%rax)
	prefetcht0	(%r9)
	movq	%r8, -72(%rax)
	leaq	192(%rax), %r9
	movq	%r12, -64(%rax)
	movq	%r13, -56(%rax)
	movq	%r14, -48(%rax)
	movabsq	$4607182418800017408, %r15
	movabsq	$4607182418800017408, %rbx
	movabsq	$4607182418800017408, %rbp
	movabsq	$4607182418800017408, %r11
	movabsq	$4607182418800017408, %r8
	movabsq	$4607182418800017408, %r12
	movabsq	$4607182418800017408, %r13
	movabsq	$4607182418800017408, %r14
	addq	$256, %rdx
	.loc 1 390 0
	addl	$32, %ecx
	prefetcht0	(%rax)
	.loc 1 391 0
	movq	%r15, -40(%rax)
	movq	%rbx, -32(%rax)
	movq	%rbp, -24(%rax)
	movq	%r11, -16(%rax)
	prefetcht0	(%r9)
	movq	%r8, -8(%rax)
	movq	%r12, (%rax)
	movl	%ecx, %r9d
	movq	%r13, 8(%rax)
	movq	%r14, 16(%rax)
	addq	$256, %rax
	cmpq	%r10, %rdx
	jne	.L412
.L411:
.LVL88:
	movl	%r9d, %ebp
	.loc 1 378 0
	movslq	%ecx, %r10
	leal	1(%r9), %r15d
	notl	%ebp
	leaq	(%rdi,%r10,8), %rbx
	.loc 1 391 0
	movabsq	$4607182418800017408, %rax
	addl	%esi, %ebp
	.loc 1 378 0
	leal	1(%rcx), %edx
	andl	$7, %ebp
	cmpl	%r15d, %esi
	.loc 1 391 0
	movq	%rax, (%rbx)
	leaq	8(%rbx), %rax
	jbe	.L619
	testl	%ebp, %ebp
	je	.L413
	cmpl	$1, %ebp
	je	.L576
	cmpl	$2, %ebp
	.p2align 4,,3
	je	.L577
	cmpl	$3, %ebp
	.p2align 4,,2
	je	.L578
	cmpl	$4, %ebp
	.p2align 4,,2
	je	.L579
	cmpl	$5, %ebp
	.p2align 4,,2
	je	.L580
	cmpl	$6, %ebp
	.p2align 4,,2
	je	.L581
	movabsq	$4607182418800017408, %rdx
	movq	%rdx, (%rax)
	.loc 1 390 0
	leal	2(%rcx), %edx
.LVL89:
	leaq	16(%rbx), %rax
.L581:
	.loc 1 391 0
	movabsq	$4607182418800017408, %r11
	.loc 1 390 0
	addl	$1, %edx
	.loc 1 391 0
	movq	%r11, (%rax)
	addq	$8, %rax
.L580:
	movabsq	$4607182418800017408, %r8
	.loc 1 390 0
	addl	$1, %edx
	.loc 1 391 0
	movq	%r8, (%rax)
	addq	$8, %rax
.L579:
	movabsq	$4607182418800017408, %r12
	.loc 1 390 0
	addl	$1, %edx
	.loc 1 391 0
	movq	%r12, (%rax)
	addq	$8, %rax
.L578:
	movabsq	$4607182418800017408, %r13
	.loc 1 390 0
	addl	$1, %edx
	.loc 1 391 0
	movq	%r13, (%rax)
	addq	$8, %rax
.L577:
	movabsq	$4607182418800017408, %r14
	.loc 1 390 0
	addl	$1, %edx
	.loc 1 391 0
	movq	%r14, (%rax)
	addq	$8, %rax
.L576:
	.loc 1 390 0
	addl	$1, %edx
	.loc 1 391 0
	movabsq	$4607182418800017408, %r10
	.loc 1 378 0
	leal	(%r9,%rdx), %ebx
	.loc 1 391 0
	movq	%r10, (%rax)
	addq	$8, %rax
	subl	%ecx, %ebx
	cmpl	%ebx, %esi
	jbe	.L619
.L413:
	.loc 1 390 0
	addl	$8, %edx
	.loc 1 391 0
	movabsq	$4607182418800017408, %rbp
	movabsq	$4607182418800017408, %r15
	.loc 1 378 0
	leal	(%r9,%rdx), %ebx
	.loc 1 391 0
	movabsq	$4607182418800017408, %r11
	movabsq	$4607182418800017408, %r8
	movabsq	$4607182418800017408, %r12
	movabsq	$4607182418800017408, %r13
	movabsq	$4607182418800017408, %r14
	movabsq	$4607182418800017408, %r10
	subl	%ecx, %ebx
	movq	%rbp, (%rax)
	movq	%r15, 8(%rax)
	movq	%r11, 16(%rax)
	movq	%r8, 24(%rax)
	movq	%r12, 32(%rax)
	movq	%r13, 40(%rax)
	movq	%r14, 48(%rax)
	movq	%r10, 56(%rax)
	addq	$64, %rax
	cmpl	%ebx, %esi
	ja	.L413
.L619:
	cmpl	%esi, 20(%rsp)
	je	.L414
.L410:
	movl	20(%rsp), %r11d
	movl	%esi, %ecx
	subl	%esi, %r11d
	movl	%r11d, %r8d
	shrl	%r8d
	movl	%r8d, %ebx
	addl	%ebx, %ebx
	je	.L415
	cmpl	$4, %r8d
	leaq	(%rdi,%rcx,8), %rax
	.loc 1 378 0
	leal	-3(%r8), %r9d
	jbe	.L433
	leal	-5(%r8), %esi
	movapd	.LC26(%rip), %xmm2
	prefetcht0	640(%rax)
	movl	$4, %ebp
	movl	$4, %r12d
	shrl	$2, %esi
	andl	$3, %esi
	.loc 1 391 0
	movapd	%xmm2, (%rax)
	movapd	%xmm2, 16(%rax)
	movapd	%xmm2, 32(%rax)
	movapd	%xmm2, 48(%rax)
	.loc 1 378 0
	addq	$64, %rax
	cmpl	$5, %r9d
	jbe	.L416
	testl	%esi, %esi
	je	.L417
	cmpl	$1, %esi
	je	.L574
	cmpl	$2, %esi
	.p2align 4,,3
	je	.L575
	prefetcht0	640(%rax)
	.loc 1 391 0
	movapd	%xmm2, (%rax)
	movl	$8, %r12d
	movapd	%xmm2, 16(%rax)
	movapd	%xmm2, 32(%rax)
	movapd	%xmm2, 48(%rax)
	.loc 1 378 0
	addq	$64, %rax
.L575:
	prefetcht0	640(%rax)
	.loc 1 391 0
	movapd	%xmm2, (%rax)
	addl	$4, %r12d
	movapd	%xmm2, 16(%rax)
	movapd	%xmm2, 32(%rax)
	movapd	%xmm2, 48(%rax)
	.loc 1 378 0
	addq	$64, %rax
.L574:
	leal	5(%r12), %r15d
	leal	4(%r12), %ebp
	prefetcht0	640(%rax)
	.loc 1 391 0
	movapd	%xmm2, (%rax)
	movl	%ebp, %r12d
	movapd	%xmm2, 16(%rax)
	movapd	%xmm2, 32(%rax)
	movapd	%xmm2, 48(%rax)
	.loc 1 378 0
	addq	$64, %rax
	cmpl	%r9d, %r15d
	jae	.L416
.L417:
	leal	17(%r12), %r13d
	leal	16(%r12), %ebp
	prefetcht0	640(%rax)
	.loc 1 391 0 discriminator 2
	movapd	%xmm2, (%rax)
	prefetcht0	704(%rax)
	prefetcht0	768(%rax)
	prefetcht0	832(%rax)
	movl	%ebp, %r12d
	movapd	%xmm2, 16(%rax)
	movapd	%xmm2, 32(%rax)
	movapd	%xmm2, 48(%rax)
	movapd	%xmm2, 64(%rax)
	movapd	%xmm2, 80(%rax)
	movapd	%xmm2, 96(%rax)
	movapd	%xmm2, 112(%rax)
	movapd	%xmm2, 128(%rax)
	movapd	%xmm2, 144(%rax)
	movapd	%xmm2, 160(%rax)
	movapd	%xmm2, 176(%rax)
	movapd	%xmm2, 192(%rax)
	movapd	%xmm2, 208(%rax)
	movapd	%xmm2, 224(%rax)
	movapd	%xmm2, 240(%rax)
	.loc 1 378 0 discriminator 2
	addq	$256, %rax
	cmpl	%r9d, %r13d
	jb	.L417
.L416:
	movl	%ebp, %r14d
	leal	1(%rbp), %ecx
	leaq	16(%rax), %r10
	notl	%r14d
	addl	%r8d, %r14d
	andl	$7, %r14d
	cmpl	%ecx, %r8d
	.loc 1 391 0
	movapd	%xmm2, (%rax)
	jbe	.L622
	testl	%r14d, %r14d
	je	.L423
	cmpl	$1, %r14d
	je	.L568
	cmpl	$2, %r14d
	je	.L569
	cmpl	$3, %r14d
	je	.L570
	cmpl	$4, %r14d
	je	.L571
	cmpl	$5, %r14d
	je	.L572
	cmpl	$6, %r14d
	je	.L573
	movapd	%xmm2, (%r10)
	leal	2(%rbp), %ecx
	leaq	32(%rax), %r10
.L573:
	movapd	%xmm2, (%r10)
	addl	$1, %ecx
	addq	$16, %r10
.L572:
	movapd	%xmm2, (%r10)
	addl	$1, %ecx
	addq	$16, %r10
.L571:
	movapd	%xmm2, (%r10)
	addl	$1, %ecx
	addq	$16, %r10
.L570:
	movapd	%xmm2, (%r10)
	addl	$1, %ecx
	addq	$16, %r10
.L569:
	movapd	%xmm2, (%r10)
	addl	$1, %ecx
	addq	$16, %r10
.L568:
	addl	$1, %ecx
	movapd	%xmm2, (%r10)
	addq	$16, %r10
	cmpl	%ecx, %r8d
	jbe	.L622
.L423:
	addl	$8, %ecx
	movapd	%xmm2, (%r10)
	movapd	%xmm2, 16(%r10)
	movapd	%xmm2, 32(%r10)
	movapd	%xmm2, 48(%r10)
	movapd	%xmm2, 64(%r10)
	movapd	%xmm2, 80(%r10)
	movapd	%xmm2, 96(%r10)
	movapd	%xmm2, 112(%r10)
	subq	$-128, %r10
	cmpl	%ecx, %r8d
	ja	.L423
.L622:
	addl	%ebx, %edx
	cmpl	%ebx, %r11d
	je	.L414
.L415:
	.loc 1 378 0
	movl	20(%rsp), %r9d
	leal	1(%rdx), %ecx
	subl	$7, %r9d
	cmpl	%edx, 20(%rsp)
	jle	.L419
	cmpl	%r9d, %ecx
	jge	.L419
	movslq	%edx, %rsi
	movl	%r9d, %ebp
	.loc 1 391 0
	movabsq	$4607182418800017408, %rcx
	.loc 1 378 0
	leaq	272(%rdi,%rsi,8), %r13
	subl	%edx, %ebp
	.loc 1 390 0
	addl	$8, %edx
	subl	$2, %ebp
	.loc 1 391 0
	movabsq	$4607182418800017408, %rax
	movabsq	$4607182418800017408, %r15
	movq	%rcx, -224(%r13)
	.loc 1 378 0
	leal	1(%rdx), %ecx
	shrl	$3, %ebp
	andl	$3, %ebp
	.loc 1 391 0
	movabsq	$4607182418800017408, %r12
	movabsq	$4607182418800017408, %r8
	movabsq	$4607182418800017408, %r14
	movabsq	$4607182418800017408, %r10
	movabsq	$4607182418800017408, %rbx
	cmpl	%ecx, %r9d
	movq	%rax, -256(%r13)
	prefetcht0	0(%r13)
	movq	%r15, -272(%r13)
	movq	%r12, -264(%r13)
	leaq	64(%r13), %rax
	movq	%r8, -248(%r13)
	movq	%r14, -240(%r13)
	movq	%r10, -232(%r13)
	movq	%rbx, -216(%r13)
	jle	.L419
	testl	%ebp, %ebp
	je	.L420
	cmpl	$1, %ebp
	je	.L566
	cmpl	$2, %ebp
	.p2align 4,,3
	je	.L567
	movabsq	$4607182418800017408, %r11
	movabsq	$4607182418800017408, %rsi
	movabsq	$4607182418800017408, %rbp
	movabsq	$4607182418800017408, %r15
	movabsq	$4607182418800017408, %r12
	movabsq	$4607182418800017408, %r8
	movabsq	$4607182418800017408, %r14
	movabsq	$4607182418800017408, %r10
	prefetcht0	(%rax)
	movq	%r11, -272(%rax)
	movq	%rsi, -264(%rax)
	.loc 1 390 0
	addl	$8, %edx
	.loc 1 391 0
	movq	%rbp, -256(%rax)
	movq	%r15, -248(%rax)
	movq	%r12, -240(%rax)
	movq	%r8, -232(%rax)
	movq	%r14, -224(%rax)
	movq	%r10, -216(%rax)
	leaq	128(%r13), %rax
.L567:
	movabsq	$4607182418800017408, %r13
	movabsq	$4607182418800017408, %rcx
	movabsq	$4607182418800017408, %rbx
	movabsq	$4607182418800017408, %r11
	movabsq	$4607182418800017408, %rsi
	movabsq	$4607182418800017408, %rbp
	movabsq	$4607182418800017408, %r15
	movabsq	$4607182418800017408, %r12
	prefetcht0	(%rax)
	movq	%r13, -272(%rax)
	movq	%rcx, -264(%rax)
	.loc 1 390 0
	addl	$8, %edx
	.loc 1 391 0
	movq	%rbx, -256(%rax)
	movq	%r11, -248(%rax)
	movq	%rsi, -240(%rax)
	movq	%rbp, -232(%rax)
	movq	%r15, -224(%rax)
	movq	%r12, -216(%rax)
	addq	$64, %rax
.L566:
	movabsq	$4607182418800017408, %rcx
	.loc 1 390 0
	addl	$8, %edx
	.loc 1 391 0
	movabsq	$4607182418800017408, %r8
	movq	%rcx, -240(%rax)
	.loc 1 378 0
	leal	1(%rdx), %ecx
	.loc 1 391 0
	movabsq	$4607182418800017408, %r14
	movabsq	$4607182418800017408, %r10
	movabsq	$4607182418800017408, %r13
	movabsq	$4607182418800017408, %rbx
	movabsq	$4607182418800017408, %r11
	movabsq	$4607182418800017408, %rsi
	prefetcht0	(%rax)
	movq	%r8, -272(%rax)
	movq	%r14, -264(%rax)
	movq	%r10, -256(%rax)
	movq	%r13, -248(%rax)
	movq	%rbx, -232(%rax)
	movq	%r11, -224(%rax)
	movq	%rsi, -216(%rax)
	addq	$64, %rax
	cmpl	%ecx, %r9d
	jle	.L419
.L420:
	movabsq	$4607182418800017408, %rcx
	leaq	64(%rax), %r11
	movabsq	$4607182418800017408, %rbp
	movabsq	$4607182418800017408, %r15
	movabsq	$4607182418800017408, %r13
	movq	%rcx, -200(%rax)
	movabsq	$4607182418800017408, %rcx
	movq	%rbp, -272(%rax)
	movq	%r15, -264(%rax)
	movabsq	$4607182418800017408, %r12
	movabsq	$4607182418800017408, %r8
	movabsq	$4607182418800017408, %r14
	movabsq	$4607182418800017408, %r10
	movq	%r13, -224(%rax)
	movabsq	$4607182418800017408, %rbx
	leaq	128(%rax), %r13
	movabsq	$4607182418800017408, %rsi
	movabsq	$4607182418800017408, %rbp
	movabsq	$4607182418800017408, %r15
	movq	%rcx, -120(%rax)
	.loc 1 390 0
	addl	$32, %edx
	.loc 1 391 0
	movabsq	$4607182418800017408, %rcx
	movq	%r12, -256(%rax)
	movq	%r8, -248(%rax)
	movq	%r14, -240(%rax)
	movq	%r10, -232(%rax)
	movabsq	$4607182418800017408, %r12
	movq	%rbx, -216(%rax)
	movq	%rsi, -208(%rax)
	movabsq	$4607182418800017408, %r8
	movq	%rbp, -192(%rax)
	movq	%r15, -184(%rax)
	movabsq	$4607182418800017408, %r14
	movabsq	$4607182418800017408, %r10
	movabsq	$4607182418800017408, %rbx
	movabsq	$4607182418800017408, %rsi
	movabsq	$4607182418800017408, %rbp
	movabsq	$4607182418800017408, %r15
	movq	%rcx, -40(%rax)
	prefetcht0	(%r11)
	.loc 1 378 0
	leal	1(%rdx), %ecx
	.loc 1 391 0
	movabsq	$4607182418800017408, %r11
	movq	%r12, -176(%rax)
	movq	%r8, -168(%rax)
	prefetcht0	0(%r13)
	movq	%r14, -160(%rax)
	movq	%r10, -152(%rax)
	leaq	192(%rax), %r14
	movq	%rbx, -144(%rax)
	movq	%r11, -136(%rax)
	movabsq	$4607182418800017408, %r12
	movq	%rsi, -128(%rax)
	movq	%rbp, -112(%rax)
	movabsq	$4607182418800017408, %r8
	movq	%r15, -104(%rax)
	movabsq	$4607182418800017408, %r10
	movabsq	$4607182418800017408, %r13
	movabsq	$4607182418800017408, %rbx
	movabsq	$4607182418800017408, %r11
	movabsq	$4607182418800017408, %rsi
	movabsq	$4607182418800017408, %rbp
	movabsq	$4607182418800017408, %r15
	prefetcht0	(%rax)
	movq	%r12, -96(%rax)
	movq	%r8, -88(%rax)
	prefetcht0	(%r14)
	movq	%r10, -80(%rax)
	movq	%r13, -72(%rax)
	movq	%rbx, -64(%rax)
	movq	%r11, -56(%rax)
	movq	%rsi, -48(%rax)
	movq	%rbp, -32(%rax)
	movq	%r15, -24(%rax)
	addq	$256, %rax
	cmpl	%ecx, %r9d
	jg	.L420
.L419:
	movl	20(%rsp), %r12d
	.loc 1 378 0
	movslq	%edx, %rdx
	leaq	(%rdi,%rdx,8), %rax
	subl	%ecx, %r12d
	andl	$7, %r12d
	je	.L421
	.loc 1 391 0
	movabsq	$4607182418800017408, %r9
	movq	%r9, (%rax)
.LVL90:
	addq	$8, %rax
	.loc 1 390 0
	cmpl	%ecx, 20(%rsp)
	jle	.L414
	addl	$1, %ecx
.LVL91:
	cmpl	$1, %r12d
	je	.L421
	cmpl	$2, %r12d
	je	.L561
	cmpl	$3, %r12d
	je	.L562
	cmpl	$4, %r12d
	je	.L563
	cmpl	$5, %r12d
	je	.L564
	cmpl	$6, %r12d
	je	.L565
	.loc 1 391 0
	movabsq	$4607182418800017408, %r8
	addl	$1, %ecx
.LVL92:
	movq	%r8, (%rax)
.LVL93:
	addq	$8, %rax
.L565:
	movabsq	$4607182418800017408, %r14
	addl	$1, %ecx
	movq	%r14, (%rax)
	addq	$8, %rax
.L564:
	movabsq	$4607182418800017408, %r10
	addl	$1, %ecx
	movq	%r10, (%rax)
	addq	$8, %rax
.L563:
	movabsq	$4607182418800017408, %r13
	addl	$1, %ecx
	movq	%r13, (%rax)
	addq	$8, %rax
.L562:
	movabsq	$4607182418800017408, %rbx
	addl	$1, %ecx
	movq	%rbx, (%rax)
	addq	$8, %rax
.L561:
	movabsq	$4607182418800017408, %r11
	addl	$1, %ecx
	movq	%r11, (%rax)
	addq	$8, %rax
	jmp	.L421
.LVL94:
	.p2align 4,,10
	.p2align 3
.L627:
	movabsq	$4607182418800017408, %r9
	movabsq	$4607182418800017408, %r8
	movabsq	$4607182418800017408, %r10
	movabsq	$4607182418800017408, %r11
	movabsq	$4607182418800017408, %rsi
	movabsq	$4607182418800017408, %rdx
	movabsq	$4607182418800017408, %rbp
	movq	%r9, 8(%rax)
	movq	%r8, 16(%rax)
	movq	%r10, 24(%rax)
	movq	%r11, 32(%rax)
	addl	$8, %ecx
.LVL95:
	movq	%rsi, 40(%rax)
.LVL96:
	movq	%rdx, 48(%rax)
	movq	%rbp, 56(%rax)
	addq	$64, %rax
.L421:
	.loc 1 390 0
	cmpl	%ecx, 20(%rsp)
	.loc 1 391 0
	movabsq	$4607182418800017408, %rsi
	movq	%rsi, (%rax)
.LVL97:
	.loc 1 390 0
	jg	.L627
.LVL98:
.L414:
	.loc 1 393 0
	cmpl	$1, 20(%rsp)
	jle	.L408
	.loc 1 378 0
	leaq	8(%rdi), %rbx
.LVL99:
	movl	$1, %r12d
.LVL100:
.L626:
	xorl	%r14d, %r14d
.LVL101:
	.p2align 4,,10
	.p2align 3
.L624:
	movq	24(%rsp), %rcx
	movslq	%r14d, %rdi
	movl	%r14d, %ebp
	notl	%ebp
	.loc 1 394 0
	leal	1(%r14), %r15d
	addl	%r12d, %ebp
	.loc 1 378 0
	leaq	(%rcx,%rdi,8), %r13
	andl	$3, %ebp
	.loc 1 395 0
	movsd	0(%r13), %xmm0
	movl	%ebp, (%rsp)
	leaq	8(%r13), %rbp
	xorpd	.LC13(%rip), %xmm0
	mulsd	8(%rsp), %xmm0
	call	exp
.LVL102:
	mulsd	(%rbx), %xmm0
	.loc 1 394 0
	cmpl	%r15d, %r12d
	movl	(%rsp), %edx
	.loc 1 395 0
	movsd	%xmm0, (%rbx)
	.loc 1 394 0
	jle	.L623
	testl	%edx, %edx
	je	.L426
	cmpl	$1, %edx
	je	.L559
	cmpl	$2, %edx
	.p2align 4,,3
	je	.L560
	.loc 1 395 0
	movsd	8(%r13), %xmm0
	.loc 1 394 0
	leal	2(%r14), %r15d
	leaq	16(%r13), %rbp
	.loc 1 395 0
	xorpd	.LC13(%rip), %xmm0
	mulsd	8(%rsp), %xmm0
	call	exp
.LVL103:
	mulsd	(%rbx), %xmm0
	movsd	%xmm0, (%rbx)
.LVL104:
.L560:
	movsd	0(%rbp), %xmm0
	.loc 1 394 0
	addl	$1, %r15d
	addq	$8, %rbp
	.loc 1 395 0
	xorpd	.LC13(%rip), %xmm0
	mulsd	8(%rsp), %xmm0
	call	exp
.LVL105:
	mulsd	(%rbx), %xmm0
	movsd	%xmm0, (%rbx)
.L559:
	movsd	0(%rbp), %xmm0
	.loc 1 394 0
	addl	$1, %r15d
	addq	$8, %rbp
	.loc 1 395 0
	xorpd	.LC13(%rip), %xmm0
	mulsd	8(%rsp), %xmm0
	call	exp
.LVL106:
	mulsd	(%rbx), %xmm0
	.loc 1 394 0
	cmpl	%r15d, %r12d
	.loc 1 395 0
	movsd	%xmm0, (%rbx)
	.loc 1 394 0
	jle	.L623
.L426:
	.loc 1 395 0
	movsd	0(%rbp), %xmm0
	.loc 1 394 0
	addl	$4, %r15d
	.loc 1 395 0
	xorpd	.LC13(%rip), %xmm0
	mulsd	8(%rsp), %xmm0
	call	exp
.LVL107:
	mulsd	(%rbx), %xmm0
	movsd	%xmm0, (%rbx)
	movsd	8(%rbp), %xmm0
	xorpd	.LC13(%rip), %xmm0
	mulsd	8(%rsp), %xmm0
	call	exp
.LVL108:
	mulsd	(%rbx), %xmm0
	movsd	%xmm0, (%rbx)
	movsd	16(%rbp), %xmm0
	xorpd	.LC13(%rip), %xmm0
	mulsd	8(%rsp), %xmm0
	call	exp
.LVL109:
	mulsd	(%rbx), %xmm0
	movsd	%xmm0, (%rbx)
	movsd	24(%rbp), %xmm0
	addq	$32, %rbp
	xorpd	.LC13(%rip), %xmm0
	mulsd	8(%rsp), %xmm0
	call	exp
.LVL110:
	mulsd	(%rbx), %xmm0
	.loc 1 394 0
	cmpl	%r15d, %r12d
	.loc 1 395 0
	movsd	%xmm0, (%rbx)
	.loc 1 394 0
	jg	.L426
.L623:
	.loc 1 393 0
	addl	$1, %r12d
.LVL111:
	addq	$8, %rbx
	cmpl	20(%rsp), %r12d
	je	.L408
.LVL112:
	cmpl	$8, %r12d
	jle	.L626
	.loc 1 378 0
	leal	-9(%r12), %eax
	movq	24(%rsp), %r13
	xorl	%r14d, %r14d
	shrl	$3, %eax
	leal	8(,%rax,8), %r15d
	addq	$72, %r13
.LVL113:
	.p2align 4,,10
	.p2align 3
.L428:
	.loc 1 395 0 discriminator 2
	movsd	-72(%r13), %xmm0
	.loc 1 394 0 discriminator 2
	addl	$8, %r14d
	prefetcht0	0(%r13)
	.loc 1 395 0 discriminator 2
	xorpd	.LC13(%rip), %xmm0
	mulsd	8(%rsp), %xmm0
	call	exp
.LVL114:
	mulsd	(%rbx), %xmm0
	movsd	%xmm0, (%rbx)
	movsd	-64(%r13), %xmm0
	xorpd	.LC13(%rip), %xmm0
	mulsd	8(%rsp), %xmm0
	call	exp
.LVL115:
	mulsd	(%rbx), %xmm0
	movsd	%xmm0, (%rbx)
	movsd	-56(%r13), %xmm0
	xorpd	.LC13(%rip), %xmm0
	mulsd	8(%rsp), %xmm0
	call	exp
.LVL116:
	mulsd	(%rbx), %xmm0
	movsd	%xmm0, (%rbx)
	movsd	-48(%r13), %xmm0
	xorpd	.LC13(%rip), %xmm0
	mulsd	8(%rsp), %xmm0
	call	exp
.LVL117:
	mulsd	(%rbx), %xmm0
	movsd	%xmm0, (%rbx)
	movsd	-40(%r13), %xmm0
	xorpd	.LC13(%rip), %xmm0
	mulsd	8(%rsp), %xmm0
	call	exp
.LVL118:
	mulsd	(%rbx), %xmm0
	movsd	%xmm0, (%rbx)
	movsd	-32(%r13), %xmm0
	xorpd	.LC13(%rip), %xmm0
	mulsd	8(%rsp), %xmm0
	call	exp
.LVL119:
	mulsd	(%rbx), %xmm0
	movsd	%xmm0, (%rbx)
	movsd	-24(%r13), %xmm0
	xorpd	.LC13(%rip), %xmm0
	mulsd	8(%rsp), %xmm0
	call	exp
.LVL120:
	mulsd	(%rbx), %xmm0
	movsd	%xmm0, (%rbx)
	movsd	-16(%r13), %xmm0
	addq	$64, %r13
	xorpd	.LC13(%rip), %xmm0
	mulsd	8(%rsp), %xmm0
	call	exp
.LVL121:
	mulsd	(%rbx), %xmm0
	cmpl	%r15d, %r14d
	movsd	%xmm0, (%rbx)
	jne	.L428
	jmp	.L624
.LVL122:
	.p2align 4,,10
	.p2align 3
.L408:
.LBE99:
	.loc 1 399 0
	addq	$40, %rsp
.LCFI51:
	.cfi_remember_state
	.cfi_def_cfa_offset 56
	movl	$1, %eax
	popq	%rbx
.LCFI52:
	.cfi_def_cfa_offset 48
	popq	%rbp
.LCFI53:
	.cfi_def_cfa_offset 40
	popq	%r12
.LCFI54:
	.cfi_def_cfa_offset 32
	popq	%r13
.LCFI55:
	.cfi_def_cfa_offset 24
	popq	%r14
.LCFI56:
	.cfi_def_cfa_offset 16
	popq	%r15
.LCFI57:
	.cfi_def_cfa_offset 8
	ret
.LVL123:
.L433:
.LCFI58:
	.cfi_restore_state
	.loc 1 378 0
	xorl	%ebp, %ebp
	movapd	.LC26(%rip), %xmm2
	jmp	.L416
.LVL124:
.L432:
	xorl	%r9d, %r9d
	xorl	%ecx, %ecx
	jmp	.L411
.L431:
	.loc 1 390 0
	xorl	%edx, %edx
.LVL125:
	jmp	.L410
	.cfi_endproc
.LFE84:
	.size	_Z16Discount_FactorsPdidS_, .-_Z16Discount_FactorsPdidS_
	.section	.rodata.str1.8,"aMS",@progbits,1
	.align 8
.LC27:
	.string	"Usage: %s OPTION [OPTIONS]...\n"
	.section	.rodata.str1.1,"aMS",@progbits,1
.LC28:
	.string	"Options:\n"
	.section	.rodata.str1.8
	.align 8
.LC29:
	.string	"\t-ns [number of swaptions (should be > number of threads]\n"
	.section	.rodata.str1.1
.LC30:
	.string	"\t-sm [number of simulations]\n"
.LC31:
	.string	"\t-nt [number of threads]\n"
.LC32:
	.string	"\t-sd [random number seed]\n"
	.text
	.p2align 4,,15
	.globl	_Z11print_usagePc
	.type	_Z11print_usagePc, @function
_Z11print_usagePc:
.LFB1075:
	.loc 1 596 0
	.cfi_startproc
.LVL126:
	subq	$8, %rsp
.LCFI59:
	.cfi_def_cfa_offset 16
	.loc 1 596 0
	movq	%rdi, %rcx
.LBB100:
.LBB101:
	.file 2 "/usr/include/x86_64-linux-gnu/bits/stdio2.h"
	.loc 2 99 0
	movq	stderr(%rip), %rdi
.LVL127:
	movl	$.LC27, %edx
	movl	$1, %esi
	xorl	%eax, %eax
	call	__fprintf_chk
.LVL128:
.LBE101:
.LBE100:
.LBB102:
.LBB103:
	movq	stderr(%rip), %rcx
	movl	$9, %edx
	movl	$1, %esi
	movl	$.LC28, %edi
	call	fwrite
.LVL129:
.LBE103:
.LBE102:
.LBB104:
.LBB105:
	movq	stderr(%rip), %rcx
	movl	$58, %edx
	movl	$1, %esi
	movl	$.LC29, %edi
	call	fwrite
.LVL130:
.LBE105:
.LBE104:
.LBB106:
.LBB107:
	movq	stderr(%rip), %rcx
	movl	$29, %edx
	movl	$1, %esi
	movl	$.LC30, %edi
	call	fwrite
.LVL131:
.LBE107:
.LBE106:
.LBB108:
.LBB109:
	movq	stderr(%rip), %rcx
	movl	$25, %edx
	movl	$1, %esi
	movl	$.LC31, %edi
	call	fwrite
.LVL132:
.LBE109:
.LBE108:
.LBB110:
.LBB111:
	movq	stderr(%rip), %rcx
	movl	$26, %edx
	movl	$1, %esi
	movl	$.LC32, %edi
.LBE111:
.LBE110:
	.loc 1 603 0
	addq	$8, %rsp
.LCFI60:
	.cfi_def_cfa_offset 8
.LBB113:
.LBB112:
	.loc 2 99 0
	jmp	fwrite
.LVL133:
.LBE112:
.LBE113:
	.cfi_endproc
.LFE1075:
	.size	_Z11print_usagePc, .-_Z11print_usagePc
	.p2align 4,,15
	.globl	_Z7serialBPPdS0_iii
	.type	_Z7serialBPPdS0_iii, @function
_Z7serialBPPdS0_iii:
.LFB1077:
	.loc 1 877 0
	.cfi_startproc
.LVL134:
	pushq	%r15
.LCFI61:
	.cfi_def_cfa_offset 16
	.cfi_offset 15, -16
	pushq	%r14
.LCFI62:
	.cfi_def_cfa_offset 24
	.cfi_offset 14, -24
	pushq	%r13
.LCFI63:
	.cfi_def_cfa_offset 32
	.cfi_offset 13, -32
	pushq	%r12
.LCFI64:
	.cfi_def_cfa_offset 40
	.cfi_offset 12, -40
	pushq	%rbp
.LCFI65:
	.cfi_def_cfa_offset 48
	.cfi_offset 6, -48
	pushq	%rbx
.LCFI66:
	.cfi_def_cfa_offset 56
	.cfi_offset 3, -56
	subq	$40, %rsp
.LCFI67:
	.cfi_def_cfa_offset 96
.LBB117:
	.loc 1 880 0
	testl	%r8d, %r8d
.LBE117:
	.loc 1 877 0
	movl	%edx, 20(%rsp)
	movl	%ecx, 16(%rsp)
.LBB120:
	.loc 1 880 0
	jle	.L630
	.loc 1 876 0
	movslq	%edx, %rax
	subl	$1, %edx
.LVL135:
	subl	$1, %r8d
.LVL136:
	leaq	1(%rax,%rdx), %r14
	leaq	8(%rdi,%r8,8), %r8
	leaq	0(,%rax,8), %rbp
	movq	%rdi, %rbx
	movq	%rsi, %r15
	salq	$3, %r14
	movq	%r8, 24(%rsp)
	movq	%r14, 8(%rsp)
.LVL137:
	.p2align 4,,10
	.p2align 3
.L632:
.LBB118:
	.loc 1 881 0 discriminator 1
	movl	20(%rsp), %edx
	movq	%rbp, %r12
	testl	%edx, %edx
	jle	.L635
.LVL138:
	.p2align 4,,10
	.p2align 3
.L639:
.LBB119:
	.loc 1 882 0 discriminator 1
	cmpl	$1, 16(%rsp)
	jle	.L636
	.loc 1 883 0 discriminator 2
	movq	(%r15), %rcx
	movl	16(%rsp), %esi
	.loc 1 882 0 discriminator 2
	movl	$2, %r14d
	.loc 1 883 0 discriminator 2
	movq	(%rbx), %r13
	subl	$2, %esi
	movsd	(%rcx,%r12), %xmm0
	andl	$3, %esi
	addq	%r12, %r13
	movl	%esi, (%rsp)
	call	_Z12CumNormalInvd
.LVL139:
	.loc 1 882 0 discriminator 2
	cmpl	16(%rsp), %r14d
	.loc 1 883 0 discriminator 2
	movsd	%xmm0, 0(%r13)
	.loc 1 882 0 discriminator 2
	movl	(%rsp), %edi
	leaq	(%r12,%rbp), %r13
	je	.L636
	testl	%edi, %edi
	je	.L640
	cmpl	$1, %edi
	je	.L654
	cmpl	$2, %edi
	.p2align 4,,3
	je	.L655
	.loc 1 883 0
	movq	(%r15), %r9
	movq	(%rbx), %r14
	movsd	(%r9,%r13), %xmm0
	addq	%r13, %r14
	addq	%rbp, %r13
	call	_Z12CumNormalInvd
.LVL140:
	movsd	%xmm0, (%r14)
	.loc 1 882 0
	movl	$3, %r14d
.L655:
	.loc 1 883 0
	movq	(%r15), %r11
	movq	(%rbx), %r10
	.loc 1 882 0
	addl	$1, %r14d
	.loc 1 883 0
	movsd	(%r11,%r13), %xmm0
	addq	%r13, %r10
	movq	%r10, (%rsp)
	addq	%rbp, %r13
	call	_Z12CumNormalInvd
.LVL141:
	movq	(%rsp), %r8
	movsd	%xmm0, (%r8)
.L654:
	movq	(%r15), %rdx
	movq	(%rbx), %rax
	.loc 1 882 0
	addl	$1, %r14d
	.loc 1 883 0
	movsd	(%rdx,%r13), %xmm0
	addq	%r13, %rax
	movq	%rax, (%rsp)
	addq	%rbp, %r13
	call	_Z12CumNormalInvd
.LVL142:
	.loc 1 882 0
	cmpl	16(%rsp), %r14d
	.loc 1 883 0
	movq	(%rsp), %rsi
	movsd	%xmm0, (%rsi)
	.loc 1 882 0
	je	.L636
.L640:
	.loc 1 883 0 discriminator 2
	movq	(%r15), %rdi
	movq	(%rbx), %rcx
	.loc 1 882 0 discriminator 2
	addl	$4, %r14d
	.loc 1 883 0 discriminator 2
	movsd	(%rdi,%r13), %xmm0
	addq	%r13, %rcx
	movq	%rcx, (%rsp)
	addq	%rbp, %r13
	call	_Z12CumNormalInvd
.LVL143:
	movq	(%rsp), %r9
	movq	(%r15), %r11
	movq	(%rbx), %r10
	movsd	%xmm0, (%r9)
	addq	%r13, %r10
	movsd	(%r11,%r13), %xmm0
	addq	%rbp, %r13
	movq	%r10, (%rsp)
	call	_Z12CumNormalInvd
.LVL144:
	movq	(%rsp), %r8
	movq	(%r15), %rdx
	movq	(%rbx), %rax
	movsd	%xmm0, (%r8)
	addq	%r13, %rax
	movsd	(%rdx,%r13), %xmm0
	addq	%rbp, %r13
	movq	%rax, (%rsp)
	call	_Z12CumNormalInvd
.LVL145:
	movq	(%rsp), %rsi
	movq	(%r15), %rdi
	movq	(%rbx), %rcx
	movsd	%xmm0, (%rsi)
	addq	%r13, %rcx
	movsd	(%rdi,%r13), %xmm0
	addq	%rbp, %r13
	movq	%rcx, (%rsp)
	call	_Z12CumNormalInvd
.LVL146:
	.loc 1 882 0 discriminator 2
	cmpl	16(%rsp), %r14d
	.loc 1 883 0 discriminator 2
	movq	(%rsp), %r9
	movsd	%xmm0, (%r9)
	.loc 1 882 0 discriminator 2
	jne	.L640
.L636:
	addq	$8, %r12
.LBE119:
	.loc 1 881 0
	cmpq	8(%rsp), %r12
	jne	.L639
.L635:
	addq	$8, %rbx
	addq	$8, %r15
.LBE118:
	.loc 1 880 0
	cmpq	24(%rsp), %rbx
	jne	.L632
.L630:
.LBE120:
	.loc 1 887 0
	addq	$40, %rsp
.LCFI68:
	.cfi_def_cfa_offset 56
	popq	%rbx
.LCFI69:
	.cfi_def_cfa_offset 48
	popq	%rbp
.LCFI70:
	.cfi_def_cfa_offset 40
	popq	%r12
.LCFI71:
	.cfi_def_cfa_offset 32
	popq	%r13
.LCFI72:
	.cfi_def_cfa_offset 24
	popq	%r14
.LCFI73:
	.cfi_def_cfa_offset 16
	popq	%r15
.LCFI74:
	.cfi_def_cfa_offset 8
	ret
	.cfi_endproc
.LFE1077:
	.size	_Z7serialBPPdS0_iii, .-_Z7serialBPPdS0_iii
	.p2align 4,,15
	.globl	_Z13icdf_baselineiPdS_
	.type	_Z13icdf_baselineiPdS_, @function
_Z13icdf_baselineiPdS_:
.LFB1080:
	.loc 1 1204 0
	.cfi_startproc
.LBB121:
.LBB122:
	.loc 1 1243 0
	testl	%edi, %edi
	jle	.L680
.LBE122:
.LBE121:
	.loc 1 1204 0
	pushq	%r13
.LCFI75:
	.cfi_def_cfa_offset 16
	.cfi_offset 13, -16
.LBB128:
	subl	$1, %edi
	leaq	8(,%rdi,8), %r13
.LBE128:
	pushq	%r12
.LCFI76:
	.cfi_def_cfa_offset 24
	.cfi_offset 12, -24
	movq	%rdx, %r12
	pushq	%rbp
.LCFI77:
	.cfi_def_cfa_offset 32
	.cfi_offset 6, -32
	movq	%rsi, %rbp
	pushq	%rbx
.LCFI78:
	.cfi_def_cfa_offset 40
	.cfi_offset 3, -40
	xorl	%ebx, %ebx
	subq	$24, %rsp
.LCFI79:
	.cfi_def_cfa_offset 64
	movsd	.LC11(%rip), %xmm4
	jmp	.L671
	.p2align 4,,10
	.p2align 3
.L676:
.LBB129:
.LBB126:
.LBB123:
	.loc 1 1251 0
	movsd	.LC45(%rip), %xmm2
	ucomisd	%xmm0, %xmm2
	jb	.L677
	.loc 1 1252 0
	subsd	.LC0(%rip), %xmm0
	.loc 1 1254 0
	movsd	.LC46(%rip), %xmm6
	movsd	.LC52(%rip), %xmm8
	.loc 1 1253 0
	movapd	%xmm0, %xmm7
	mulsd	%xmm0, %xmm7
	.loc 1 1254 0
	mulsd	%xmm7, %xmm6
	mulsd	%xmm7, %xmm8
	addsd	.LC47(%rip), %xmm6
	addsd	.LC53(%rip), %xmm8
	mulsd	%xmm7, %xmm6
	mulsd	%xmm7, %xmm8
	subsd	.LC48(%rip), %xmm6
	subsd	.LC54(%rip), %xmm8
	mulsd	%xmm7, %xmm6
	mulsd	%xmm7, %xmm8
	addsd	.LC49(%rip), %xmm6
	addsd	.LC55(%rip), %xmm8
	mulsd	%xmm7, %xmm6
	mulsd	%xmm7, %xmm8
	subsd	.LC50(%rip), %xmm6
	subsd	.LC56(%rip), %xmm8
	mulsd	%xmm7, %xmm6
	mulsd	%xmm7, %xmm8
	addsd	.LC51(%rip), %xmm6
	addsd	%xmm4, %xmm8
	mulsd	%xmm0, %xmm6
	divsd	%xmm8, %xmm6
	.loc 1 1261 0
	movsd	%xmm6, (%r12,%rbx)
	addq	$8, %rbx
.LBE123:
	.loc 1 1243 0
	cmpq	%r13, %rbx
	je	.L682
.L671:
.LBB124:
	.loc 1 1244 0
	movsd	0(%rbp,%rbx), %xmm0
	.loc 1 1246 0
	movsd	.LC33(%rip), %xmm1
	ucomisd	%xmm0, %xmm1
	jbe	.L676
	.loc 1 1247 0
	movsd	%xmm4, (%rsp)
	call	log
	mulsd	.LC34(%rip), %xmm0
	movsd	(%rsp), %xmm4
	sqrtsd	%xmm0, %xmm5
	ucomisd	%xmm5, %xmm5
	jp	.L683
.L664:
	.loc 1 1248 0
	movsd	.LC35(%rip), %xmm6
	mulsd	%xmm5, %xmm6
	subsd	.LC36(%rip), %xmm6
	mulsd	%xmm5, %xmm6
	subsd	.LC37(%rip), %xmm6
	mulsd	%xmm5, %xmm6
	subsd	.LC38(%rip), %xmm6
	mulsd	%xmm5, %xmm6
	addsd	.LC39(%rip), %xmm6
	mulsd	%xmm5, %xmm6
	addsd	.LC40(%rip), %xmm6
.L681:
	.loc 1 1259 0
	movsd	.LC41(%rip), %xmm9
	mulsd	%xmm5, %xmm9
	addsd	.LC42(%rip), %xmm9
	mulsd	%xmm5, %xmm9
	addsd	.LC43(%rip), %xmm9
	mulsd	%xmm5, %xmm9
	addsd	.LC44(%rip), %xmm9
	mulsd	%xmm5, %xmm9
	addsd	%xmm4, %xmm9
	divsd	%xmm9, %xmm6
	.loc 1 1261 0
	movsd	%xmm6, (%r12,%rbx)
	addq	$8, %rbx
.LBE124:
	.loc 1 1243 0
	cmpq	%r13, %rbx
	jne	.L671
.L682:
.LBE126:
.LBE129:
	.loc 1 1264 0
	addq	$24, %rsp
.LCFI80:
	.cfi_def_cfa_offset 40
	popq	%rbx
.LCFI81:
	.cfi_restore 3
	.cfi_def_cfa_offset 32
	popq	%rbp
.LCFI82:
	.cfi_restore 6
	.cfi_def_cfa_offset 24
	popq	%r12
.LCFI83:
	.cfi_restore 12
	.cfi_def_cfa_offset 16
	popq	%r13
.LCFI84:
	.cfi_restore 13
	.cfi_def_cfa_offset 8
.L680:
	rep
	ret
	.p2align 4,,10
	.p2align 3
.L677:
.LCFI85:
	.cfi_def_cfa_offset 64
	.cfi_offset 3, -40
	.cfi_offset 6, -32
	.cfi_offset 12, -24
	.cfi_offset 13, -16
.LBB130:
.LBB127:
.LBB125:
	.loc 1 1258 0
	movapd	%xmm4, %xmm3
	movsd	%xmm4, (%rsp)
	subsd	%xmm0, %xmm3
	movapd	%xmm3, %xmm0
	call	log
	mulsd	.LC34(%rip), %xmm0
	movsd	(%rsp), %xmm4
	sqrtsd	%xmm0, %xmm5
	ucomisd	%xmm5, %xmm5
	jp	.L684
.L669:
	.loc 1 1259 0
	movsd	.LC35(%rip), %xmm6
	movsd	.LC13(%rip), %xmm0
	mulsd	%xmm5, %xmm6
	subsd	.LC36(%rip), %xmm6
	mulsd	%xmm5, %xmm6
	subsd	.LC37(%rip), %xmm6
	mulsd	%xmm5, %xmm6
	subsd	.LC38(%rip), %xmm6
	mulsd	%xmm5, %xmm6
	addsd	.LC39(%rip), %xmm6
	mulsd	%xmm5, %xmm6
	addsd	.LC40(%rip), %xmm6
	xorpd	%xmm0, %xmm6
	jmp	.L681
.L683:
	.loc 1 1247 0
	call	sqrt
	movsd	(%rsp), %xmm4
	movapd	%xmm0, %xmm5
	jmp	.L664
.L684:
	.loc 1 1258 0
	call	sqrt
	movsd	(%rsp), %xmm4
	movapd	%xmm0, %xmm5
	jmp	.L669
.LBE125:
.LBE127:
.LBE130:
	.cfi_endproc
.LFE1080:
	.size	_Z13icdf_baselineiPdS_, .-_Z13icdf_baselineiPdS_
	.p2align 4,,15
	.globl	_Z4dMaxdd
	.type	_Z4dMaxdd, @function
_Z4dMaxdd:
.LFB1081:
	.loc 1 1277 0
	.cfi_startproc
.LVL147:
	.loc 1 1278 0
	maxsd	%xmm1, %xmm0
.LVL148:
	.loc 1 1279 0
	ret
	.cfi_endproc
.LFE1081:
	.size	_Z4dMaxdd, .-_Z4dMaxdd
	.section	.rodata.str1.8
	.align 8
.LC57:
	.string	"Numerical Recipes run-time error...\n"
	.section	.rodata.str1.1
.LC58:
	.string	"%s\n"
.LC59:
	.string	"...now exiting to system...\n"
	.text
	.p2align 4,,15
	.globl	_Z7nrerrorPKc
	.type	_Z7nrerrorPKc, @function
_Z7nrerrorPKc:
.LFB1082:
	.loc 1 1292 0
	.cfi_startproc
.LVL149:
.LBB131:
.LBB132:
	.loc 2 99 0
	movq	stderr(%rip), %rcx
.LBE132:
.LBE131:
	.loc 1 1292 0
	pushq	%rbx
.LCFI86:
	.cfi_def_cfa_offset 16
	.cfi_offset 3, -16
.LBB135:
.LBB133:
	.loc 2 99 0
	movl	$36, %edx
.LBE133:
.LBE135:
	.loc 1 1292 0
	movq	%rdi, %rbx
.LBB136:
.LBB134:
	.loc 2 99 0
	movl	$1, %esi
	movl	$.LC57, %edi
.LVL150:
	call	fwrite
.LVL151:
.LBE134:
.LBE136:
.LBB137:
.LBB138:
	movq	stderr(%rip), %rdi
	movq	%rbx, %rcx
	movl	$.LC58, %edx
	movl	$1, %esi
	xorl	%eax, %eax
	call	__fprintf_chk
.LVL152:
.LBE138:
.LBE137:
.LBB139:
.LBB140:
	movq	stderr(%rip), %rcx
	movl	$.LC59, %edi
	movl	$28, %edx
	movl	$1, %esi
	call	fwrite
.LVL153:
.LBE140:
.LBE139:
	.loc 1 1297 0
	movl	$1, %edi
	call	exit
.LVL154:
	.cfi_endproc
.LFE1082:
	.size	_Z7nrerrorPKc, .-_Z7nrerrorPKc
	.section	.rodata.str1.1
.LC60:
	.string	"PARSEC Benchmark Suite"
.LC61:
	.string	"-sm"
.LC62:
	.string	"-nt"
.LC63:
	.string	"-ns"
.LC64:
	.string	"-sd"
.LC65:
	.string	"Error: Unknown option: %s\n"
	.section	.rodata.str1.8
	.align 8
.LC66:
	.string	"Error: Fewer swaptions than threads.\n"
	.align 8
.LC67:
	.string	"Number of Simulations: %d,  Number of threads: %d Number of swaptions: %d\n"
	.align 8
.LC70:
	.string	"Number of threads must be between 1 and %d.\n"
	.align 8
.LC71:
	.string	"allocation failure 1 in dmatrix()"
	.align 8
.LC72:
	.string	"allocation failure 2 in dmatrix()"
	.align 8
.LC99:
	.string	"allocation failure in dvector()"
	.align 8
.LC101:
	.string	"Swaption %d: [SwaptionPrice: %.10lf StdError: %.10lf] \n"
	.section	.text.startup,"ax",@progbits
	.p2align 4,,15
	.globl	main
	.type	main, @function
main:
.LFB1076:
	.loc 1 610 0
	.cfi_startproc
.LVL155:
	pushq	%rbp
.LCFI87:
	.cfi_def_cfa_offset 16
	.cfi_offset 6, -16
	movq	%rsp, %rbp
.LCFI88:
	.cfi_def_cfa_register 6
	pushq	%r15
	pushq	%r14
	.cfi_offset 15, -24
	.cfi_offset 14, -32
	movq	%rsi, %r14
	pushq	%r13
	pushq	%r12
	pushq	%rbx
	.cfi_offset 13, -40
	.cfi_offset 12, -48
	.cfi_offset 3, -56
	movl	%edi, %ebx
.LBB184:
.LBB185:
.LBB186:
	.loc 2 105 0
	movl	$.LC60, %edi
.LVL156:
.LBE186:
.LBE185:
.LBE184:
	.loc 1 610 0
	subq	$248, %rsp
	.loc 1 610 0
	movq	%fs:40, %rax
	movq	%rax, -56(%rbp)
	xorl	%eax, %eax
.LVL157:
.LBB341:
.LBB188:
.LBB187:
	.loc 2 105 0
	call	puts
.LVL158:
.LBE187:
.LBE188:
	.loc 1 623 0
	xorl	%edi, %edi
	call	fflush
.LVL159:
	.loc 1 629 0
	cmpl	$1, %ebx
	je	.L1116
.LVL160:
.LBB189:
	.loc 1 635 0 discriminator 1
	.p2align 4,,3
	jle	.L702
.LBE189:
	.loc 1 609 0
	leal	-2(%rbx), %eax
	leaq	48(%r14), %r15
	movl	$.LC61, %r12d
.LBB214:
	.loc 1 636 0
	movl	$4, %ebx
.LVL161:
	movq	%r12, %rsi
.LBE214:
	.loc 1 609 0
	shrl	%eax
.LVL162:
.LBB215:
	.loc 1 636 0
	movq	-40(%r15), %r8
	movq	%rbx, %rcx
.LBE215:
	.loc 1 609 0
	salq	$4, %rax
	leaq	64(%r14,%rax), %r13
.LBB216:
	.loc 1 636 0
	movq	%r8, %rdi
	movq	%r13, %rdx
	subq	%r15, %rdx
	subq	$16, %rdx
	shrq	$4, %rdx
	andl	$1, %edx
	movq	%rdx, -120(%rbp)
	repz cmpsb
	je	.L1123
	.loc 1 637 0
	movl	$.LC62, %esi
	movq	%r8, %rdi
	movq	%rbx, %rcx
	repz cmpsb
	je	.L1072
	.loc 1 638 0
	movl	$.LC63, %esi
	movq	%r8, %rdi
	movq	%rbx, %rcx
	repz cmpsb
	je	.L1073
	.loc 1 639 0
	movl	$.LC64, %esi
	movq	%r8, %rdi
	movq	%rbx, %rcx
	repz cmpsb
	jne	.L700
.LVL163:
.LBB190:
.LBB191:
	.file 3 "/usr/include/stdlib.h"
	.loc 3 286 0
	movq	-32(%r15), %rdi
	movl	$10, %edx
	xorl	%esi, %esi
	prefetcht0	(%r15)
.LVL164:
	call	strtol
.LVL165:
.LBE191:
.LBE190:
	.loc 1 639 0
	cltq
	movq	%rax, seed(%rip)
.L1074:
	addq	$16, %r15
	.loc 1 635 0
	cmpq	%r13, %r15
	je	.L702
	cmpq	$0, -120(%rbp)
	je	.L701
	jmp	.L1122
	.p2align 4,,10
	.p2align 3
.L1127:
	.loc 1 637 0
	movl	$.LC62, %esi
	movq	%r8, %rdi
	movq	%rbx, %rcx
	repz cmpsb
	je	.L1079
	.loc 1 638 0
	movl	$.LC63, %esi
	movq	%r8, %rdi
	movq	%rbx, %rcx
	repz cmpsb
	je	.L1080
	.loc 1 639 0
	movl	$.LC64, %esi
	movq	%r8, %rdi
	movq	%rbx, %rcx
	repz cmpsb
	jne	.L700
.LBB194:
.LBB192:
	.loc 3 286 0
	movq	-32(%r15), %rdi
	movl	$10, %edx
	xorl	%esi, %esi
	prefetcht0	(%r15)
	call	strtol
.LVL166:
.LBE192:
.LBE194:
	.loc 1 639 0
	cltq
	movq	%rax, seed(%rip)
.L1081:
	addq	$16, %r15
	.loc 1 635 0
	cmpq	%r13, %r15
	je	.L702
.L701:
	.loc 1 636 0
	movq	-40(%r15), %r8
	movq	%r12, %rsi
	movq	%rbx, %rcx
	movq	%r8, %rdi
	repz cmpsb
	je	.L1124
	.loc 1 637 0
	movl	$.LC62, %esi
	movq	%r8, %rdi
	movq	%rbx, %rcx
	repz cmpsb
	je	.L1125
	.loc 1 638 0
	movl	$.LC63, %esi
	movq	%r8, %rdi
	movq	%rbx, %rcx
	repz cmpsb
	je	.L1126
	.loc 1 639 0
	movl	$.LC64, %esi
	movq	%r8, %rdi
	movq	%rbx, %rcx
	repz cmpsb
	jne	.L700
.LBB195:
.LBB193:
	.loc 3 286 0 discriminator 1
	movq	-32(%r15), %rdi
	movl	$10, %edx
	xorl	%esi, %esi
	prefetcht0	(%r15)
	call	strtol
.LVL167:
.LBE193:
.LBE195:
	.loc 1 639 0 discriminator 1
	cltq
	movq	%rax, seed(%rip)
.L697:
	addq	$16, %r15
.L1122:
	.loc 1 636 0
	movq	-40(%r15), %r8
	movq	%r12, %rsi
	movq	%rbx, %rcx
	movq	%r8, %rdi
	repz cmpsb
	jne	.L1127
.LBB196:
.LBB197:
	.loc 3 286 0
	movq	-32(%r15), %rdi
	xorl	%esi, %esi
	movl	$10, %edx
	addq	$16, %r15
	call	strtol
.LVL168:
.LBE197:
.LBE196:
	.loc 1 635 0
	cmpq	%r13, %r15
.LBB201:
.LBB198:
	.loc 3 286 0
	movl	%eax, NUM_TRIALS(%rip)
.LBE198:
.LBE201:
	.loc 1 635 0
	jne	.L701
.L702:
.LBE216:
	.loc 1 647 0
	movl	nSwaptions(%rip), %r8d
	movl	nThreads(%rip), %ecx
	cmpl	%ecx, %r8d
	jl	.L1128
.LVL169:
.LBB217:
.LBB218:
	.loc 2 105 0
	movl	NUM_TRIALS(%rip), %edx
	movl	$.LC67, %esi
	xorl	%eax, %eax
	movl	$1, %edi
	call	__printf_chk
.LVL170:
.LBE218:
.LBE217:
.LBB219:
.LBB220:
	.loc 1 1492 0
	movq	seed(%rip), %r9
.LVL171:
	.loc 1 1493 0
	movabsq	$4730756183288445817, %r10
.LBE220:
.LBE219:
	.loc 1 664 0
	movslq	nThreads(%rip), %r8
.LBB224:
.LBB221:
	.loc 1 1493 0
	movq	%r9, %rax
	movq	%r9, %r11
	imulq	%r10
	sarq	$63, %r11
.LBE221:
.LBE224:
	.loc 1 664 0
	leal	-1(%r8), %esi
.LBB225:
.LBB222:
	.loc 1 1493 0
	sarq	$15, %rdx
	subq	%r11, %rdx
.LVL172:
	.loc 1 1494 0
	imulq	$-127773, %rdx, %r14
.LVL173:
	imulq	$-2836, %rdx, %r13
	addq	%r9, %r14
	imulq	$16807, %r14, %r15
	addq	%r13, %r15
.LVL174:
	.loc 1 1495 0
	leaq	2147483647(%r15), %r12
	testq	%r15, %r15
	cmovs	%r12, %r15
.LVL175:
.LBE222:
.LBE225:
	.loc 1 664 0
	cmpl	$1023, %esi
.LBB226:
.LBB223:
	.loc 1 1497 0
	cvtsi2sdq	%r15, %xmm0
	.loc 1 1496 0
	movq	%r15, seed(%rip)
.LVL176:
	.loc 1 1497 0
	mulsd	.LC68(%rip), %xmm0
.LBE223:
.LBE226:
	.loc 1 654 0
	mulsd	.LC69(%rip), %xmm0
	cvttsd2siq	%xmm0, %rbx
	movq	%rbx, swaption_seed(%rip)
	.loc 1 664 0
	ja	.L1117
	.loc 1 669 0
	leaq	0(,%r8,8), %rdi
	call	malloc
.LVL177:
	.loc 1 670 0
	leaq	-112(%rbp), %rdi
	.loc 1 669 0
	movq	%rax, -280(%rbp)
.LVL178:
	.loc 1 670 0
	call	pthread_attr_init
.LVL179:
	.loc 1 674 0
	movl	nThreads(%rip), %edi
	movl	%edi, %ecx
	movl	%edi, -232(%rbp)
	subl	$1, %ecx
	cmpl	$1023, %ecx
	ja	.L1117
	.loc 1 689 0
	movl	iFactors(%rip), %r10d
	movl	iN(%rip), %r9d
	movl	%r10d, %eax
	movl	%r9d, %edx
	movl	%r9d, -132(%rbp)
	subl	$1, %eax
	subl	$2, %edx
	movl	%r10d, -136(%rbp)
	cltq
	movslq	%edx, %r15
.LBB227:
.LBB228:
.LBB229:
	.loc 1 1441 0
	leaq	16(,%rax,8), %r11
	.loc 1 1437 0
	movq	%rax, %r14
.LBE229:
.LBE228:
.LBE227:
	.loc 1 689 0
	movq	%rax, -168(%rbp)
.LVL180:
.LBB248:
.LBB239:
.LBB230:
	.loc 1 1437 0
	addq	$1, %r14
.LVL181:
	addq	$1, %r15
.LVL182:
	.loc 1 1441 0
	movq	%r11, %rdi
	movq	%r11, -240(%rbp)
	call	malloc
.LVL183:
	.loc 1 1442 0
	testq	%rax, %rax
	.loc 1 1441 0
	movq	%rax, %rbx
.LVL184:
	.loc 1 1442 0
	je	.L720
.LVL185:
	.loc 1 1447 0
	imulq	%r15, %r14
.LVL186:
	.loc 1 1444 0
	leaq	8(%rax), %r13
.LVL187:
	movq	%r13, -160(%rbp)
	.loc 1 1447 0
	leaq	8(,%r14,8), %r12
.LVL188:
	movq	%r12, %rdi
	movq	%r12, -248(%rbp)
	call	malloc
.LVL189:
	.loc 1 1448 0
	testq	%rax, %rax
	je	.L726
	.loc 1 1452 0
	cmpq	$0, -168(%rbp)
	.loc 1 1449 0
	leaq	8(%rax), %r8
	movq	%r8, 8(%rbx)
.LVL190:
	.loc 1 1452 0
	jle	.L714
.LBE230:
.LBE239:
.LBE248:
	.loc 1 609 0
	movq	-168(%rbp), %rsi
	leaq	0(,%r15,8), %rdx
	subq	$6, %rsi
	cmpl	$9, -136(%rbp)
	movq	%rsi, -144(%rbp)
	jle	.L758
	movq	%r15, %rcx
	leaq	(%r8,%rdx), %r10
.LBB249:
.LBB240:
.LBB231:
	.loc 1 1452 0
	movq	-160(%rbp), %rsi
.LBE231:
.LBE240:
.LBE249:
	.loc 1 609 0
	salq	$4, %rcx
	movq	-168(%rbp), %r13
.LVL191:
	prefetcht0	176(%rbx)
	leaq	(%rcx,%rdx,4), %rdi
	leaq	(%r8,%rcx), %r11
.LBB250:
.LBB241:
.LBB232:
	.loc 1 1452 0
	movq	%r10, 8(%rsi)
.LVL192:
.LBE232:
.LBE241:
.LBE250:
	.loc 1 609 0
	leaq	(%rdi,%rdx,2), %rdi
.LBB251:
.LBB242:
.LBB233:
	.loc 1 1452 0
	movq	%r11, 16(%rsi)
	subq	$9, %r13
	shrq	$3, %r13
.LBE233:
.LBE242:
.LBE251:
	.loc 1 609 0
	leaq	(%r8,%rdi), %r9
	movq	%rdx, %r8
	andl	$1, %r13d
	negq	%r8
	addq	%rdi, %r10
	addq	%rdi, %r11
	leaq	0(,%r8,4), %r12
	addq	%r8, %r8
	movq	%r8, -128(%rbp)
	movq	%r12, %rax
.LBB252:
.LBB243:
.LBB234:
	leaq	(%r9,%r12), %r8
.LBE234:
.LBE243:
.LBE252:
	leaq	(%r12,%rdx), %r14
	subq	%rdx, %rax
.LBB253:
.LBB244:
.LBB235:
	movq	%rax, %rcx
.LBE235:
.LBE244:
.LBE253:
	movq	%rax, -120(%rbp)
.LBB254:
.LBB245:
.LBB236:
	movq	-160(%rbp), %rax
	addq	%r9, %rcx
	leaq	(%r9,%r14), %rsi
	movq	%rcx, 24(%rax)
	movq	-128(%rbp), %rcx
	movq	%r8, 32(%rax)
	movq	%r9, %r8
	movq	%rsi, 40(%rax)
	subq	%rdx, %r8
	.loc 1 1452 0
	movq	%r9, 64(%rax)
	movl	$9, %esi
	.loc 1 609 0
	addq	%r9, %rcx
	movq	%r8, 56(%rax)
	.loc 1 1452 0
	movq	%r9, %r8
	.loc 1 609 0
	movq	%rcx, 48(%rax)
	leaq	(%r9,%rdi), %rax
	movl	$10, %r9d
	cmpq	-144(%rbp), %r9
	leaq	72(%rbx), %rcx
	jge	.L711
	testq	%r13, %r13
	je	.L1109
	movq	-120(%rbp), %r9
	movq	-128(%rbp), %r8
	leaq	(%rax,%r14), %rsi
	.loc 1 1452 0
	movq	%r10, 8(%rcx)
	movq	%r11, 16(%rcx)
	.loc 1 609 0
	leaq	(%rax,%r12), %r13
	.loc 1 1452 0
	movq	%rax, 64(%rcx)
	addq	%rdi, %r10
	addq	%rdi, %r11
	.loc 1 609 0
	addq	%rax, %r9
	addq	%rax, %r8
	movq	%rsi, 40(%rcx)
	movq	%r9, 24(%rcx)
	movq	%rax, %r9
	movq	%r8, 48(%rcx)
	subq	%rdx, %r9
	.loc 1 1452 0
	movq	%rax, %r8
	addq	%rdi, %rax
	.loc 1 609 0
	movq	%r9, 56(%rcx)
	movl	$18, %r9d
	cmpq	-144(%rbp), %r9
	movq	%r13, 32(%rcx)
	prefetcht0	240(%rbx)
	.loc 1 1452 0
	movl	$17, %esi
	leaq	136(%rbx), %rcx
	jge	.L711
.L1109:
	movq	-128(%rbp), %r13
.L712:
	.loc 1 609 0
	movq	-120(%rbp), %r8
	leaq	(%rax,%r12), %r9
	.loc 1 1452 0
	movq	%rax, 64(%rcx)
	movq	%r10, 8(%rcx)
	movq	%r11, 16(%rcx)
	addq	%rdi, %r10
	.loc 1 609 0
	movq	%r9, 32(%rcx)
	leaq	(%rax,%r13), %r9
	addq	%rdi, %r11
	addq	%rax, %r8
	.loc 1 1452 0
	addq	$16, %rsi
	movq	%r10, 72(%rcx)
	.loc 1 609 0
	movq	%r8, 24(%rcx)
	leaq	(%rax,%r14), %r8
	movq	%r9, 48(%rcx)
	.loc 1 1452 0
	movq	%r11, 80(%rcx)
	prefetcht0	168(%rcx)
	prefetcht0	232(%rcx)
	.loc 1 609 0
	movq	%r8, 40(%rcx)
	movq	%rax, %r8
	addq	%rdi, %r10
	subq	%rdx, %r8
	addq	%rdi, %r11
	movq	%r8, 56(%rcx)
	leaq	(%rax,%rdi), %r8
	movq	-120(%rbp), %rax
	leaq	(%r8,%r12), %r9
	.loc 1 1452 0
	movq	%r8, 128(%rcx)
	.loc 1 609 0
	addq	%r8, %rax
	movq	%rax, 88(%rcx)
	leaq	(%r8,%r14), %rax
	movq	%r9, 96(%rcx)
	leaq	(%r8,%r13), %r9
	movq	%rax, 104(%rcx)
	movq	%r8, %rax
	subq	%rdx, %rax
	movq	%r9, 112(%rcx)
	leaq	1(%rsi), %r9
	movq	%rax, 120(%rcx)
	subq	$-128, %rcx
	cmpq	-144(%rbp), %r9
	leaq	(%r8,%rdi), %rax
	jl	.L712
.L711:
	movq	-168(%rbp), %rdi
	addq	%rdx, %r8
	subq	%r9, %rdi
	addq	$1, %rdi
	andl	$7, %edi
	je	.L1107
	.loc 1 1452 0
	movq	-160(%rbp), %r10
	movq	%r8, (%r10,%rsi,8)
	addq	%rdx, %r8
	cmpq	%r9, -168(%rbp)
	movq	%r9, %rsi
.LVL193:
	jl	.L714
	addq	$1, %r9
	cmpq	$1, %rdi
	je	.L1107
	cmpq	$2, %rdi
	je	.L1002
	cmpq	$3, %rdi
	je	.L1003
	cmpq	$4, %rdi
	je	.L1004
	cmpq	$5, %rdi
	je	.L1005
	cmpq	$6, %rdi
	je	.L1006
	movq	%r8, (%r10,%rsi,8)
	movq	%r9, %rsi
.LVL194:
	addq	%rdx, %r8
	addq	$1, %r9
.L1006:
	movq	-160(%rbp), %r11
	movq	%r8, (%r11,%rsi,8)
	movq	%r9, %rsi
.LVL195:
	addq	%rdx, %r8
	addq	$1, %r9
.L1005:
	movq	-160(%rbp), %r12
	movq	%r8, (%r12,%rsi,8)
	movq	%r9, %rsi
.LVL196:
	addq	%rdx, %r8
	addq	$1, %r9
.L1004:
	movq	-160(%rbp), %r14
	movq	%r8, (%r14,%rsi,8)
	movq	%r9, %rsi
.LVL197:
	addq	%rdx, %r8
	addq	$1, %r9
.L1003:
	movq	-160(%rbp), %rcx
	movq	%r8, (%rcx,%rsi,8)
	movq	%r9, %rsi
.LVL198:
	addq	%rdx, %r8
	addq	$1, %r9
.L1002:
	movq	-160(%rbp), %r13
	movq	%r8, 0(%r13,%rsi,8)
	movq	%r13, %rax
	movq	%r9, %rsi
.LVL199:
	addq	%rdx, %r8
	addq	$1, %r9
	jmp	.L713
.LVL200:
.L1129:
	movq	%r8, (%rax,%r9,8)
	addq	%rdx, %r8
	leaq	7(%r9), %rsi
	movq	%r8, 8(%rax,%r9,8)
	addq	%rdx, %r8
	movq	%r8, 16(%rax,%r9,8)
	addq	%rdx, %r8
	movq	%r8, 24(%rax,%r9,8)
	addq	%rdx, %r8
	movq	%r8, 32(%rax,%r9,8)
	addq	%rdx, %r8
	movq	%r8, 40(%rax,%r9,8)
	addq	%rdx, %r8
	movq	%r8, 48(%rax,%r9,8)
	addq	%rdx, %r8
	addq	$8, %r9
.LVL201:
.L713:
	movq	%r8, (%rax,%rsi,8)
.LVL202:
	addq	%rdx, %r8
	cmpq	%r9, -168(%rbp)
	jge	.L1129
.LVL203:
.L714:
.LBE236:
.LBE245:
.LBE254:
	.loc 1 691 0
	movq	8(%rbx), %r8
	.loc 1 702 0
	movq	16(%rbx), %rax
	.loc 1 697 0
	movabsq	$4576918229304087675, %r12
	.loc 1 691 0
	movabsq	$4576918229304087675, %rsi
	.loc 1 692 0
	movabsq	$4576918229304087675, %rdx
	.loc 1 693 0
	movabsq	$4576918229304087675, %r9
	.loc 1 694 0
	movabsq	$4576918229304087675, %rdi
	.loc 1 695 0
	movabsq	$4576918229304087675, %r10
	.loc 1 696 0
	movabsq	$4576918229304087675, %r11
	.loc 1 697 0
	movq	%r12, 48(%r8)
	.loc 1 698 0
	movabsq	$4576918229304087675, %r14
	.loc 1 699 0
	movabsq	$4576918229304087675, %rcx
	.loc 1 700 0
	movabsq	$4576918229304087675, %r13
	.loc 1 709 0
	movabsq	$4571830098473881507, %r12
	.loc 1 691 0
	movq	%rsi, (%r8)
	.loc 1 692 0
	movq	%rdx, 8(%r8)
	.loc 1 693 0
	movq	%r9, 16(%r8)
	.loc 1 703 0
	movabsq	$4575873105960161568, %rsi
	.loc 1 694 0
	movq	%rdi, 24(%r8)
	.loc 1 695 0
	movq	%r10, 32(%r8)
	.loc 1 704 0
	movabsq	$4575190864659810466, %rdx
	.loc 1 696 0
	movq	%r11, 40(%r8)
	.loc 1 698 0
	movq	%r14, 56(%r8)
	.loc 1 705 0
	movabsq	$4574378054999062639, %r9
	.loc 1 699 0
	movq	%rcx, 64(%r8)
	.loc 1 700 0
	movq	%r13, 72(%r8)
	.loc 1 706 0
	movabsq	$4573642491079123471, %rdi
	.loc 1 709 0
	movq	%r12, 56(%rax)
	.loc 1 729 0
	movl	nSwaptions(%rip), %r12d
	.loc 1 702 0
	movabsq	$4576369438667894816, %r8
	.loc 1 707 0
	movabsq	$4572977255370965320, %r10
	.loc 1 708 0
	movabsq	$4572375430345560546, %r11
	.loc 1 710 0
	movabsq	$4571337800991414384, %r14
	.loc 1 711 0
	movabsq	$4570629618957209628, %rcx
	.loc 1 702 0
	movq	%r8, (%rax)
	.loc 1 703 0
	movq	%rsi, 8(%rax)
	.loc 1 704 0
	movq	%rdx, 16(%rax)
	.loc 1 705 0
	movq	%r9, 24(%rax)
	.loc 1 715 0
	movabsq	$4557750909289998844, %r8
	.loc 1 706 0
	movq	%rdi, 32(%rax)
	.loc 1 707 0
	movq	%r10, 40(%rax)
	.loc 1 720 0
	movabsq	$-4663315284555563270, %rdi
	.loc 1 708 0
	movq	%r11, 48(%rax)
	.loc 1 710 0
	movq	%r14, 64(%rax)
	.loc 1 729 0
	movslq	%r12d, %r14
	.loc 1 711 0
	movq	%rcx, 72(%rax)
	.loc 1 713 0
	movq	24(%rbx), %rax
	.loc 1 729 0
	leaq	(%r14,%r14,2), %rcx
	.loc 1 713 0
	movabsq	$4562254508917369340, %rbx
	.loc 1 716 0
	movabsq	$4553247309662628348, %rsi
	.loc 1 718 0
	movabsq	$-4670124727192147460, %rdx
	.loc 1 719 0
	movabsq	$-4665621127564776964, %r9
	.loc 1 721 0
	movabsq	$-4661117527937406468, %r10
	.loc 1 722 0
	movabsq	$-4659964606432799621, %r11
	.loc 1 720 0
	movq	%rdi, 56(%rax)
	.loc 1 729 0
	leaq	(%r14,%rcx,4), %rdi
	.loc 1 714 0
	movabsq	$4560056752299212538, %r13
	.loc 1 713 0
	movq	%rbx, (%rax)
	.loc 1 714 0
	movq	%r13, 8(%rax)
	.loc 1 729 0
	salq	$3, %rdi
	.loc 1 715 0
	movq	%r8, 16(%rax)
	.loc 1 716 0
	movq	%rsi, 24(%rax)
	.loc 1 717 0
	movq	$0, 32(%rax)
	.loc 1 718 0
	movq	%rdx, 40(%rax)
	.loc 1 719 0
	movq	%r9, 48(%rax)
	.loc 1 721 0
	movq	%r10, 64(%rax)
	.loc 1 722 0
	movq	%r11, 72(%rax)
	.loc 1 729 0
	movl	%r12d, -228(%rbp)
	call	malloc
.LVL204:
	.loc 1 733 0
	movl	-228(%rbp), %ebx
	.loc 1 729 0
	movq	%rax, swaptions(%rip)
.LVL205:
	.loc 1 733 0
	testl	%ebx, %ebx
	jle	.L710
	leaq	0(,%r15,8), %r9
	movl	-132(%rbp), %r13d
	movq	%rax, %r14
	.loc 1 609 0
	movl	-132(%rbp), %eax
	salq	$4, %r15
.LVL206:
	movq	seed(%rip), %rsi
	movq	%r9, %rdi
	movq	%r15, -264(%rbp)
	leaq	(%r15,%r9,2), %r15
	negq	%rdi
	subl	$1, %r13d
	movq	%r9, -152(%rbp)
	leaq	0(,%rdi,4), %r10
	movslq	%r13d, %r8
	subl	$10, %eax
	leaq	16(,%r8,8), %rdx
	andl	$-8, %eax
	addq	%rdi, %rdi
	movq	%r10, -192(%rbp)
	movq	-192(%rbp), %r11
	addl	$9, %eax
	subq	%r9, %r10
	addq	%r9, %r15
	movq	%rsi, -176(%rbp)
	movq	%rdx, -256(%rbp)
	movl	%eax, -184(%rbp)
	addq	%r9, %r11
	movq	%r10, -208(%rbp)
	movq	%rdi, -224(%rbp)
	movq	%r11, -216(%rbp)
.LBE341:
	.loc 1 733 0
	movl	$0, -180(%rbp)
.LBB342:
	.loc 1 609 0
	movq	%r15, -272(%rbp)
.LVL207:
	.p2align 4,,10
	.p2align 3
.L751:
.LBB255:
.LBB256:
	.loc 1 1493 0
	movq	-176(%rbp), %rax
	movabsq	$4730756183288445817, %rsi
	movq	-176(%rbp), %r9
.LBE256:
.LBE255:
	.loc 1 734 0
	movl	-180(%rbp), %ecx
	.loc 1 735 0
	movl	-132(%rbp), %ebx
	leaq	104(%r14), %r12
	.loc 1 736 0
	movl	-136(%rbp), %r8d
	.loc 1 740 0
	movq	$0, 32(%r14)
	prefetcht0	176(%r14)
.LBB263:
.LBB257:
	.loc 1 1493 0
	imulq	%rsi
	sarq	$63, %r9
	movq	%r12, -200(%rbp)
.LBE257:
.LBE263:
	.loc 1 734 0
	movl	%ecx, (%r14)
	.loc 1 735 0
	movl	%ebx, 64(%r14)
	prefetcht0	(%r12)
	.loc 1 736 0
	movl	%r8d, 80(%r14)
.LVL208:
.LBB264:
.LBB258:
	.loc 1 1493 0
	sarq	$15, %rdx
	subq	%r9, %rdx
.LVL209:
	.loc 1 1494 0
	imulq	$-127773, %rdx, %rdi
	addq	-176(%rbp), %rdi
	imulq	$-2836, %rdx, %r11
	imulq	$16807, %rdi, %r10
	addq	%r11, %r10
.LVL210:
.LBE258:
.LBE264:
	.loc 1 742 0
	movabsq	$4611686018427387904, %r11
.LBB265:
.LBB259:
	.loc 1 1495 0
	leaq	2147483647(%r10), %r15
	testq	%r10, %r10
.LBE259:
.LBE265:
	.loc 1 742 0
	movq	%r11, 48(%r14)
.LBB266:
.LBB260:
	.loc 1 1495 0
	cmovns	%r10, %r15
.LVL211:
.LBE260:
.LBE266:
	.loc 1 741 0
	movabsq	$4607182418800017408, %r10
.LVL212:
.LBB267:
.LBB268:
	.loc 1 1493 0
	movq	%r15, %rax
	movq	%r15, %rcx
.LBE268:
.LBE267:
	.loc 1 741 0
	movq	%r10, 40(%r14)
.LBB275:
.LBB269:
	.loc 1 1493 0
	imulq	%rsi
.LVL213:
	sarq	$63, %rcx
.LBE269:
.LBE275:
.LBB276:
.LBB261:
	.loc 1 1497 0
	cvtsi2sdq	%r15, %xmm1
.LBE261:
.LBE276:
.LBB277:
.LBB270:
	.loc 1 1493 0
	sarq	$15, %rdx
	subq	%rcx, %rdx
	.loc 1 1494 0
	imulq	$-127773, %rdx, %rbx
	imulq	$-2836, %rdx, %rsi
.LVL214:
	addq	%r15, %rbx
.LBE270:
.LBE277:
	.loc 1 743 0
	movabsq	$4607182418800017408, %r15
.LBB278:
.LBB271:
	.loc 1 1494 0
	imulq	$16807, %rbx, %r8
.LBE271:
.LBE278:
	.loc 1 743 0
	movq	%r15, 56(%r14)
.LBB279:
.LBB262:
	.loc 1 1497 0
	mulsd	.LC68(%rip), %xmm1
.LBE262:
.LBE279:
.LBB280:
.LBB272:
	.loc 1 1494 0
	addq	%rsi, %r8
	.loc 1 1495 0
	leaq	2147483647(%r8), %r9
.LVL215:
	testq	%r8, %r8
	cmovs	%r9, %r8
.LBE272:
.LBE280:
	.loc 1 737 0
	mulsd	.LC93(%rip), %xmm1
.LBB281:
.LBB273:
	.loc 1 1497 0
	cvtsi2sdq	%r8, %xmm3
	.loc 1 1495 0
	movq	%r8, -176(%rbp)
	.loc 1 1496 0
	movq	%r8, seed(%rip)
.LBE273:
.LBE281:
	.loc 1 737 0
	cvttsd2si	%xmm1, %r12d
.LBB282:
.LBB274:
	.loc 1 1497 0
	mulsd	.LC68(%rip), %xmm3
.LBE274:
.LBE282:
	.loc 1 737 0
	cvtsi2sd	%r12d, %xmm2
	.loc 1 739 0
	mulsd	.LC96(%rip), %xmm3
	cvttsd2si	%xmm3, %edi
.LVL216:
	.loc 1 737 0
	mulsd	.LC94(%rip), %xmm2
	addsd	.LC95(%rip), %xmm2
	.loc 1 739 0
	cvtsi2sd	%edi, %xmm4
.LBB283:
.LBB284:
.LBB285:
	.loc 1 1417 0
	movq	-256(%rbp), %rdi
.LBE285:
.LBE284:
.LBE283:
	.loc 1 737 0
	movsd	%xmm2, 72(%r14)
.LVL217:
	.loc 1 739 0
	mulsd	.LC97(%rip), %xmm4
	addsd	.LC97(%rip), %xmm4
	movsd	%xmm4, 24(%r14)
.LBB292:
.LBB289:
.LBB286:
	.loc 1 1417 0
	call	malloc
.LVL218:
	.loc 1 1418 0
	testq	%rax, %rax
	je	.L1130
.LBE286:
.LBE289:
.LBE292:
	.loc 1 747 0
	cmpl	$1, -132(%rbp)
.LBB293:
.LBB290:
.LBB287:
	.loc 1 745 0
	leaq	8(%rax), %r9
.LBE287:
.LBE290:
.LBE293:
	.loc 1 746 0
	movabsq	$4591870180066957722, %r12
	movq	%r12, 8(%rax)
.LVL219:
	.loc 1 745 0
	movq	%r9, 88(%r14)
	.loc 1 747 0
	jle	.L725
	cmpl	$9, -132(%rbp)
.LBB294:
.LBB295:
.LBB296:
	.loc 1 748 0
	movsd	.LC97(%rip), %xmm5
	jle	.L759
	movsd	.LC100(%rip), %xmm6
	movl	-184(%rbp), %ebx
.LBE296:
.LBE295:
.LBE294:
	.loc 1 747 0
	movl	$9, %ecx
.LBB315:
.LBB306:
.LBB297:
	.loc 1 609 0
	leaq	176(%rax), %rdx
	leaq	240(%rax), %r8
.LBE297:
.LBE306:
.LBE315:
	.loc 1 748 0
	addsd	%xmm6, %xmm5
	subl	$9, %ebx
	prefetcht0	(%rdx)
	shrl	$3, %ebx
	andl	$1, %ebx
	cmpl	-184(%rbp), %ecx
	movsd	%xmm5, 16(%rax)
.LVL220:
	addsd	%xmm6, %xmm5
	movsd	%xmm5, 24(%rax)
	addsd	%xmm6, %xmm5
	movsd	%xmm5, 32(%rax)
	addsd	%xmm6, %xmm5
	movsd	%xmm5, 40(%rax)
	addsd	%xmm6, %xmm5
	movsd	%xmm5, 48(%rax)
	addsd	%xmm6, %xmm5
	movsd	%xmm5, 56(%rax)
	addsd	%xmm6, %xmm5
	movsd	%xmm5, 64(%rax)
	addsd	%xmm6, %xmm5
	movsd	%xmm5, 72(%rax)
	je	.L722
	testl	%ebx, %ebx
	je	.L1106
	addsd	%xmm6, %xmm5
	.loc 1 747 0
	movl	$17, %ecx
	cmpl	-184(%rbp), %ecx
	prefetcht0	(%r8)
	.loc 1 748 0
	movsd	%xmm5, -160(%r8)
	addsd	%xmm6, %xmm5
	movsd	%xmm5, -152(%r8)
	addsd	%xmm6, %xmm5
	movsd	%xmm5, -144(%r8)
	addsd	%xmm6, %xmm5
	movsd	%xmm5, -136(%r8)
	addsd	%xmm6, %xmm5
	movsd	%xmm5, -128(%r8)
	addsd	%xmm6, %xmm5
	movsd	%xmm5, -120(%r8)
	addsd	%xmm6, %xmm5
	movsd	%xmm5, -112(%r8)
	addsd	%xmm6, %xmm5
	movsd	%xmm5, -104(%r8)
	leaq	304(%rax), %r8
	je	.L722
.L1106:
	movl	-184(%rbp), %esi
.LVL221:
.L723:
	.loc 1 748 0 is_stmt 0 discriminator 2
	addsd	%xmm6, %xmm5
	leaq	64(%r8), %rax
	.loc 1 747 0 is_stmt 1 discriminator 2
	addl	$16, %ecx
	prefetcht0	(%r8)
	prefetcht0	(%rax)
	.loc 1 748 0 discriminator 2
	movsd	%xmm5, -160(%r8)
	addsd	%xmm6, %xmm5
	movsd	%xmm5, -152(%r8)
	addsd	%xmm6, %xmm5
	movsd	%xmm5, -144(%r8)
	addsd	%xmm6, %xmm5
	movsd	%xmm5, -136(%r8)
	addsd	%xmm6, %xmm5
	movsd	%xmm5, -128(%r8)
	addsd	%xmm6, %xmm5
	movsd	%xmm5, -120(%r8)
	addsd	%xmm6, %xmm5
	movsd	%xmm5, -112(%r8)
	addsd	%xmm6, %xmm5
	movsd	%xmm5, -104(%r8)
	addsd	%xmm6, %xmm5
	movsd	%xmm5, -96(%r8)
	addsd	%xmm6, %xmm5
	movsd	%xmm5, -88(%r8)
	addsd	%xmm6, %xmm5
	movsd	%xmm5, -80(%r8)
	addsd	%xmm6, %xmm5
	movsd	%xmm5, -72(%r8)
	addsd	%xmm6, %xmm5
	movsd	%xmm5, -64(%r8)
	addsd	%xmm6, %xmm5
	movsd	%xmm5, -56(%r8)
	addsd	%xmm6, %xmm5
	movsd	%xmm5, -48(%r8)
	addsd	%xmm6, %xmm5
	movsd	%xmm5, -40(%r8)
	subq	$-128, %r8
	cmpl	%esi, %ecx
	jne	.L723
.LVL222:
.L722:
	movl	%ecx, %r11d
	.loc 1 748 0 is_stmt 0
	addsd	%xmm6, %xmm5
	.loc 1 747 0 is_stmt 1
	leal	1(%rcx), %r15d
	notl	%r11d
	addl	-132(%rbp), %r11d
	.loc 1 609 0
	movslq	%ecx, %rdi
	leaq	(%r9,%rdi,8), %r10
	.loc 1 748 0
	movsd	%xmm5, (%r10)
	leaq	8(%r10), %r12
	andl	$7, %r11d
	.loc 1 747 0
	cmpl	%r15d, -132(%rbp)
	jle	.L725
	testl	%r11d, %r11d
	je	.L724
	cmpl	$1, %r11d
	je	.L996
	cmpl	$2, %r11d
	je	.L997
	cmpl	$3, %r11d
	je	.L998
	cmpl	$4, %r11d
	je	.L999
	cmpl	$5, %r11d
	je	.L1000
	cmpl	$6, %r11d
	je	.L1001
	.loc 1 748 0
	addsd	%xmm6, %xmm5
	.loc 1 747 0
	leal	2(%rcx), %r15d
	leaq	16(%r10), %r12
	.loc 1 748 0
	movsd	%xmm5, 8(%r10)
.L1001:
	addsd	%xmm6, %xmm5
	.loc 1 747 0
	addl	$1, %r15d
	.loc 1 748 0
	movsd	%xmm5, (%r12)
	addq	$8, %r12
.L1000:
	addsd	%xmm6, %xmm5
	.loc 1 747 0
	addl	$1, %r15d
	.loc 1 748 0
	movsd	%xmm5, (%r12)
	addq	$8, %r12
.L999:
	addsd	%xmm6, %xmm5
	.loc 1 747 0
	addl	$1, %r15d
	.loc 1 748 0
	movsd	%xmm5, (%r12)
	addq	$8, %r12
.L998:
	addsd	%xmm6, %xmm5
	.loc 1 747 0
	addl	$1, %r15d
	.loc 1 748 0
	movsd	%xmm5, (%r12)
	addq	$8, %r12
.L997:
	addsd	%xmm6, %xmm5
	.loc 1 747 0
	addl	$1, %r15d
	.loc 1 748 0
	movsd	%xmm5, (%r12)
	addq	$8, %r12
.L996:
	addsd	%xmm6, %xmm5
	.loc 1 747 0
	addl	$1, %r15d
	.loc 1 748 0
	movsd	%xmm5, (%r12)
	addq	$8, %r12
	.loc 1 747 0
	cmpl	%r15d, -132(%rbp)
	jle	.L725
.L724:
	.loc 1 748 0
	addsd	%xmm6, %xmm5
	.loc 1 747 0
	addl	$8, %r15d
	.loc 1 748 0
	movsd	%xmm5, (%r12)
	addsd	%xmm6, %xmm5
	movsd	%xmm5, 8(%r12)
	addsd	%xmm6, %xmm5
	movsd	%xmm5, 16(%r12)
	addsd	%xmm6, %xmm5
	movsd	%xmm5, 24(%r12)
	addsd	%xmm6, %xmm5
	movsd	%xmm5, 32(%r12)
	addsd	%xmm6, %xmm5
	movsd	%xmm5, 40(%r12)
	addsd	%xmm6, %xmm5
	movsd	%xmm5, 48(%r12)
	addsd	%xmm6, %xmm5
	movsd	%xmm5, 56(%r12)
	addq	$64, %r12
	.loc 1 747 0
	cmpl	%r15d, -132(%rbp)
	jg	.L724
.L725:
.LVL223:
.LBB316:
.LBB307:
.LBB298:
	.loc 1 1441 0
	movq	-240(%rbp), %rdi
	call	malloc
.LVL224:
	.loc 1 1442 0
	testq	%rax, %rax
	.loc 1 1441 0
	movq	%rax, %rbx
.LVL225:
	.loc 1 1442 0
	je	.L720
.LVL226:
	.loc 1 1447 0
	movq	-248(%rbp), %rdi
	.loc 1 1444 0
	leaq	8(%rax), %rdx
.LVL227:
	movq	%rdx, -144(%rbp)
	.loc 1 1447 0
	call	malloc
.LVL228:
	.loc 1 1448 0
	testq	%rax, %rax
	.loc 1 1447 0
	movq	%rax, 8(%rbx)
	.loc 1 1448 0
	je	.L726
	.loc 1 1452 0
	cmpq	$0, -168(%rbp)
	.loc 1 1449 0
	leaq	8(%rax), %r9
	movq	%r9, 8(%rbx)
.LVL229:
	.loc 1 1452 0
	jle	.L733
.LBE298:
.LBE307:
.LBE316:
	.loc 1 609 0
	movq	-168(%rbp), %r12
	subq	$6, %r12
	cmpl	$9, -136(%rbp)
	jle	.L761
	movq	-152(%rbp), %rsi
	movq	-272(%rbp), %rcx
	prefetcht0	176(%rbx)
	movq	-264(%rbp), %rax
.LBB317:
.LBB308:
.LBB299:
	.loc 1 1452 0
	movq	-144(%rbp), %r15
	movq	-168(%rbp), %r11
	.loc 1 609 0
	movq	-192(%rbp), %rdx
.LBE299:
.LBE308:
.LBE317:
	leaq	(%rcx,%rsi,2), %r8
	movq	%rsi, %r10
.LBB318:
.LBB309:
.LBB300:
	movq	-224(%rbp), %rcx
.LBE300:
.LBE309:
.LBE318:
	addq	%r9, %r10
	addq	%r9, %rax
	addq	%rsi, %r8
.LBB319:
.LBB310:
.LBB301:
	movq	-216(%rbp), %rsi
	subq	$9, %r11
.LBE301:
.LBE310:
.LBE319:
	leaq	(%r9,%r8), %rdi
.LBB320:
.LBB311:
.LBB302:
	movq	-208(%rbp), %r9
	shrq	$3, %r11
	andl	$1, %r11d
	.loc 1 1452 0
	movq	%r10, 8(%r15)
.LVL230:
	movq	%rax, 16(%r15)
	.loc 1 609 0
	addq	%rdi, %rdx
	addq	%rdi, %rsi
	addq	%rdi, %rcx
	addq	%rdi, %r9
	addq	%r8, %r10
	addq	%r8, %rax
	movq	%r9, 24(%r15)
	movq	%rdi, %r9
	subq	-152(%rbp), %r9
	cmpq	$10, %r12
	movq	%rdx, 32(%r15)
	movq	%rsi, 40(%r15)
	movq	%rcx, 48(%r15)
	.loc 1 1452 0
	movq	%rdi, 64(%r15)
	leaq	72(%rbx), %rcx
	.loc 1 609 0
	movl	$10, %edx
	movq	%r9, 56(%r15)
	.loc 1 1452 0
	movq	%rdi, %r9
	movl	$9, %edi
	leaq	(%r9,%r8), %rsi
	jle	.L730
	testq	%r11, %r11
	je	.L1102
	.loc 1 609 0
	movq	%rsi, %r9
	subq	-152(%rbp), %r9
	movq	-208(%rbp), %rdi
	movq	-192(%rbp), %r11
	movq	-216(%rbp), %r15
	prefetcht0	240(%rbx)
	movq	-224(%rbp), %rdx
	.loc 1 1452 0
	movq	%r10, 8(%rcx)
	addq	%r8, %r10
	.loc 1 609 0
	addq	%rsi, %rdi
	.loc 1 1452 0
	movq	%rax, 16(%rcx)
	movq	%rsi, 64(%rcx)
	.loc 1 609 0
	addq	%rsi, %r11
	addq	%rsi, %r15
	movq	%r9, 56(%rcx)
	addq	%rsi, %rdx
	.loc 1 1452 0
	movq	%rsi, %r9
	addq	%r8, %rax
	addq	%r8, %rsi
	cmpq	$18, %r12
	.loc 1 609 0
	movq	%rdi, 24(%rcx)
	movq	%rdx, 48(%rcx)
	movq	%r11, 32(%rcx)
	.loc 1 1452 0
	movl	$17, %edi
	.loc 1 609 0
	movq	%r15, 40(%rcx)
	movl	$18, %edx
	leaq	136(%rbx), %rcx
	jle	.L730
.L1102:
	movl	%r13d, -120(%rbp)
	movq	-208(%rbp), %r15
	movq	-192(%rbp), %r13
	movq	-216(%rbp), %r11
	movq	-224(%rbp), %rbx
.L731:
	leaq	(%rsi,%r15), %r9
	leaq	(%rsi,%r13), %rdx
	.loc 1 1452 0
	movq	%rsi, 64(%rcx)
	addq	$16, %rdi
	movq	%r10, 8(%rcx)
	movq	%rax, 16(%rcx)
	.loc 1 609 0
	movq	%r9, 24(%rcx)
	leaq	(%rsi,%r11), %r9
	movq	%rdx, 32(%rcx)
	leaq	(%rsi,%rbx), %rdx
	addq	%r8, %r10
	addq	%r8, %rax
	movq	%r9, 40(%rcx)
	movq	%rsi, %r9
	subq	-152(%rbp), %r9
	movq	%rdx, 48(%rcx)
	.loc 1 1452 0
	movq	%r10, 72(%rcx)
	prefetcht0	168(%rcx)
	movq	%rax, 80(%rcx)
	prefetcht0	232(%rcx)
	addq	%r8, %r10
	addq	%r8, %rax
	.loc 1 609 0
	movq	%r9, 56(%rcx)
	leaq	(%rsi,%r8), %r9
	leaq	(%r9,%r15), %rsi
	leaq	(%r9,%r13), %rdx
	.loc 1 1452 0
	movq	%r9, 128(%rcx)
	.loc 1 609 0
	movq	%rsi, 88(%rcx)
	leaq	(%r9,%r11), %rsi
	movq	%rdx, 96(%rcx)
	leaq	(%r9,%rbx), %rdx
	movq	%rsi, 104(%rcx)
	movq	%r9, %rsi
	subq	-152(%rbp), %rsi
	movq	%rdx, 112(%rcx)
	leaq	1(%rdi), %rdx
	movq	%rsi, 120(%rcx)
	subq	$-128, %rcx
	cmpq	%rdx, %r12
	leaq	(%r9,%r8), %rsi
	jg	.L731
	movl	-120(%rbp), %r13d
.L730:
	movq	-168(%rbp), %r12
	addq	-152(%rbp), %r9
	subq	%rdx, %r12
	addq	$1, %r12
	andl	$7, %r12d
	je	.L1100
	.loc 1 1452 0
	movq	-144(%rbp), %r8
	movq	%r9, (%r8,%rdi,8)
	addq	-152(%rbp), %r9
	movq	%rdx, %rdi
.LVL231:
	cmpq	%rdx, -168(%rbp)
	jl	.L733
	addq	$1, %rdx
.LVL232:
	cmpq	$1, %r12
	je	.L1100
	cmpq	$2, %r12
	je	.L991
	cmpq	$3, %r12
	je	.L992
	cmpq	$4, %r12
	je	.L993
	cmpq	$5, %r12
	je	.L994
	cmpq	$6, %r12
	je	.L995
	movq	%r9, (%r8,%rdi,8)
	addq	-152(%rbp), %r9
	movq	%rdx, %rdi
.LVL233:
	addq	$1, %rdx
.LVL234:
.L995:
	movq	-144(%rbp), %rax
	movq	%r9, (%rax,%rdi,8)
	addq	-152(%rbp), %r9
	movq	%rdx, %rdi
.LVL235:
	addq	$1, %rdx
.LVL236:
.L994:
	movq	-144(%rbp), %rcx
	movq	%r9, (%rcx,%rdi,8)
	addq	-152(%rbp), %r9
	movq	%rdx, %rdi
.LVL237:
	addq	$1, %rdx
.LVL238:
.L993:
	movq	-144(%rbp), %r15
	movq	%r9, (%r15,%rdi,8)
	addq	-152(%rbp), %r9
	movq	%rdx, %rdi
.LVL239:
	addq	$1, %rdx
.LVL240:
.L992:
	movq	-144(%rbp), %r11
	movq	%r9, (%r11,%rdi,8)
	addq	-152(%rbp), %r9
	movq	%rdx, %rdi
.LVL241:
	addq	$1, %rdx
.LVL242:
.L991:
	movq	-144(%rbp), %rbx
	movq	-152(%rbp), %r12
	movq	%r9, (%rbx,%rdi,8)
	movq	%rbx, %rsi
	movq	%rdx, %rdi
.LVL243:
	addq	-152(%rbp), %r9
	addq	$1, %rdx
.LVL244:
	jmp	.L732
.LVL245:
	.p2align 4,,10
	.p2align 3
.L1131:
	movq	%r9, (%rsi,%rdx,8)
	addq	%r12, %r9
	leaq	7(%rdx), %rdi
	movq	%r9, 8(%rsi,%rdx,8)
	addq	%r12, %r9
	movq	%r9, 16(%rsi,%rdx,8)
	addq	%r12, %r9
	movq	%r9, 24(%rsi,%rdx,8)
	addq	%r12, %r9
	movq	%r9, 32(%rsi,%rdx,8)
	addq	%r12, %r9
	movq	%r9, 40(%rsi,%rdx,8)
	addq	%r12, %r9
	movq	%r9, 48(%rsi,%rdx,8)
	addq	%r12, %r9
	addq	$8, %rdx
.LVL246:
.L732:
	movq	%r9, (%rsi,%rdi,8)
.LVL247:
	addq	%r12, %r9
	cmpq	%rdx, -168(%rbp)
	jge	.L1131
.LVL248:
.L733:
.LBE302:
.LBE311:
.LBE320:
	.loc 1 750 0
	movq	-144(%rbp), %rdi
	.loc 1 751 0
	movl	-136(%rbp), %r9d
	xorl	%r15d, %r15d
	.loc 1 750 0
	movq	%rdi, 96(%r14)
.LVL249:
.LBB321:
.LBB312:
.LBB303:
	.loc 1 609 0
	movl	-132(%rbp), %r14d
	subl	$8, %r14d
.LBE303:
.LBE312:
.LBE321:
	.loc 1 751 0
	testl	%r9d, %r9d
	jle	.L729
.LVL250:
	.p2align 4,,10
	.p2align 3
.L1062:
	.loc 1 752 0 discriminator 1
	testl	%r13d, %r13d
	jle	.L742
	movq	-160(%rbp), %r8
	movq	-144(%rbp), %rdx
	movq	(%r8,%r15,8), %r8
	movq	(%rdx,%r15,8), %r10
	.loc 1 609 0
	movq	%r8, %r9
	salq	$60, %r9
	shrq	$63, %r9
	cmpl	%r9d, %r13d
	cmovb	%r13d, %r9d
	cmpl	$4, %r13d
	cmovbe	%r13d, %r9d
	testl	%r9d, %r9d
	je	.L762
	cmpl	$8, %r9d
	jbe	.L763
	.loc 1 753 0
	movsd	(%r8), %xmm7
	.loc 1 609 0
	leal	-9(%r9), %r11d
	leaq	184(%r8), %rbx
	leaq	184(%r10), %rax
	movl	$64, %esi
	.loc 1 753 0
	movsd	%xmm7, (%r10)
.LVL251:
	.loc 1 609 0
	shrl	$3, %r11d
	.loc 1 752 0
	movl	$8, %edi
	.loc 1 609 0
	addq	$1, %r11
	prefetcht0	(%rbx)
	prefetcht0	(%rax)
	.loc 1 753 0
	movsd	8(%r8), %xmm8
	.loc 1 609 0
	salq	$6, %r11
	movl	$8, %ebx
	leaq	-64(%r11), %rcx
	leaq	248(%r8), %r12
	leaq	248(%r10), %rdx
	.loc 1 753 0
	movsd	%xmm8, 8(%r10)
	shrq	$6, %rcx
	movsd	16(%r8), %xmm9
	andl	$1, %ecx
	cmpq	%r11, %rsi
	movsd	%xmm9, 16(%r10)
	movsd	24(%r8), %xmm10
	movsd	%xmm10, 24(%r10)
	movsd	32(%r8), %xmm11
	movsd	%xmm11, 32(%r10)
	movsd	40(%r8), %xmm12
	movsd	%xmm12, 40(%r10)
	movsd	48(%r8), %xmm13
	movsd	%xmm13, 48(%r10)
	movsd	56(%r8), %xmm14
	movsd	%xmm14, 56(%r10)
	je	.L745
	testq	%rcx, %rcx
	je	.L746
	movsd	-184(%r12), %xmm15
	movl	$128, %esi
	prefetcht0	(%r12)
	cmpq	%r11, %rsi
	prefetcht0	(%rdx)
	.loc 1 752 0
	movl	$16, %edi
	.loc 1 753 0
	movsd	%xmm15, -184(%rdx)
	movl	$16, %ebx
	movsd	-176(%r12), %xmm0
	movsd	%xmm0, -176(%rdx)
	movsd	-168(%r12), %xmm1
	movsd	%xmm1, -168(%rdx)
	movsd	-160(%r12), %xmm2
	movsd	%xmm2, -160(%rdx)
	movsd	-152(%r12), %xmm3
	movsd	%xmm3, -152(%rdx)
	movsd	-144(%r12), %xmm4
	movsd	%xmm4, -144(%rdx)
	movsd	-136(%r12), %xmm5
	movsd	%xmm5, -136(%rdx)
	movsd	-128(%r12), %xmm6
	leaq	312(%r8), %r12
	movsd	%xmm6, -128(%rdx)
	leaq	312(%r10), %rdx
	je	.L745
.L746:
	movsd	-184(%r12), %xmm7
	leaq	64(%r12), %rax
	prefetcht0	(%r12)
	leaq	64(%rdx), %rcx
	subq	$-128, %rsi
	.loc 1 752 0
	addl	$16, %edi
	.loc 1 753 0
	movsd	%xmm7, -184(%rdx)
	prefetcht0	(%rdx)
	prefetcht0	(%rax)
	prefetcht0	(%rcx)
	movl	%edi, %ebx
	movsd	-176(%r12), %xmm8
	movsd	%xmm8, -176(%rdx)
	movsd	-168(%r12), %xmm9
	movsd	%xmm9, -168(%rdx)
	movsd	-160(%r12), %xmm10
	movsd	%xmm10, -160(%rdx)
	movsd	-152(%r12), %xmm11
	movsd	%xmm11, -152(%rdx)
	movsd	-144(%r12), %xmm12
	movsd	%xmm12, -144(%rdx)
	movsd	-136(%r12), %xmm13
	movsd	%xmm13, -136(%rdx)
	movsd	-128(%r12), %xmm14
	movsd	%xmm14, -128(%rdx)
	movsd	-120(%r12), %xmm15
	movsd	%xmm15, -120(%rdx)
	movsd	-112(%r12), %xmm0
	movsd	%xmm0, -112(%rdx)
	movsd	-104(%r12), %xmm1
	movsd	%xmm1, -104(%rdx)
	movsd	-96(%r12), %xmm2
	movsd	%xmm2, -96(%rdx)
	movsd	-88(%r12), %xmm3
	movsd	%xmm3, -88(%rdx)
	movsd	-80(%r12), %xmm4
	movsd	%xmm4, -80(%rdx)
	movsd	-72(%r12), %xmm5
	movsd	%xmm5, -72(%rdx)
	movsd	-64(%r12), %xmm6
	subq	$-128, %r12
	movsd	%xmm6, -64(%rdx)
	subq	$-128, %rdx
	cmpq	%r11, %rsi
	jne	.L746
.L745:
.LVL252:
	.loc 1 609 0
	movslq	%edi, %rdx
	movl	%ebx, %r11d
	leal	1(%rbx), %r12d
	salq	$3, %rdx
	notl	%r11d
	movl	$8, %eax
	leaq	(%r8,%rdx), %rsi
	addl	%r9d, %r11d
	addq	%r10, %rdx
	andl	$7, %r11d
	cmpl	%r12d, %r9d
	leal	1(%rdi), %ecx
.LVL253:
	.loc 1 753 0
	movsd	(%rsi), %xmm7
	movsd	%xmm7, (%rdx)
	jbe	.L1070
	testl	%r11d, %r11d
	je	.L749
	cmpl	$1, %r11d
	je	.L985
	cmpl	$2, %r11d
	je	.L986
	cmpl	$3, %r11d
	je	.L987
	cmpl	$4, %r11d
	je	.L988
	cmpl	$5, %r11d
	je	.L989
	cmpl	$6, %r11d
	je	.L990
	movsd	8(%rsi), %xmm8
	.loc 1 752 0
	leal	2(%rdi), %ecx
.LVL254:
	movl	$16, %eax
	.loc 1 753 0
	movsd	%xmm8, 8(%rdx)
.L990:
	movsd	(%rsi,%rax), %xmm9
	.loc 1 752 0
	addl	$1, %ecx
.LVL255:
	.loc 1 753 0
	movsd	%xmm9, (%rdx,%rax)
	addq	$8, %rax
.L989:
	movsd	(%rsi,%rax), %xmm10
	.loc 1 752 0
	addl	$1, %ecx
.LVL256:
	.loc 1 753 0
	movsd	%xmm10, (%rdx,%rax)
	addq	$8, %rax
.L988:
	movsd	(%rsi,%rax), %xmm11
	.loc 1 752 0
	addl	$1, %ecx
.LVL257:
	.loc 1 753 0
	movsd	%xmm11, (%rdx,%rax)
	addq	$8, %rax
.L987:
	movsd	(%rsi,%rax), %xmm12
	.loc 1 752 0
	addl	$1, %ecx
.LVL258:
	.loc 1 753 0
	movsd	%xmm12, (%rdx,%rax)
	addq	$8, %rax
.L986:
	movsd	(%rsi,%rax), %xmm13
	.loc 1 752 0
	addl	$1, %ecx
.LVL259:
	.loc 1 753 0
	movsd	%xmm13, (%rdx,%rax)
	addq	$8, %rax
.L985:
	.loc 1 752 0
	addl	$1, %ecx
.LVL260:
	.loc 1 753 0
	movsd	(%rsi,%rax), %xmm14
	.loc 1 609 0
	leal	(%rbx,%rcx), %r11d
	.loc 1 753 0
	movsd	%xmm14, (%rdx,%rax)
	addq	$8, %rax
	subl	%edi, %r11d
	cmpl	%r11d, %r9d
	jbe	.L1070
.L749:
	.loc 1 752 0
	addl	$8, %ecx
.LVL261:
	.loc 1 753 0
	movsd	(%rsi,%rax), %xmm15
	.loc 1 609 0
	leal	(%rbx,%rcx), %r12d
	.loc 1 753 0
	movsd	8(%rsi,%rax), %xmm0
	movsd	16(%rsi,%rax), %xmm1
	movsd	24(%rsi,%rax), %xmm2
	subl	%edi, %r12d
	movsd	32(%rsi,%rax), %xmm3
	movsd	40(%rsi,%rax), %xmm4
	movsd	48(%rsi,%rax), %xmm5
	movsd	56(%rsi,%rax), %xmm6
	movsd	%xmm15, (%rdx,%rax)
.LVL262:
	movsd	%xmm0, 8(%rdx,%rax)
	movsd	%xmm1, 16(%rdx,%rax)
	movsd	%xmm2, 24(%rdx,%rax)
	movsd	%xmm3, 32(%rdx,%rax)
	movsd	%xmm4, 40(%rdx,%rax)
	movsd	%xmm5, 48(%rdx,%rax)
.LVL263:
	movsd	%xmm6, 56(%rdx,%rax)
	addq	$64, %rax
	cmpl	%r12d, %r9d
	ja	.L749
.L1070:
	cmpl	%r9d, %r13d
	je	.L742
.LVL264:
.L744:
	movl	%r13d, %esi
	movl	%r9d, %eax
	subl	%r9d, %esi
	movl	%esi, -128(%rbp)
	shrl	%esi
	movl	%esi, %edi
	addl	%edi, %edi
	movl	%edi, -120(%rbp)
	je	.L748
	salq	$3, %rax
.LBE342:
	.loc 1 609 0
	xorl	%r11d, %r11d
.LBB343:
	leal	-3(%rsi), %r12d
	leaq	(%r8,%rax), %rdx
	addq	%r10, %rax
	cmpl	$4, %esi
	jbe	.L737
	leal	-5(%rsi), %ebx
.LBB322:
.LBB313:
.LBB304:
	.loc 1 753 0 discriminator 2
	movapd	(%rdx), %xmm7
	prefetcht0	464(%rdx)
	.loc 1 609 0 discriminator 2
	leaq	64(%rax), %r9
	movl	$4, %r11d
	movl	$4, %edi
	.loc 1 753 0 discriminator 2
	movapd	16(%rdx), %xmm8
	shrl	$2, %ebx
	andl	$1, %ebx
	movapd	32(%rdx), %xmm9
	movapd	48(%rdx), %xmm10
	.loc 1 609 0 discriminator 2
	addq	$64, %rdx
	cmpl	$5, %r12d
	.loc 1 753 0 discriminator 2
	movlpd	%xmm7, (%rax)
	movhpd	%xmm7, 8(%rax)
	movlpd	%xmm8, 16(%rax)
	movhpd	%xmm8, 24(%rax)
	movlpd	%xmm9, 32(%rax)
	movhpd	%xmm9, 40(%rax)
	movlpd	%xmm10, 48(%rax)
	movhpd	%xmm10, 56(%rax)
	.loc 1 609 0 discriminator 2
	movq	%r9, %rax
	jbe	.L737
	testl	%ebx, %ebx
	je	.L779
	.loc 1 753 0
	movapd	(%rdx), %xmm11
	prefetcht0	464(%rdx)
	.loc 1 609 0
	addq	$64, %rax
	movl	$8, %r11d
	movl	$8, %edi
	.loc 1 753 0
	movapd	16(%rdx), %xmm12
	movapd	32(%rdx), %xmm13
	movapd	48(%rdx), %xmm14
	.loc 1 609 0
	addq	$64, %rdx
	cmpl	$9, %r12d
	.loc 1 753 0
	movlpd	%xmm11, (%r9)
	movhpd	%xmm11, 8(%r9)
	movlpd	%xmm12, 16(%r9)
	movhpd	%xmm12, 24(%r9)
	movlpd	%xmm13, 32(%r9)
	movhpd	%xmm13, 40(%r9)
	movlpd	%xmm14, 48(%r9)
	movhpd	%xmm14, 56(%r9)
	jbe	.L737
.L779:
	.loc 1 753 0 is_stmt 0 discriminator 2
	movapd	(%rdx), %xmm15
	leal	9(%rdi), %ebx
	prefetcht0	464(%rdx)
	leal	8(%rdi), %r11d
	prefetcht0	528(%rdx)
	movapd	16(%rdx), %xmm0
	movl	%r11d, %edi
	movapd	32(%rdx), %xmm1
	movapd	48(%rdx), %xmm2
	movapd	64(%rdx), %xmm3
	movapd	80(%rdx), %xmm4
	movapd	96(%rdx), %xmm5
	movapd	112(%rdx), %xmm6
	.loc 1 609 0 is_stmt 1 discriminator 2
	subq	$-128, %rdx
	.loc 1 753 0 discriminator 2
	movlpd	%xmm15, (%rax)
	movhpd	%xmm15, 8(%rax)
	movlpd	%xmm0, 16(%rax)
	movhpd	%xmm0, 24(%rax)
	movlpd	%xmm1, 32(%rax)
	movhpd	%xmm1, 40(%rax)
	movlpd	%xmm2, 48(%rax)
	movhpd	%xmm2, 56(%rax)
	movlpd	%xmm3, 64(%rax)
	movhpd	%xmm3, 72(%rax)
	movlpd	%xmm4, 80(%rax)
	movhpd	%xmm4, 88(%rax)
	movlpd	%xmm5, 96(%rax)
	movhpd	%xmm5, 104(%rax)
	movlpd	%xmm6, 112(%rax)
	movhpd	%xmm6, 120(%rax)
	.loc 1 609 0 discriminator 2
	subq	$-128, %rax
	cmpl	%r12d, %ebx
	jb	.L779
.L737:
	movl	%r11d, %r12d
	leal	1(%r11), %r9d
	movl	$16, %edi
	notl	%r12d
	.loc 1 753 0
	movapd	(%rdx), %xmm7
	addl	%esi, %r12d
	andl	$7, %r12d
	cmpl	%r9d, %esi
	movlpd	%xmm7, (%rax)
	movhpd	%xmm7, 8(%rax)
	jbe	.L1069
	testl	%r12d, %r12d
	je	.L734
	cmpl	$1, %r12d
	je	.L979
	cmpl	$2, %r12d
	je	.L980
	cmpl	$3, %r12d
	je	.L981
	cmpl	$4, %r12d
	je	.L982
	cmpl	$5, %r12d
	je	.L983
	cmpl	$6, %r12d
	je	.L984
	movapd	16(%rdx), %xmm8
	leal	2(%r11), %r9d
	movl	$32, %edi
	movlpd	%xmm8, 16(%rax)
	movhpd	%xmm8, 24(%rax)
.L984:
	movapd	(%rdx,%rdi), %xmm9
	addl	$1, %r9d
	movlpd	%xmm9, (%rax,%rdi)
	movhpd	%xmm9, 8(%rax,%rdi)
	addq	$16, %rdi
.L983:
	movapd	(%rdx,%rdi), %xmm10
	addl	$1, %r9d
	movlpd	%xmm10, (%rax,%rdi)
	movhpd	%xmm10, 8(%rax,%rdi)
	addq	$16, %rdi
.L982:
	movapd	(%rdx,%rdi), %xmm11
	addl	$1, %r9d
	movlpd	%xmm11, (%rax,%rdi)
	movhpd	%xmm11, 8(%rax,%rdi)
	addq	$16, %rdi
.L981:
	movapd	(%rdx,%rdi), %xmm12
	addl	$1, %r9d
	movlpd	%xmm12, (%rax,%rdi)
	movhpd	%xmm12, 8(%rax,%rdi)
	addq	$16, %rdi
.L980:
	movapd	(%rdx,%rdi), %xmm13
	addl	$1, %r9d
	movlpd	%xmm13, (%rax,%rdi)
	movhpd	%xmm13, 8(%rax,%rdi)
	addq	$16, %rdi
.L979:
	movapd	(%rdx,%rdi), %xmm14
	addl	$1, %r9d
	movlpd	%xmm14, (%rax,%rdi)
	movhpd	%xmm14, 8(%rax,%rdi)
	addq	$16, %rdi
	cmpl	%r9d, %esi
	jbe	.L1069
.L734:
	movapd	(%rdx,%rdi), %xmm15
	addl	$8, %r9d
	movapd	16(%rdx,%rdi), %xmm0
	movapd	32(%rdx,%rdi), %xmm1
	movapd	48(%rdx,%rdi), %xmm2
	movapd	64(%rdx,%rdi), %xmm3
	movapd	80(%rdx,%rdi), %xmm4
	movapd	96(%rdx,%rdi), %xmm5
	movapd	112(%rdx,%rdi), %xmm6
	movlpd	%xmm15, (%rax,%rdi)
	movhpd	%xmm15, 8(%rax,%rdi)
	movlpd	%xmm0, 16(%rax,%rdi)
	movhpd	%xmm0, 24(%rax,%rdi)
	movlpd	%xmm1, 32(%rax,%rdi)
	movhpd	%xmm1, 40(%rax,%rdi)
	movlpd	%xmm2, 48(%rax,%rdi)
	movhpd	%xmm2, 56(%rax,%rdi)
	movlpd	%xmm3, 64(%rax,%rdi)
	movhpd	%xmm3, 72(%rax,%rdi)
	movlpd	%xmm4, 80(%rax,%rdi)
	movhpd	%xmm4, 88(%rax,%rdi)
	movlpd	%xmm5, 96(%rax,%rdi)
	movhpd	%xmm5, 104(%rax,%rdi)
	movlpd	%xmm6, 112(%rax,%rdi)
	movhpd	%xmm6, 120(%rax,%rdi)
	subq	$-128, %rdi
	cmpl	%r9d, %esi
	ja	.L734
.L1069:
	addl	-120(%rbp), %ecx
	movl	-128(%rbp), %eax
	cmpl	%eax, -120(%rbp)
	je	.L742
.L748:
	.loc 1 609 0
	leal	1(%rcx), %esi
	cmpl	%esi, -132(%rbp)
	setg	%dl
	cmpl	%r14d, %esi
	setl	%r11b
	testb	%r11b, %dl
	je	.L739
	cmpl	$-2147483640, -132(%rbp)
	jl	.L739
	movslq	%ecx, %rbx
	movl	%r14d, %r9d
	leaq	200(,%rbx,8), %r12
	subl	%ecx, %r9d
.LBE304:
.LBE313:
.LBE322:
	.loc 1 752 0
	addl	$8, %ecx
	subl	$2, %r9d
	.loc 1 609 0
	leal	1(%rcx), %esi
.LBB323:
.LBB314:
.LBB305:
	leaq	(%r8,%r12), %rdi
	addq	%r10, %r12
	shrl	$3, %r9d
	andl	$1, %r9d
	cmpl	%esi, %r14d
	prefetcht0	(%r12)
.LBE305:
.LBE314:
.LBE323:
	.loc 1 753 0
	movsd	-200(%rdi), %xmm7
	prefetcht0	(%rdi)
	leaq	64(%rdi), %rdx
	leaq	64(%r12), %rax
	movsd	%xmm7, -200(%r12)
	movsd	-192(%rdi), %xmm8
	movsd	%xmm8, -192(%r12)
	movsd	-184(%rdi), %xmm9
	movsd	%xmm9, -184(%r12)
	movsd	-176(%rdi), %xmm10
	movsd	%xmm10, -176(%r12)
	movsd	-168(%rdi), %xmm11
	movsd	%xmm11, -168(%r12)
	movsd	-160(%rdi), %xmm12
	movsd	%xmm12, -160(%r12)
	movsd	-152(%rdi), %xmm13
	movsd	%xmm13, -152(%r12)
.LVL265:
	movsd	-144(%rdi), %xmm14
	movsd	%xmm14, -144(%r12)
	jle	.L739
	testl	%r9d, %r9d
	je	.L740
	movsd	-200(%rdx), %xmm15
	.loc 1 752 0
	addl	$8, %ecx
.LVL266:
	prefetcht0	(%rdx)
	.loc 1 609 0
	leal	1(%rcx), %r11d
	prefetcht0	(%rax)
	.loc 1 753 0
	movsd	%xmm15, -200(%rax)
.LVL267:
	cmpl	%r11d, %r14d
	movsd	-192(%rdx), %xmm0
	movsd	%xmm0, -192(%rax)
	movsd	-184(%rdx), %xmm1
	movsd	%xmm1, -184(%rax)
	movsd	-176(%rdx), %xmm2
	movsd	%xmm2, -176(%rax)
	movsd	-168(%rdx), %xmm3
	movsd	%xmm3, -168(%rax)
	movsd	-160(%rdx), %xmm4
	movsd	%xmm4, -160(%rax)
	movsd	-152(%rdx), %xmm5
	movsd	%xmm5, -152(%rax)
.LVL268:
	movsd	-144(%rdx), %xmm6
	leaq	128(%rdi), %rdx
	movsd	%xmm6, -144(%rax)
	leaq	128(%r12), %rax
	jle	.L739
.L740:
	movsd	-200(%rdx), %xmm7
	.loc 1 752 0
	addl	$16, %ecx
.LVL269:
	prefetcht0	(%rdx)
	.loc 1 609 0
	leal	1(%rcx), %edi
	leaq	64(%rdx), %rbx
	leaq	64(%rax), %r12
	.loc 1 753 0
	movsd	%xmm7, -200(%rax)
.LVL270:
	prefetcht0	(%rax)
	prefetcht0	(%rbx)
	prefetcht0	(%r12)
	movsd	-192(%rdx), %xmm8
	movsd	%xmm8, -192(%rax)
	movsd	-184(%rdx), %xmm9
	movsd	%xmm9, -184(%rax)
	movsd	-176(%rdx), %xmm10
	movsd	%xmm10, -176(%rax)
	movsd	-168(%rdx), %xmm11
	movsd	%xmm11, -168(%rax)
	movsd	-160(%rdx), %xmm12
	movsd	%xmm12, -160(%rax)
	movsd	-152(%rdx), %xmm13
	movsd	%xmm13, -152(%rax)
	movsd	-144(%rdx), %xmm14
	movsd	%xmm14, -144(%rax)
	movsd	-136(%rdx), %xmm15
	movsd	%xmm15, -136(%rax)
	movsd	-128(%rdx), %xmm0
	movsd	%xmm0, -128(%rax)
	movsd	-120(%rdx), %xmm1
	movsd	%xmm1, -120(%rax)
	movsd	-112(%rdx), %xmm2
	movsd	%xmm2, -112(%rax)
	movsd	-104(%rdx), %xmm3
	movsd	%xmm3, -104(%rax)
	movsd	-96(%rdx), %xmm4
	movsd	%xmm4, -96(%rax)
	movsd	-88(%rdx), %xmm5
	movsd	%xmm5, -88(%rax)
.LVL271:
	movsd	-80(%rdx), %xmm6
	subq	$-128, %rdx
	movsd	%xmm6, -80(%rax)
	subq	$-128, %rax
	cmpl	%edi, %r14d
	jg	.L740
.LVL272:
.L739:
	.loc 1 609 0
	movslq	%ecx, %r9
	movl	%ecx, %esi
	leal	1(%rcx), %r11d
	salq	$3, %r9
	notl	%esi
	movl	$1, %eax
	addq	%r9, %r8
	leal	(%rsi,%r13), %edx
	addq	%r9, %r10
	.loc 1 753 0
	movsd	(%r8), %xmm7
	andl	$7, %edx
	.loc 1 752 0
	cmpl	%r11d, %r13d
	.loc 1 753 0
	movsd	%xmm7, (%r10)
	.loc 1 752 0
	jle	.L742
	testl	%edx, %edx
	je	.L741
	cmpl	$1, %edx
	je	.L973
	cmpl	$2, %edx
	.p2align 4,,3
	je	.L974
	cmpl	$3, %edx
	.p2align 4,,2
	je	.L975
	cmpl	$4, %edx
	.p2align 4,,2
	je	.L976
	cmpl	$5, %edx
	.p2align 4,,2
	je	.L977
	cmpl	$6, %edx
	.p2align 4,,2
	je	.L978
	.loc 1 753 0
	movsd	8(%r8), %xmm8
	movl	$2, %eax
	movsd	%xmm8, 8(%r10)
.L978:
	movsd	(%r8,%rax,8), %xmm9
	movsd	%xmm9, (%r10,%rax,8)
	addq	$1, %rax
.L977:
	movsd	(%r8,%rax,8), %xmm10
	movsd	%xmm10, (%r10,%rax,8)
	addq	$1, %rax
.L976:
	movsd	(%r8,%rax,8), %xmm11
	movsd	%xmm11, (%r10,%rax,8)
	addq	$1, %rax
.L975:
	movsd	(%r8,%rax,8), %xmm12
	movsd	%xmm12, (%r10,%rax,8)
	addq	$1, %rax
.L974:
	movsd	(%r8,%rax,8), %xmm13
	movsd	%xmm13, (%r10,%rax,8)
	addq	$1, %rax
.L973:
	movsd	(%r8,%rax,8), %xmm14
	movsd	%xmm14, (%r10,%rax,8)
	addq	$1, %rax
	.loc 1 609 0
	leal	(%rcx,%rax), %ebx
	.loc 1 752 0
	cmpl	%ebx, %r13d
	jle	.L742
.L741:
	leaq	1(%rax), %r12
	.loc 1 753 0
	movsd	(%r8,%rax,8), %xmm15
	leaq	2(%rax), %rdi
	leaq	3(%rax), %r9
	leaq	4(%rax), %rsi
	movsd	(%r8,%r12,8), %xmm0
	leaq	5(%rax), %rdx
	movsd	%xmm15, (%r10,%rax,8)
	leaq	6(%rax), %r11
	leaq	7(%rax), %rbx
	addq	$8, %rax
	movsd	%xmm0, (%r10,%r12,8)
	.loc 1 609 0
	leal	(%rcx,%rax), %r12d
	.loc 1 753 0
	movsd	(%r8,%rdi,8), %xmm1
	movsd	(%r8,%r9,8), %xmm2
	movsd	(%r8,%rsi,8), %xmm3
	.loc 1 752 0
	cmpl	%r12d, %r13d
	.loc 1 753 0
	movsd	(%r8,%rdx,8), %xmm4
	movsd	(%r8,%r11,8), %xmm5
	movsd	(%r8,%rbx,8), %xmm6
	movsd	%xmm1, (%r10,%rdi,8)
	movsd	%xmm2, (%r10,%r9,8)
	movsd	%xmm3, (%r10,%rsi,8)
	movsd	%xmm4, (%r10,%rdx,8)
	movsd	%xmm5, (%r10,%r11,8)
	movsd	%xmm6, (%r10,%rbx,8)
	.loc 1 752 0
	jg	.L741
.L742:
	addq	$1, %r15
	.loc 1 751 0
	cmpl	%r15d, -136(%rbp)
	jg	.L1062
.L729:
	.loc 1 733 0
	addl	$1, -180(%rbp)
.LVL273:
	movl	-228(%rbp), %ecx
	cmpl	%ecx, -180(%rbp)
	movq	-200(%rbp), %r14
	jne	.L751
.LVL274:
.L710:
	.loc 1 769 0
	movslq	-232(%rbp), %r8
	movq	-280(%rbp), %r12
	.loc 1 770 0
	xorl	%ebx, %ebx
	.loc 1 769 0
	movq	%r12, %r13
	leaq	18(,%r8,4), %r10
	andq	$-16, %r10
	subq	%r10, %rsp
	movq	%rsp, %r14
.LVL275:
	movq	%rsp, %r15
.LVL276:
	.p2align 4,,10
	.p2align 3
.L715:
	.loc 1 772 0 discriminator 2
	movslq	%ebx, %rax
	leaq	-112(%rbp), %rsi
	.loc 1 771 0 discriminator 2
	movl	%ebx, (%r15)
	.loc 1 772 0 discriminator 2
	leaq	(%r14,%rax,4), %rcx
	movq	%r13, %rdi
	movl	$_Z6workerPv, %edx
	.loc 1 770 0 discriminator 2
	addl	$1, %ebx
	addq	$4, %r15
	addq	$8, %r13
	.loc 1 772 0 discriminator 2
	call	pthread_create
.LVL277:
	.loc 1 770 0 discriminator 2
	movl	nThreads(%rip), %edi
	cmpl	%ebx, %edi
	jg	.L715
.LVL278:
	.loc 1 774 0 discriminator 1
	testl	%edi, %edi
	jle	.L754
	.loc 1 774 0 is_stmt 0
	xorl	%r14d, %r14d
.LVL279:
	.p2align 4,,10
	.p2align 3
.L755:
	.loc 1 775 0 is_stmt 1 discriminator 2
	movq	(%r12), %rdi
	xorl	%esi, %esi
	.loc 1 774 0 discriminator 2
	addl	$1, %r14d
	addq	$8, %r12
	.loc 1 775 0 discriminator 2
	call	pthread_join
.LVL280:
	.loc 1 774 0 discriminator 2
	cmpl	%r14d, nThreads(%rip)
	jg	.L755
.LVL281:
.L754:
	.loc 1 778 0
	movq	-280(%rbp), %rdi
	.loc 1 791 0
	xorl	%r15d, %r15d
	xorl	%r12d, %r12d
	.loc 1 778 0
	call	free
.LVL282:
	.loc 1 791 0
	movl	nSwaptions(%rip), %r9d
	testl	%r9d, %r9d
	jle	.L753
.LVL283:
	.p2align 4,,10
	.p2align 3
.L778:
	.loc 1 793 0 discriminator 2
	movq	swaptions(%rip), %rsi
.LBB324:
.LBB325:
	.loc 2 99 0 discriminator 2
	movq	stderr(%rip), %rdi
	movl	%r12d, %ecx
	movl	$.LC101, %edx
	movl	$2, %eax
.LBE325:
.LBE324:
	.loc 1 791 0 discriminator 2
	addl	$1, %r12d
	.loc 1 793 0 discriminator 2
	addq	%r15, %rsi
.LVL284:
	addq	$104, %r15
.LBB327:
.LBB326:
	.loc 2 99 0 discriminator 2
	movsd	8(%rsi), %xmm0
	movsd	16(%rsi), %xmm1
	movl	$1, %esi
	call	__fprintf_chk
.LVL285:
.LBE326:
.LBE327:
	.loc 1 791 0 discriminator 2
	movl	nSwaptions(%rip), %edx
	cmpl	%r12d, %edx
	jg	.L778
.LVL286:
	.loc 1 797 0 discriminator 1
	testl	%edx, %edx
	jle	.L753
	.loc 1 797 0 is_stmt 0
	xorl	%ebx, %ebx
	xorl	%r14d, %r14d
.LVL287:
	.p2align 4,,10
	.p2align 3
.L756:
	.loc 1 798 0 is_stmt 1 discriminator 2
	movq	swaptions(%rip), %r11
	.loc 1 797 0 discriminator 2
	addl	$1, %r14d
.LBB328:
.LBB329:
	.loc 1 1428 0 discriminator 2
	movq	88(%r11,%rbx), %rdi
	subq	$8, %rdi
	call	free
.LVL288:
.LBE329:
.LBE328:
	.loc 1 799 0 discriminator 2
	movq	swaptions(%rip), %rcx
	movq	96(%rcx,%rbx), %r13
.LVL289:
	addq	$104, %rbx
.LBB330:
.LBB331:
	.loc 1 1464 0 discriminator 2
	movq	0(%r13), %rdi
	subq	$8, %rdi
	call	free
.LVL290:
	.loc 1 1465 0 discriminator 2
	leaq	-8(%r13), %rdi
	call	free
.LVL291:
.LBE331:
.LBE330:
	.loc 1 797 0 discriminator 2
	cmpl	%r14d, nSwaptions(%rip)
	jg	.L756
.LVL292:
.L753:
	.loc 1 806 0
	movq	swaptions(%rip), %rdi
	call	free
.LVL293:
.LBE343:
	.loc 1 816 0
	xorl	%eax, %eax
	movq	-56(%rbp), %rsi
	xorq	%fs:40, %rsi
	jne	.L1132
	leaq	-40(%rbp), %rsp
.LVL294:
	popq	%rbx
	popq	%r12
	popq	%r13
	popq	%r14
	popq	%r15
	popq	%rbp
.LCFI89:
	.cfi_remember_state
	.cfi_def_cfa 7, 8
.LVL295:
	ret
.LVL296:
	.p2align 4,,10
	.p2align 3
.L763:
.LCFI90:
	.cfi_restore_state
.LBB344:
	.loc 1 609 0
	xorl	%ebx, %ebx
	xorl	%edi, %edi
	jmp	.L745
.LVL297:
	.p2align 4,,10
	.p2align 3
.L1100:
	movq	-144(%rbp), %rsi
	movq	-152(%rbp), %r12
	jmp	.L732
.LVL298:
.L759:
.LBE344:
	.loc 1 748 0
	movl	$1, %ecx
	movsd	.LC100(%rip), %xmm6
	jmp	.L722
.LVL299:
.L761:
	.loc 1 609 0
	movl	$1, %edi
	movl	$2, %edx
	jmp	.L730
.LVL300:
	.p2align 4,,10
	.p2align 3
.L1124:
.LBB345:
.LBB332:
.LBB202:
.LBB199:
	.loc 3 286 0 discriminator 1
	movq	-32(%r15), %rdi
	movl	$10, %edx
	xorl	%esi, %esi
	call	strtol
.LVL301:
	movl	%eax, NUM_TRIALS(%rip)
	jmp	.L697
	.p2align 4,,10
	.p2align 3
.L1079:
.LBE199:
.LBE202:
.LBB203:
.LBB204:
	.loc 3 286 0 is_stmt 0
	movq	-32(%r15), %rdi
	movl	$10, %edx
	xorl	%esi, %esi
	call	strtol
.LVL302:
	movl	%eax, nThreads(%rip)
	jmp	.L1081
	.p2align 4,,10
	.p2align 3
.L1125:
	.loc 3 286 0 discriminator 1
	movq	-32(%r15), %rdi
	movl	$10, %edx
	xorl	%esi, %esi
	call	strtol
.LVL303:
	movl	%eax, nThreads(%rip)
	jmp	.L697
.L1080:
.LBE204:
.LBE203:
.LBB206:
.LBB207:
	.loc 3 286 0
	movq	-32(%r15), %rdi
	movl	$10, %edx
	xorl	%esi, %esi
	call	strtol
.LVL304:
	movl	%eax, nSwaptions(%rip)
	jmp	.L1081
.L1126:
	.loc 3 286 0 discriminator 1
	movq	-32(%r15), %rdi
	movl	$10, %edx
	xorl	%esi, %esi
	call	strtol
.LVL305:
	movl	%eax, nSwaptions(%rip)
	jmp	.L697
.LVL306:
.L1123:
.LBE207:
.LBE206:
.LBB209:
.LBB200:
	.loc 3 286 0
	movq	-32(%r15), %rdi
	movl	$10, %edx
	xorl	%esi, %esi
	call	strtol
.LVL307:
	movl	%eax, NUM_TRIALS(%rip)
	jmp	.L1074
.LVL308:
.L1072:
.LBE200:
.LBE209:
.LBB210:
.LBB205:
	movq	-32(%r15), %rdi
	movl	$10, %edx
	xorl	%esi, %esi
	call	strtol
.LVL309:
	movl	%eax, nThreads(%rip)
	jmp	.L1074
.LVL310:
.L1107:
	movq	-160(%rbp), %rax
	jmp	.L713
.LVL311:
.L758:
.LBE205:
.LBE210:
.LBE332:
.LBE345:
	.loc 1 609 0 is_stmt 1
	movl	$1, %esi
	movl	$2, %r9d
	jmp	.L711
.LVL312:
.L1073:
.LBB346:
.LBB333:
.LBB211:
.LBB208:
	.loc 3 286 0
	movq	-32(%r15), %rdi
	movl	$10, %edx
	xorl	%esi, %esi
	call	strtol
.LVL313:
	movl	%eax, nSwaptions(%rip)
	jmp	.L1074
.L700:
.LVL314:
.LBE208:
.LBE211:
.LBB212:
.LBB213:
	.loc 2 99 0
	movq	stderr(%rip), %rdi
	movq	%r8, %rcx
	movl	$.LC65, %edx
	movl	$1, %esi
	xorl	%eax, %eax
	call	__fprintf_chk
.LVL315:
.L1116:
.LBE213:
.LBE212:
	.loc 1 642 0
	movq	(%r14), %rdi
	call	_Z11print_usagePc
.LVL316:
	.loc 1 643 0
	movl	$1, %edi
	call	exit
.LVL317:
.L1128:
.LBE333:
.LBB334:
.LBB335:
	.loc 2 99 0
	movq	stderr(%rip), %rcx
	movl	$37, %edx
	movl	$1, %esi
	movl	$.LC66, %edi
	call	fwrite
.LVL318:
.LBE335:
.LBE334:
	.loc 1 649 0
	movq	(%r14), %rdi
	call	_Z11print_usagePc
.LVL319:
	.loc 1 650 0
	movl	$1, %edi
	call	exit
.LVL320:
.L1117:
.LBB336:
.LBB337:
	.loc 2 99 0
	movq	stderr(%rip), %rdi
	movl	$1024, %ecx
	movl	$.LC70, %edx
	movl	$1, %esi
	xorl	%eax, %eax
	call	__fprintf_chk
.LVL321:
.LBE337:
.LBE336:
	.loc 1 677 0
	movl	$1, %edi
	call	exit
.LVL322:
.L720:
.LBB338:
.LBB246:
.LBB237:
	.loc 1 1442 0
	movl	$.LC71, %edi
	call	_Z7nrerrorPKc
.LVL323:
.L762:
.LBE237:
.LBE246:
.LBE338:
	.loc 1 609 0
	xorl	%ecx, %ecx
	jmp	.L744
.LVL324:
.L1132:
.LBE346:
	.loc 1 816 0
	call	__stack_chk_fail
.LVL325:
.L726:
.LBB347:
.LBB339:
.LBB247:
.LBB238:
	.loc 1 1448 0
	movl	$.LC72, %edi
	call	_Z7nrerrorPKc
.LVL326:
.L1130:
.LBE238:
.LBE247:
.LBE339:
.LBB340:
.LBB291:
.LBB288:
	.loc 1 1418 0
	movl	$.LC99, %edi
	call	_Z7nrerrorPKc
.LVL327:
.LBE288:
.LBE291:
.LBE340:
.LBE347:
	.cfi_endproc
.LFE1076:
	.size	main, .-main
	.text
	.p2align 4,,15
	.globl	_Z19HJM_SimPath_ForwardPPdiidS_S_S0_Pl
	.type	_Z19HJM_SimPath_ForwardPPdiidS_S_S0_Pl, @function
_Z19HJM_SimPath_ForwardPPdiidS_S_S0_Pl:
.LFB81:
	.loc 1 265 0
	.cfi_startproc
.LVL328:
	pushq	%r15
.LCFI91:
	.cfi_def_cfa_offset 16
	.cfi_offset 15, -16
.LBB356:
	.loc 1 277 0
	leal	-1(%rdx), %eax
.LBE356:
	.loc 1 265 0
	movl	%esi, %r15d
	pushq	%r14
.LCFI92:
	.cfi_def_cfa_offset 24
	.cfi_offset 14, -24
	movq	%r9, %r14
	pushq	%r13
.LCFI93:
	.cfi_def_cfa_offset 32
	.cfi_offset 13, -32
	pushq	%r12
.LCFI94:
	.cfi_def_cfa_offset 40
	.cfi_offset 12, -40
	pushq	%rbp
.LCFI95:
	.cfi_def_cfa_offset 48
	.cfi_offset 6, -48
	movl	%edx, %ebp
	pushq	%rbx
.LCFI96:
	.cfi_def_cfa_offset 56
	.cfi_offset 3, -56
	subq	$168, %rsp
.LCFI97:
	.cfi_def_cfa_offset 224
	.loc 1 265 0
	movsd	%xmm0, 88(%rsp)
.LBB382:
	.loc 1 277 0
	movl	%eax, 112(%rsp)
	cltq
	.loc 1 275 0
	cvtsi2sd	%esi, %xmm0
.LVL329:
.LBE382:
	.loc 1 265 0
	movq	%rdi, 104(%rsp)
.LBB383:
	.loc 1 275 0
	movsd	88(%rsp), %xmm1
.LBB357:
.LBB358:
.LBB359:
	.loc 1 1417 0
	leaq	16(,%rax,8), %rdi
.LVL330:
.LBE359:
.LBE358:
.LBE357:
.LBE383:
	.loc 1 265 0
	movq	%rcx, 96(%rsp)
	movq	%r8, 128(%rsp)
	movq	224(%rsp), %rbx
.LBB384:
	.loc 1 275 0
	divsd	%xmm0, %xmm1
	movsd	%xmm1, 88(%rsp)
.LVL331:
.LBB364:
.LBB362:
.LBB360:
	.loc 1 1417 0
	call	malloc
.LVL332:
	.loc 1 1418 0
	testq	%rax, %rax
	.loc 1 1417 0
	movq	%rax, 136(%rsp)
.LVL333:
	.loc 1 1418 0
	je	.L1473
	movq	%rax, %r13
	.loc 1 277 0
	addq	$8, %r13
.LVL334:
.LBE360:
.LBE362:
.LBE364:
	.loc 1 279 0
	testl	%r15d, %r15d
	jle	.L1135
	movq	%rbx, 152(%rsp)
	.loc 1 281 0
	xorpd	%xmm2, %xmm2
	movq	104(%rsp), %rbx
	.loc 1 257 0
	leal	-7(%r15), %r8d
.LBE384:
	xorl	%r11d, %r11d
	movq	%r13, 120(%rsp)
	movl	%ebp, 148(%rsp)
.LVL335:
	.p2align 4,,10
	.p2align 3
.L1136:
	movq	(%rbx,%r11,8), %r9
	.loc 1 257 0 is_stmt 0 discriminator 1
	movl	%r15d, %esi
.LBB385:
	movq	%r9, %rdx
	salq	$60, %rdx
	shrq	$63, %rdx
	cmpl	%edx, %r15d
	cmovb	%r15d, %edx
.LBE385:
	cmpl	$6, %r15d
	cmova	%edx, %esi
	testl	%esi, %esi
	je	.L1171
	cmpl	$8, %esi
	jbe	.L1172
.LBB386:
	.loc 1 257 0
	leal	-9(%rsi), %edi
	leaq	232(%r9), %rcx
	movl	$64, %edx
	.loc 1 281 0 is_stmt 1
	movq	$0, (%r9)
.LVL336:
	movq	$0, 8(%r9)
	.loc 1 280 0
	movl	$8, %r13d
	.loc 1 257 0
	shrl	$3, %edi
	prefetcht0	(%rcx)
	.loc 1 281 0
	movq	$0, 16(%r9)
	.loc 1 257 0
	leaq	1(%rdi), %r12
	.loc 1 281 0
	movq	$0, 24(%r9)
	movq	$0, 32(%r9)
	movq	$0, 40(%r9)
	movq	$0, 48(%r9)
	movl	$8, %r10d
	.loc 1 257 0
	salq	$6, %r12
	.loc 1 281 0
	movq	$0, 56(%r9)
	leaq	296(%r9), %rax
	leaq	-64(%r12), %rbp
	shrq	$6, %rbp
	andl	$3, %ebp
	cmpq	%r12, %rdx
	je	.L1148
	testq	%rbp, %rbp
	je	.L1149
	cmpq	$1, %rbp
	je	.L1392
	cmpq	$2, %rbp
	je	.L1393
	prefetcht0	(%rax)
	movq	$0, -232(%rax)
	movq	$0, -224(%rax)
	movq	$0, -216(%rax)
	movq	$0, -208(%rax)
	.loc 1 280 0
	movl	$16, %r13d
	.loc 1 281 0
	movq	$0, -200(%rax)
	movq	$0, -192(%rax)
	movl	$128, %edx
	movq	$0, -184(%rax)
	movq	$0, -176(%rax)
	leaq	360(%r9), %rax
.L1393:
	prefetcht0	(%rax)
	movq	$0, -232(%rax)
	movq	$0, -224(%rax)
	movq	$0, -216(%rax)
	movq	$0, -208(%rax)
	.loc 1 280 0
	addl	$8, %r13d
	.loc 1 281 0
	movq	$0, -200(%rax)
	movq	$0, -192(%rax)
	addq	$64, %rdx
	movq	$0, -184(%rax)
	movq	$0, -176(%rax)
	addq	$64, %rax
.L1392:
	addq	$64, %rdx
	.loc 1 280 0
	addl	$8, %r13d
	prefetcht0	(%rax)
	.loc 1 281 0
	movq	$0, -232(%rax)
	movq	$0, -224(%rax)
	movl	%r13d, %r10d
	movq	$0, -216(%rax)
	movq	$0, -208(%rax)
	movq	$0, -200(%rax)
	movq	$0, -192(%rax)
	movq	$0, -184(%rax)
	movq	$0, -176(%rax)
	addq	$64, %rax
	cmpq	%r12, %rdx
	je	.L1148
.L1149:
	leaq	64(%rax), %rcx
	leaq	128(%rax), %rdi
	leaq	192(%rax), %rbp
	addq	$256, %rdx
	.loc 1 280 0
	addl	$32, %r13d
	prefetcht0	(%rax)
	.loc 1 281 0
	movq	$0, -232(%rax)
	movq	$0, -224(%rax)
	prefetcht0	(%rcx)
	movq	$0, -216(%rax)
	movq	$0, -208(%rax)
	prefetcht0	(%rdi)
	movq	$0, -200(%rax)
	movq	$0, -192(%rax)
	prefetcht0	0(%rbp)
	movq	$0, -184(%rax)
	movq	$0, -176(%rax)
	movl	%r13d, %r10d
	movq	$0, -168(%rax)
	movq	$0, -160(%rax)
	movq	$0, -152(%rax)
	movq	$0, -144(%rax)
	movq	$0, -136(%rax)
	movq	$0, -128(%rax)
	movq	$0, -120(%rax)
	movq	$0, -112(%rax)
	movq	$0, -104(%rax)
	movq	$0, -96(%rax)
	movq	$0, -88(%rax)
	movq	$0, -80(%rax)
	movq	$0, -72(%rax)
	movq	$0, -64(%rax)
	movq	$0, -56(%rax)
	movq	$0, -48(%rax)
	movq	$0, -40(%rax)
	movq	$0, -32(%rax)
	movq	$0, -24(%rax)
	movq	$0, -16(%rax)
	movq	$0, -8(%rax)
	movq	$0, (%rax)
	movq	$0, 8(%rax)
	movq	$0, 16(%rax)
	addq	$256, %rax
	cmpq	%r12, %rdx
	jne	.L1149
.L1148:
.LVL337:
	movl	%r10d, %edi
	.loc 1 257 0
	movslq	%r13d, %r12
	leal	1(%r10), %ebp
	notl	%edi
	leaq	(%r9,%r12,8), %rcx
	leal	1(%r13), %edx
.LVL338:
	addl	%esi, %edi
	andl	$7, %edi
	cmpl	%ebp, %esi
	.loc 1 281 0
	movq	$0, (%rcx)
	leaq	8(%rcx), %rax
	jbe	.L1447
	testl	%edi, %edi
	je	.L1152
	cmpl	$1, %edi
	je	.L1386
	cmpl	$2, %edi
	.p2align 4,,3
	je	.L1387
	cmpl	$3, %edi
	.p2align 4,,2
	je	.L1388
	cmpl	$4, %edi
	.p2align 4,,2
	je	.L1389
	cmpl	$5, %edi
	.p2align 4,,2
	je	.L1390
	cmpl	$6, %edi
	.p2align 4,,2
	je	.L1391
	.loc 1 280 0
	leal	2(%r13), %edx
.LVL339:
	leaq	16(%rcx), %rax
	.loc 1 281 0
	movq	$0, 8(%rcx)
.L1391:
	movq	$0, (%rax)
	.loc 1 280 0
	addl	$1, %edx
.LVL340:
	addq	$8, %rax
.L1390:
	.loc 1 281 0
	movq	$0, (%rax)
	.loc 1 280 0
	addl	$1, %edx
.LVL341:
	addq	$8, %rax
.L1389:
	.loc 1 281 0
	movq	$0, (%rax)
	.loc 1 280 0
	addl	$1, %edx
.LVL342:
	addq	$8, %rax
.L1388:
	.loc 1 281 0
	movq	$0, (%rax)
	.loc 1 280 0
	addl	$1, %edx
.LVL343:
	addq	$8, %rax
.L1387:
	.loc 1 281 0
	movq	$0, (%rax)
	.loc 1 280 0
	addl	$1, %edx
.LVL344:
	addq	$8, %rax
.L1386:
	addl	$1, %edx
.LVL345:
	.loc 1 281 0
	movq	$0, (%rax)
	addq	$8, %rax
	.loc 1 257 0
	leal	(%r10,%rdx), %r12d
	subl	%r13d, %r12d
	cmpl	%r12d, %esi
	jbe	.L1447
.L1152:
	.loc 1 280 0
	addl	$8, %edx
.LVL346:
	.loc 1 281 0
	movq	$0, (%rax)
.LVL347:
	movq	$0, 8(%rax)
	.loc 1 257 0
	leal	(%r10,%rdx), %ecx
	.loc 1 281 0
	movq	$0, 16(%rax)
	movq	$0, 24(%rax)
	movq	$0, 32(%rax)
	movq	$0, 40(%rax)
	subl	%r13d, %ecx
	movq	$0, 48(%rax)
.LVL348:
	movq	$0, 56(%rax)
	addq	$64, %rax
	cmpl	%ecx, %esi
	ja	.L1152
.L1447:
	cmpl	%r15d, %esi
	je	.L1150
.LVL349:
.L1147:
	movl	%r15d, %ebp
	movl	%esi, %r13d
	subl	%esi, %ebp
	movl	%ebp, %edi
	shrl	%edi
	movl	%edi, %r12d
	addl	%r12d, %r12d
	je	.L1151
.LBE386:
	.loc 1 257 0
	xorl	%r10d, %r10d
	cmpl	$4, %edi
	leaq	(%r9,%r13,8), %rax
.LBB387:
	leal	-3(%rdi), %r13d
	jbe	.L1140
	leal	-5(%rdi), %esi
	prefetcht0	640(%rax)
	movl	$4, %r10d
	.loc 1 281 0 discriminator 2
	movapd	%xmm2, (%rax)
	shrl	$2, %esi
	movl	$4, %ecx
	andl	$3, %esi
	movapd	%xmm2, 16(%rax)
	movapd	%xmm2, 32(%rax)
	movapd	%xmm2, 48(%rax)
	.loc 1 257 0 discriminator 2
	addq	$64, %rax
	cmpl	$5, %r13d
	jbe	.L1140
	testl	%esi, %esi
	je	.L1187
	cmpl	$1, %esi
	je	.L1384
	cmpl	$2, %esi
	.p2align 4,,3
	je	.L1385
	prefetcht0	640(%rax)
	.loc 1 281 0
	movapd	%xmm2, (%rax)
	movl	$8, %ecx
	movapd	%xmm2, 16(%rax)
	movapd	%xmm2, 32(%rax)
	movapd	%xmm2, 48(%rax)
	.loc 1 257 0
	addq	$64, %rax
.L1385:
	prefetcht0	640(%rax)
	.loc 1 281 0
	movapd	%xmm2, (%rax)
	addl	$4, %ecx
	movapd	%xmm2, 16(%rax)
	movapd	%xmm2, 32(%rax)
	movapd	%xmm2, 48(%rax)
	.loc 1 257 0
	addq	$64, %rax
.L1384:
	leal	5(%rcx), %esi
	leal	4(%rcx), %r10d
	prefetcht0	640(%rax)
	.loc 1 281 0
	movapd	%xmm2, (%rax)
	movl	%r10d, %ecx
	movapd	%xmm2, 16(%rax)
	movapd	%xmm2, 32(%rax)
	movapd	%xmm2, 48(%rax)
	.loc 1 257 0
	addq	$64, %rax
	cmpl	%r13d, %esi
	jae	.L1140
.L1187:
	leal	17(%rcx), %esi
	leal	16(%rcx), %r10d
	prefetcht0	640(%rax)
	.loc 1 281 0 discriminator 2
	movapd	%xmm2, (%rax)
	prefetcht0	704(%rax)
	prefetcht0	768(%rax)
	prefetcht0	832(%rax)
	movl	%r10d, %ecx
	movapd	%xmm2, 16(%rax)
	movapd	%xmm2, 32(%rax)
	movapd	%xmm2, 48(%rax)
	movapd	%xmm2, 64(%rax)
	movapd	%xmm2, 80(%rax)
	movapd	%xmm2, 96(%rax)
	movapd	%xmm2, 112(%rax)
	movapd	%xmm2, 128(%rax)
	movapd	%xmm2, 144(%rax)
	movapd	%xmm2, 160(%rax)
	movapd	%xmm2, 176(%rax)
	movapd	%xmm2, 192(%rax)
	movapd	%xmm2, 208(%rax)
	movapd	%xmm2, 224(%rax)
	movapd	%xmm2, 240(%rax)
	.loc 1 257 0 discriminator 2
	addq	$256, %rax
	cmpl	%r13d, %esi
	jb	.L1187
.L1140:
	movl	%r10d, %r13d
	leal	1(%r10), %esi
	leaq	16(%rax), %rcx
	notl	%r13d
	addl	%edi, %r13d
	andl	$7, %r13d
	cmpl	%esi, %edi
	.loc 1 281 0
	movapd	%xmm2, (%rax)
	jbe	.L1445
	testl	%r13d, %r13d
	je	.L1137
	cmpl	$1, %r13d
	je	.L1378
	cmpl	$2, %r13d
	je	.L1379
	cmpl	$3, %r13d
	je	.L1380
	cmpl	$4, %r13d
	je	.L1381
	cmpl	$5, %r13d
	je	.L1382
	cmpl	$6, %r13d
	je	.L1383
	movapd	%xmm2, (%rcx)
	leal	2(%r10), %esi
	leaq	32(%rax), %rcx
.L1383:
	movapd	%xmm2, (%rcx)
	addl	$1, %esi
	addq	$16, %rcx
.L1382:
	movapd	%xmm2, (%rcx)
	addl	$1, %esi
	addq	$16, %rcx
.L1381:
	movapd	%xmm2, (%rcx)
	addl	$1, %esi
	addq	$16, %rcx
.L1380:
	movapd	%xmm2, (%rcx)
	addl	$1, %esi
	addq	$16, %rcx
.L1379:
	movapd	%xmm2, (%rcx)
	addl	$1, %esi
	addq	$16, %rcx
.L1378:
	addl	$1, %esi
	movapd	%xmm2, (%rcx)
	addq	$16, %rcx
	cmpl	%esi, %edi
	jbe	.L1445
.L1137:
	addl	$8, %esi
	movapd	%xmm2, (%rcx)
	movapd	%xmm2, 16(%rcx)
	movapd	%xmm2, 32(%rcx)
	movapd	%xmm2, 48(%rcx)
	movapd	%xmm2, 64(%rcx)
	movapd	%xmm2, 80(%rcx)
	movapd	%xmm2, 96(%rcx)
	movapd	%xmm2, 112(%rcx)
	subq	$-128, %rcx
	cmpl	%esi, %edi
	ja	.L1137
.L1445:
	addl	%r12d, %edx
	cmpl	%r12d, %ebp
	je	.L1150
.L1151:
	.loc 1 257 0
	leal	1(%rdx), %r10d
	cmpl	%r8d, %r10d
	jge	.L1142
	cmpl	%edx, %r15d
	jle	.L1142
	movl	%r8d, %edi
	movslq	%edx, %rbp
	subl	%edx, %edi
	.loc 1 280 0
	addl	$8, %edx
	.loc 1 257 0
	leaq	272(%r9,%rbp,8), %r12
	subl	$2, %edi
	leal	1(%rdx), %r10d
	shrl	$3, %edi
	prefetcht0	(%r12)
	.loc 1 281 0
	movq	$0, -272(%r12)
	andl	$3, %edi
	cmpl	%r8d, %r10d
	movq	$0, -264(%r12)
	movq	$0, -256(%r12)
	movq	$0, -248(%r12)
	leaq	64(%r12), %rax
	movq	$0, -240(%r12)
	movq	$0, -232(%r12)
	movq	$0, -224(%r12)
.LVL350:
	movq	$0, -216(%r12)
	jge	.L1142
	testl	%edi, %edi
	je	.L1143
	cmpl	$1, %edi
	je	.L1376
	cmpl	$2, %edi
	.p2align 4,,3
	je	.L1377
	prefetcht0	(%rax)
	movq	$0, -272(%rax)
.LVL351:
	movq	$0, -264(%rax)
.LVL352:
	movq	$0, -256(%rax)
.LVL353:
	movq	$0, -248(%rax)
.LVL354:
	.loc 1 280 0
	addl	$8, %edx
	.loc 1 281 0
	movq	$0, -240(%rax)
.LVL355:
	movq	$0, -232(%rax)
.LVL356:
	movq	$0, -224(%rax)
.LVL357:
	movq	$0, -216(%rax)
	leaq	128(%r12), %rax
.L1377:
	prefetcht0	(%rax)
	movq	$0, -272(%rax)
.LVL358:
	movq	$0, -264(%rax)
.LVL359:
	movq	$0, -256(%rax)
.LVL360:
	movq	$0, -248(%rax)
.LVL361:
	.loc 1 280 0
	addl	$8, %edx
.LVL362:
	.loc 1 281 0
	movq	$0, -240(%rax)
.LVL363:
	movq	$0, -232(%rax)
.LVL364:
	movq	$0, -224(%rax)
.LVL365:
	movq	$0, -216(%rax)
	addq	$64, %rax
.L1376:
	.loc 1 280 0
	addl	$8, %edx
.LVL366:
	prefetcht0	(%rax)
	.loc 1 281 0
	movq	$0, -272(%rax)
.LVL367:
	.loc 1 257 0
	leal	1(%rdx), %r10d
	.loc 1 281 0
	movq	$0, -264(%rax)
	movq	$0, -256(%rax)
	movq	$0, -248(%rax)
	movq	$0, -240(%rax)
	movq	$0, -232(%rax)
	movq	$0, -224(%rax)
.LVL368:
	movq	$0, -216(%rax)
	addq	$64, %rax
	cmpl	%r8d, %r10d
	jge	.L1142
.L1143:
	.loc 1 280 0
	addl	$32, %edx
.LVL369:
	leaq	64(%rax), %r13
	leaq	128(%rax), %rcx
	.loc 1 257 0
	leal	1(%rdx), %r10d
	leaq	192(%rax), %rsi
	prefetcht0	(%rax)
	.loc 1 281 0
	movq	$0, -272(%rax)
.LVL370:
	movq	$0, -264(%rax)
	prefetcht0	0(%r13)
	movq	$0, -256(%rax)
	movq	$0, -248(%rax)
	prefetcht0	(%rcx)
	movq	$0, -240(%rax)
	movq	$0, -232(%rax)
	prefetcht0	(%rsi)
	movq	$0, -224(%rax)
	movq	$0, -216(%rax)
	movq	$0, -208(%rax)
	movq	$0, -200(%rax)
	movq	$0, -192(%rax)
	movq	$0, -184(%rax)
	movq	$0, -176(%rax)
	movq	$0, -168(%rax)
	movq	$0, -160(%rax)
	movq	$0, -152(%rax)
	movq	$0, -144(%rax)
	movq	$0, -136(%rax)
	movq	$0, -128(%rax)
	movq	$0, -120(%rax)
	movq	$0, -112(%rax)
	movq	$0, -104(%rax)
	movq	$0, -96(%rax)
	movq	$0, -88(%rax)
	movq	$0, -80(%rax)
	movq	$0, -72(%rax)
	movq	$0, -64(%rax)
	movq	$0, -56(%rax)
	movq	$0, -48(%rax)
	movq	$0, -40(%rax)
	movq	$0, -32(%rax)
.LVL371:
	movq	$0, -24(%rax)
	addq	$256, %rax
	cmpl	%r8d, %r10d
	jl	.L1143
.LVL372:
.L1142:
	movl	%r15d, %ebp
	.loc 1 257 0
	movslq	%edx, %rdx
	subl	%r10d, %ebp
	leaq	(%r9,%rdx,8), %r9
	andl	$7, %ebp
	je	.L1144
	.loc 1 281 0
	movq	$0, (%r9)
.LVL373:
	addq	$8, %r9
	.loc 1 280 0
	cmpl	%r10d, %r15d
	jle	.L1150
	addl	$1, %r10d
.LVL374:
	cmpl	$1, %ebp
	je	.L1144
	cmpl	$2, %ebp
	je	.L1371
	cmpl	$3, %ebp
	je	.L1372
	cmpl	$4, %ebp
	.p2align 4,,2
	je	.L1373
	cmpl	$5, %ebp
	.p2align 4,,2
	je	.L1374
	cmpl	$6, %ebp
	.p2align 4,,2
	je	.L1375
	.loc 1 281 0
	movq	$0, (%r9)
.LVL375:
	addl	$1, %r10d
.LVL376:
	addq	$8, %r9
.LVL377:
.L1375:
	movq	$0, (%r9)
.LVL378:
	addl	$1, %r10d
.LVL379:
	addq	$8, %r9
.LVL380:
.L1374:
	movq	$0, (%r9)
.LVL381:
	addl	$1, %r10d
.LVL382:
	addq	$8, %r9
.LVL383:
.L1373:
	movq	$0, (%r9)
.LVL384:
	addl	$1, %r10d
.LVL385:
	addq	$8, %r9
.LVL386:
.L1372:
	movq	$0, (%r9)
.LVL387:
	addl	$1, %r10d
.LVL388:
	addq	$8, %r9
.LVL389:
.L1371:
	movq	$0, (%r9)
.LVL390:
	addl	$1, %r10d
.LVL391:
	addq	$8, %r9
	jmp	.L1144
.LVL392:
	.p2align 4,,10
	.p2align 3
.L1474:
	movq	$0, 8(%r9)
	movq	$0, 16(%r9)
	addl	$8, %r10d
.LVL393:
	movq	$0, 24(%r9)
.LVL394:
	movq	$0, 32(%r9)
	movq	$0, 40(%r9)
	movq	$0, 48(%r9)
	movq	$0, 56(%r9)
	addq	$64, %r9
.L1144:
	.loc 1 280 0
	cmpl	%r10d, %r15d
	.loc 1 281 0
	movq	$0, (%r9)
.LVL395:
	.loc 1 280 0
	jg	.L1474
.LVL396:
.L1150:
	addq	$1, %r11
	.loc 1 279 0
	cmpl	%r11d, %r15d
	jg	.L1136
	movq	104(%rsp), %r8
	cmpl	$8, %r15d
	movq	120(%rsp), %r13
	movl	148(%rsp), %ebp
	movq	152(%rsp), %rbx
	movq	(%r8), %r9
	jle	.L1174
	.loc 1 257 0
	movq	96(%rsp), %r11
	leal	-9(%r15), %edi
	movq	96(%rsp), %rdx
	leaq	200(%r9), %r12
	.loc 1 284 0
	movl	$8, %ecx
	leaq	264(%r9), %rax
	.loc 1 257 0
	shrl	$3, %edi
	addq	$200, %r11
	leal	8(,%rdi,8), %r10d
	addq	$264, %rdx
	.loc 1 285 0
	movsd	-200(%r11), %xmm3
	andl	$1, %edi
	prefetcht0	(%r11)
	cmpl	%r10d, %ecx
	prefetcht0	(%r12)
	movsd	%xmm3, (%r9)
	movsd	-192(%r11), %xmm4
	movsd	%xmm4, 8(%r9)
	movsd	-184(%r11), %xmm5
	movsd	%xmm5, 16(%r9)
	movsd	-176(%r11), %xmm6
	movsd	%xmm6, 24(%r9)
	movsd	-168(%r11), %xmm7
	movsd	%xmm7, 32(%r9)
	movsd	-160(%r11), %xmm8
	movsd	%xmm8, 40(%r9)
	movsd	-152(%r11), %xmm9
	movsd	%xmm9, 48(%r9)
	movsd	-144(%r11), %xmm10
	movsd	%xmm10, 56(%r9)
	je	.L1154
	testl	%edi, %edi
	je	.L1155
	movsd	-200(%rdx), %xmm11
	prefetcht0	(%rdx)
	.loc 1 284 0
	movl	$16, %ecx
	prefetcht0	(%rax)
	.loc 1 285 0
	movsd	%xmm11, -200(%rax)
	movsd	-192(%rdx), %xmm12
	movsd	%xmm12, -192(%rax)
	movsd	-184(%rdx), %xmm13
	movsd	%xmm13, -184(%rax)
	movsd	-176(%rdx), %xmm14
	movsd	%xmm14, -176(%rax)
	movsd	-168(%rdx), %xmm15
	movsd	%xmm15, -168(%rax)
	movsd	-160(%rdx), %xmm0
	movsd	%xmm0, -160(%rax)
	movsd	-152(%rdx), %xmm1
	movsd	%xmm1, -152(%rax)
	movsd	-144(%rdx), %xmm2
	movq	96(%rsp), %rdx
	movsd	%xmm2, -144(%rax)
	leaq	328(%r9), %rax
	addq	$328, %rdx
	cmpl	%r10d, %ecx
	je	.L1154
.L1155:
	.loc 1 285 0 is_stmt 0 discriminator 2
	movsd	-200(%rdx), %xmm3
	leaq	64(%rdx), %r8
	prefetcht0	(%rdx)
	leaq	64(%rax), %rsi
	.loc 1 284 0 is_stmt 1 discriminator 2
	addl	$16, %ecx
	prefetcht0	(%rax)
	.loc 1 285 0 discriminator 2
	movsd	%xmm3, -200(%rax)
	prefetcht0	(%r8)
	prefetcht0	(%rsi)
	movsd	-192(%rdx), %xmm4
	movsd	%xmm4, -192(%rax)
	movsd	-184(%rdx), %xmm5
	movsd	%xmm5, -184(%rax)
	movsd	-176(%rdx), %xmm6
	movsd	%xmm6, -176(%rax)
	movsd	-168(%rdx), %xmm7
	movsd	%xmm7, -168(%rax)
	movsd	-160(%rdx), %xmm8
	movsd	%xmm8, -160(%rax)
	movsd	-152(%rdx), %xmm9
	movsd	%xmm9, -152(%rax)
	movsd	-144(%rdx), %xmm10
	movsd	%xmm10, -144(%rax)
	movsd	-136(%rdx), %xmm11
	movsd	%xmm11, -136(%rax)
	movsd	-128(%rdx), %xmm12
	movsd	%xmm12, -128(%rax)
	movsd	-120(%rdx), %xmm13
	movsd	%xmm13, -120(%rax)
	movsd	-112(%rdx), %xmm14
	movsd	%xmm14, -112(%rax)
	movsd	-104(%rdx), %xmm15
	movsd	%xmm15, -104(%rax)
	movsd	-96(%rdx), %xmm0
	movsd	%xmm0, -96(%rax)
	movsd	-88(%rdx), %xmm1
	movsd	%xmm1, -88(%rax)
	movsd	-80(%rdx), %xmm2
	subq	$-128, %rdx
	movsd	%xmm2, -80(%rax)
	subq	$-128, %rax
	cmpl	%r10d, %ecx
	jne	.L1155
.L1154:
	.loc 1 257 0
	movq	96(%rsp), %r12
	movslq	%ecx, %r11
	movl	%ecx, %edi
	salq	$3, %r11
	notl	%edi
	leal	1(%rcx), %edx
	leal	(%rdi,%r15), %r10d
	addq	%r11, %r9
	movl	$1, %eax
	addq	%r11, %r12
	.loc 1 285 0
	movsd	(%r12), %xmm3
	andl	$7, %r10d
	.loc 1 284 0
	cmpl	%edx, %r15d
	.loc 1 285 0
	movsd	%xmm3, (%r9)
	.loc 1 284 0
	jle	.L1448
	testl	%r10d, %r10d
	je	.L1156
	cmpl	$1, %r10d
	je	.L1365
	cmpl	$2, %r10d
	je	.L1366
	cmpl	$3, %r10d
	je	.L1367
	cmpl	$4, %r10d
	je	.L1368
	cmpl	$5, %r10d
	je	.L1369
	cmpl	$6, %r10d
	je	.L1370
	.loc 1 285 0
	movsd	8(%r12), %xmm4
	movl	$2, %eax
	movsd	%xmm4, 8(%r9)
.L1370:
	movsd	(%r12,%rax,8), %xmm5
	movsd	%xmm5, (%r9,%rax,8)
	addq	$1, %rax
.L1369:
	movsd	(%r12,%rax,8), %xmm6
	movsd	%xmm6, (%r9,%rax,8)
	addq	$1, %rax
.L1368:
	movsd	(%r12,%rax,8), %xmm7
	movsd	%xmm7, (%r9,%rax,8)
	addq	$1, %rax
.L1367:
	movsd	(%r12,%rax,8), %xmm8
	movsd	%xmm8, (%r9,%rax,8)
	addq	$1, %rax
.L1366:
	movsd	(%r12,%rax,8), %xmm9
	movsd	%xmm9, (%r9,%rax,8)
	addq	$1, %rax
.L1365:
	movsd	(%r12,%rax,8), %xmm10
	movsd	%xmm10, (%r9,%rax,8)
	addq	$1, %rax
	.loc 1 257 0
	leal	(%rcx,%rax), %r8d
	.loc 1 284 0
	cmpl	%r8d, %r15d
	jle	.L1448
.L1156:
	.loc 1 285 0
	movsd	(%r12,%rax,8), %xmm11
	leaq	1(%rax), %rsi
	leaq	2(%rax), %r11
	leaq	3(%rax), %rdi
	leaq	4(%rax), %r10
	movsd	%xmm11, (%r9,%rax,8)
	leaq	5(%rax), %rdx
	leaq	6(%rax), %r8
	movsd	(%r12,%rsi,8), %xmm12
	movsd	%xmm12, (%r9,%rsi,8)
	leaq	7(%rax), %rsi
	addq	$8, %rax
	movsd	(%r12,%r11,8), %xmm13
	movsd	%xmm13, (%r9,%r11,8)
	.loc 1 257 0
	leal	(%rcx,%rax), %r11d
	.loc 1 285 0
	movsd	(%r12,%rdi,8), %xmm14
	.loc 1 284 0
	cmpl	%r11d, %r15d
	.loc 1 285 0
	movsd	%xmm14, (%r9,%rdi,8)
	movsd	(%r12,%r10,8), %xmm15
	movsd	%xmm15, (%r9,%r10,8)
	movsd	(%r12,%rdx,8), %xmm0
	movsd	%xmm0, (%r9,%rdx,8)
	movsd	(%r12,%r8,8), %xmm1
	movsd	%xmm1, (%r9,%r8,8)
	movsd	(%r12,%rsi,8), %xmm2
	movsd	%xmm2, (%r9,%rsi,8)
	.loc 1 284 0
	jg	.L1156
.L1448:
.LVL397:
	.loc 1 288 0 discriminator 1
	cmpl	$1, %r15d
	jle	.L1135
	.loc 1 257 0
	movl	112(%rsp), %r9d
	movq	104(%rsp), %rcx
	leal	-9(%rbp), %eax
	subl	$2, %r15d
.LVL398:
	movq	%rbx, %rdi
	shrl	$3, %eax
	movl	%r15d, 96(%rsp)
	addq	$8, %rcx
	leaq	8(%r13,%r9,8), %r12
	movq	%rcx, %r15
.LVL399:
	movq	%r12, 104(%rsp)
	leal	8(,%rax,8), %r12d
.LVL400:
	.p2align 4,,10
	.p2align 3
.L1157:
	.loc 1 291 0 discriminator 1
	testl	%ebp, %ebp
	jle	.L1170
.LBB365:
.LBB366:
	.loc 1 1492 0 discriminator 2
	movq	(%rdi), %r10
	.loc 1 1493 0 discriminator 2
	movabsq	$4730756183288445817, %rax
	movq	104(%rsp), %rbx
	imulq	%r10
	movq	%r10, %r8
	subq	%r13, %rbx
	sarq	$63, %r8
	subq	$8, %rbx
	shrq	$3, %rbx
	andl	$1, %ebx
.LVL401:
	sarq	$15, %rdx
	subq	%r8, %rdx
.LVL402:
	.loc 1 1494 0 discriminator 2
	imulq	$-127773, %rdx, %rsi
	imulq	$-2836, %rdx, %rcx
	addq	%r10, %rsi
	imulq	$16807, %rsi, %r11
	addq	%rcx, %r11
.LVL403:
	.loc 1 1495 0 discriminator 2
	leaq	2147483647(%r11), %r9
	testq	%r11, %r11
	cmovs	%r9, %r11
.LVL404:
	.loc 1 1497 0 discriminator 2
	cvtsi2sdq	%r11, %xmm0
	.loc 1 1496 0 discriminator 2
	movq	%r11, (%rdi)
.LVL405:
.LBE366:
.LBE365:
	.loc 1 292 0 discriminator 2
	movq	%rbx, 80(%rsp)
	movq	%rdi, 64(%rsp)
	leaq	8(%r13), %rbx
.LBB373:
.LBB367:
	.loc 1 1497 0 discriminator 2
	mulsd	.LC68(%rip), %xmm0
.LBE367:
.LBE373:
	.loc 1 292 0 discriminator 2
	call	_Z12CumNormalInvd
.LVL406:
	.loc 1 291 0 discriminator 2
	cmpq	104(%rsp), %rbx
	.loc 1 292 0 discriminator 2
	movsd	%xmm0, 0(%r13)
.LVL407:
	.loc 1 291 0 discriminator 2
	movq	80(%rsp), %r10
	movq	64(%rsp), %rdi
	je	.L1170
	testq	%r10, %r10
	je	.L1456
.LVL408:
.LBB374:
.LBB368:
	.loc 1 1492 0
	movq	(%rdi), %rbx
	.loc 1 1493 0
	movabsq	$4730756183288445817, %rax
	imulq	%rbx
	movq	%rbx, %r8
	sarq	$63, %r8
	sarq	$15, %rdx
	subq	%r8, %rdx
	.loc 1 1494 0
	imulq	$-127773, %rdx, %rsi
	imulq	$-2836, %rdx, %rcx
	addq	%rbx, %rsi
	leaq	16(%r13), %rbx
	imulq	$16807, %rsi, %r11
	addq	%rcx, %r11
	.loc 1 1495 0
	leaq	2147483647(%r11), %r9
	testq	%r11, %r11
	cmovs	%r9, %r11
	.loc 1 1497 0
	cvtsi2sdq	%r11, %xmm0
	.loc 1 1496 0
	movq	%r11, (%rdi)
.LBE368:
.LBE374:
	.loc 1 292 0
	movq	%rdi, 64(%rsp)
.LBB375:
.LBB369:
	.loc 1 1497 0
	mulsd	.LC68(%rip), %xmm0
.LBE369:
.LBE375:
	.loc 1 292 0
	call	_Z12CumNormalInvd
.LVL409:
	.loc 1 291 0
	cmpq	104(%rsp), %rbx
	.loc 1 292 0
	movsd	%xmm0, 8(%r13)
	.loc 1 291 0
	movq	64(%rsp), %rdi
	je	.L1170
.L1456:
	movl	%r12d, 112(%rsp)
	movq	%rbx, %r12
	movq	104(%rsp), %rbx
	movl	%ebp, 120(%rsp)
	movq	%rdi, %rbp
.L1186:
.LVL410:
.LBB376:
.LBB370:
	.loc 1 1492 0 discriminator 2
	movq	0(%rbp), %r10
	.loc 1 1493 0 discriminator 2
	movabsq	$4730756183288445817, %rax
	imulq	%r10
	movq	%r10, %r8
	sarq	$63, %r8
	sarq	$15, %rdx
	subq	%r8, %rdx
	.loc 1 1494 0 discriminator 2
	imulq	$-127773, %rdx, %rsi
	imulq	$-2836, %rdx, %rcx
	addq	%rsi, %r10
	imulq	$16807, %r10, %r11
	addq	%r11, %rcx
	.loc 1 1495 0 discriminator 2
	leaq	2147483647(%rcx), %r9
	testq	%rcx, %rcx
	cmovs	%r9, %rcx
	.loc 1 1497 0 discriminator 2
	cvtsi2sdq	%rcx, %xmm0
	.loc 1 1496 0 discriminator 2
	movq	%rcx, 0(%rbp)
	.loc 1 1497 0 discriminator 2
	mulsd	.LC68(%rip), %xmm0
.LBE370:
.LBE376:
	.loc 1 292 0 discriminator 2
	call	_Z12CumNormalInvd
.LVL411:
.LBB377:
.LBB371:
	.loc 1 1492 0 discriminator 2
	movq	0(%rbp), %rdi
	.loc 1 1493 0 discriminator 2
	movabsq	$4730756183288445817, %rax
.LBE371:
.LBE377:
	.loc 1 292 0 discriminator 2
	movsd	%xmm0, (%r12)
.LBB378:
.LBB372:
	.loc 1 1493 0 discriminator 2
	imulq	%rdi
	movq	%rdi, %r10
	sarq	$63, %r10
	sarq	$15, %rdx
	subq	%r10, %rdx
	.loc 1 1494 0 discriminator 2
	imulq	$-127773, %rdx, %r8
	imulq	$-2836, %rdx, %r11
	addq	%r8, %rdi
	imulq	$16807, %rdi, %rsi
	addq	%rsi, %r11
	.loc 1 1495 0 discriminator 2
	leaq	2147483647(%r11), %rcx
	testq	%r11, %r11
	cmovs	%rcx, %r11
	.loc 1 1497 0 discriminator 2
	cvtsi2sdq	%r11, %xmm0
	.loc 1 1496 0 discriminator 2
	movq	%r11, 0(%rbp)
	.loc 1 1497 0 discriminator 2
	mulsd	.LC68(%rip), %xmm0
.LBE372:
.LBE378:
	.loc 1 292 0 discriminator 2
	call	_Z12CumNormalInvd
.LVL412:
	movsd	%xmm0, 8(%r12)
	addq	$16, %r12
	.loc 1 291 0 discriminator 2
	cmpq	%rbx, %r12
	jne	.L1186
	movq	%rbp, %rdi
	movl	112(%rsp), %r12d
	movl	120(%rsp), %ebp
.LVL413:
.L1170:
	.loc 1 294 0 discriminator 1
	movl	96(%rsp), %ebx
	testl	%ebx, %ebx
	js	.L1161
	movl	96(%rsp), %ebx
	movq	128(%rsp), %r9
	.loc 1 294 0 is_stmt 0
	xorl	%r11d, %r11d
	movq	%rdi, 112(%rsp)
	sqrtsd	88(%rsp), %xmm4
.LVL414:
	.p2align 4,,10
	.p2align 3
.L1160:
	.loc 1 297 0 is_stmt 1 discriminator 1
	testl	%ebp, %ebp
	leaq	0(,%r11,8), %rax
	xorpd	%xmm5, %xmm5
	jle	.L1163
	.loc 1 297 0 is_stmt 0
	xorl	%r8d, %r8d
	cmpl	$8, %ebp
	xorpd	%xmm3, %xmm3
	jle	.L1165
	.loc 1 298 0 is_stmt 1
	movq	(%r14), %r8
	movq	8(%r14), %rsi
	.loc 1 257 0
	leaq	136(%r14), %rdi
	.loc 1 298 0
	movq	16(%r14), %rcx
	xorpd	%xmm6, %xmm6
	prefetcht0	(%rdi)
	movq	24(%r14), %rdi
	.loc 1 257 0
	leaq	136(%r13), %rdx
	.loc 1 298 0
	movsd	(%r8,%r11,8), %xmm3
	movq	40(%r14), %r8
	leal	-8(%r12), %r10d
	movsd	(%rsi,%r11,8), %xmm7
	prefetcht0	(%rdx)
	movq	32(%r14), %rdx
	mulsd	0(%r13), %xmm3
	movq	48(%r14), %rsi
	shrl	$3, %r10d
	mulsd	8(%r13), %xmm7
	andl	$1, %r10d
	movsd	(%rcx,%r11,8), %xmm8
	movq	56(%r14), %rcx
	movsd	(%rdi,%r11,8), %xmm9
	mulsd	16(%r13), %xmm8
	mulsd	24(%r13), %xmm9
	addsd	%xmm6, %xmm3
.LVL415:
	movsd	(%rdx,%r11,8), %xmm10
	movsd	(%r8,%r11,8), %xmm11
	.loc 1 297 0
	movl	$8, %r8d
	.loc 1 298 0
	mulsd	32(%r13), %xmm10
	cmpl	%r12d, %r8d
	leaq	200(%r13), %rdx
	mulsd	40(%r13), %xmm11
	addsd	%xmm7, %xmm3
.LVL416:
	movsd	(%rsi,%r11,8), %xmm12
	movsd	(%rcx,%r11,8), %xmm13
	leaq	200(%r14), %rcx
	mulsd	48(%r13), %xmm12
	mulsd	56(%r13), %xmm13
	addsd	%xmm8, %xmm3
.LVL417:
	addsd	%xmm9, %xmm3
.LVL418:
	addsd	%xmm10, %xmm3
.LVL419:
	addsd	%xmm11, %xmm3
.LVL420:
	addsd	%xmm12, %xmm3
.LVL421:
	addsd	%xmm13, %xmm3
.LVL422:
	je	.L1165
	testl	%r10d, %r10d
	je	.L1164
	movq	-136(%rcx), %r10
	movq	-128(%rcx), %rdi
	prefetcht0	(%rcx)
	movq	-120(%rcx), %r8
.LVL423:
	movq	-112(%rcx), %rsi
	prefetcht0	(%rdx)
	movsd	(%r10,%rax), %xmm14
	movq	-104(%rcx), %r10
	movsd	(%rdi,%rax), %xmm15
	movq	-96(%rcx), %rdi
	mulsd	-136(%rdx), %xmm14
	mulsd	-128(%rdx), %xmm15
	movsd	(%r8,%rax), %xmm0
	movq	-88(%rcx), %r8
	movsd	(%rsi,%rax), %xmm1
	movq	-80(%rcx), %rcx
	mulsd	-120(%rdx), %xmm0
	mulsd	-112(%rdx), %xmm1
	addsd	%xmm14, %xmm3
.LVL424:
	movsd	(%r10,%rax), %xmm2
	movsd	(%rdi,%rax), %xmm5
	mulsd	-104(%rdx), %xmm2
	mulsd	-96(%rdx), %xmm5
	addsd	%xmm15, %xmm3
	movsd	(%r8,%rax), %xmm6
	movsd	(%rcx,%rax), %xmm7
	.loc 1 297 0
	movl	$16, %r8d
	.loc 1 298 0
	mulsd	-88(%rdx), %xmm6
	cmpl	%r12d, %r8d
	leaq	264(%r14), %rcx
	mulsd	-80(%rdx), %xmm7
	leaq	264(%r13), %rdx
	addsd	%xmm0, %xmm3
	addsd	%xmm1, %xmm3
	addsd	%xmm2, %xmm3
	addsd	%xmm5, %xmm3
	addsd	%xmm6, %xmm3
	addsd	%xmm7, %xmm3
.LVL425:
	je	.L1165
.L1164:
	.loc 1 298 0 is_stmt 0 discriminator 2
	movq	-136(%rcx), %rsi
	movq	-128(%rcx), %r10
	.loc 1 297 0 is_stmt 1 discriminator 2
	addl	$16, %r8d
.LVL426:
	.loc 1 298 0 discriminator 2
	movq	-120(%rcx), %rdi
	prefetcht0	(%rcx)
	prefetcht0	(%rdx)
	movsd	(%rsi,%rax), %xmm8
	movq	-112(%rcx), %rsi
	movsd	(%rdi,%rax), %xmm9
	movq	-96(%rcx), %rdi
	mulsd	-136(%rdx), %xmm8
	mulsd	-120(%rdx), %xmm9
	movsd	(%rsi,%rax), %xmm10
	movq	-88(%rcx), %rsi
	movsd	(%rdi,%rax), %xmm12
	leaq	64(%rcx), %rdi
	mulsd	-112(%rdx), %xmm10
	mulsd	-96(%rdx), %xmm12
	prefetcht0	(%rdi)
	movq	-64(%rcx), %rdi
	addsd	%xmm3, %xmm8
.LVL427:
	movsd	(%r10,%rax), %xmm3
	movq	-104(%rcx), %r10
	movsd	(%rsi,%rax), %xmm13
	mulsd	-128(%rdx), %xmm3
	leaq	64(%rdx), %rsi
	mulsd	-88(%rdx), %xmm13
	movsd	(%r10,%rax), %xmm11
	movq	-80(%rcx), %r10
	prefetcht0	(%rsi)
	movsd	(%rdi,%rax), %xmm15
	movq	-56(%rcx), %rsi
	mulsd	-104(%rdx), %xmm11
	movq	-40(%rcx), %rdi
	movsd	(%r10,%rax), %xmm14
	movq	-72(%rcx), %r10
	addsd	%xmm3, %xmm8
	mulsd	-64(%rdx), %xmm15
	mulsd	-80(%rdx), %xmm14
	movsd	(%r10,%rax), %xmm3
	movq	-48(%rcx), %r10
	movsd	(%rsi,%rax), %xmm0
	movq	-32(%rcx), %rsi
	addsd	%xmm9, %xmm8
	mulsd	-72(%rdx), %xmm3
	mulsd	-56(%rdx), %xmm0
	movsd	(%r10,%rax), %xmm1
	movq	-24(%rcx), %r10
	movsd	(%rdi,%rax), %xmm2
	movq	-16(%rcx), %rdi
	subq	$-128, %rcx
	addsd	%xmm10, %xmm8
	mulsd	-48(%rdx), %xmm1
	mulsd	-40(%rdx), %xmm2
	movsd	(%rsi,%rax), %xmm5
	movsd	(%r10,%rax), %xmm6
	addsd	%xmm11, %xmm8
	mulsd	-32(%rdx), %xmm5
	mulsd	-24(%rdx), %xmm6
	movsd	(%rdi,%rax), %xmm7
	addsd	%xmm12, %xmm8
	mulsd	-16(%rdx), %xmm7
	subq	$-128, %rdx
	cmpl	%r12d, %r8d
	addsd	%xmm13, %xmm8
	addsd	%xmm14, %xmm8
	addsd	%xmm8, %xmm3
	addsd	%xmm15, %xmm3
	addsd	%xmm0, %xmm3
	addsd	%xmm1, %xmm3
	addsd	%xmm2, %xmm3
	addsd	%xmm5, %xmm3
	addsd	%xmm6, %xmm3
	addsd	%xmm7, %xmm3
.LVL428:
	jne	.L1164
.LVL429:
.L1165:
	.loc 1 257 0
	movslq	%r8d, %rcx
	movl	%r8d, %edx
	salq	$3, %rcx
	notl	%edx
	leaq	(%r14,%rcx), %rsi
	addq	%r13, %rcx
	leal	(%rdx,%rbp), %edi
	movl	$1, %edx
	.loc 1 298 0
	movq	(%rsi), %r10
	andl	$7, %edi
	movsd	(%r10,%rax), %xmm5
	.loc 1 257 0
	leal	1(%r8), %r10d
	.loc 1 298 0
	mulsd	(%rcx), %xmm5
	.loc 1 297 0
	cmpl	%r10d, %ebp
	.loc 1 298 0
	addsd	%xmm3, %xmm5
.LVL430:
	.loc 1 297 0
	jle	.L1163
	testl	%edi, %edi
	je	.L1162
	cmpl	$1, %edi
	je	.L1359
	cmpl	$2, %edi
	.p2align 4,,3
	je	.L1360
	cmpl	$3, %edi
	.p2align 4,,2
	je	.L1361
	cmpl	$4, %edi
	.p2align 4,,2
	je	.L1362
	cmpl	$5, %edi
	.p2align 4,,2
	je	.L1363
	cmpl	$6, %edi
	.p2align 4,,2
	je	.L1364
	.loc 1 298 0
	movq	8(%rsi), %rdx
	movsd	(%rdx,%rax), %xmm8
	movl	$2, %edx
	mulsd	8(%rcx), %xmm8
	addsd	%xmm8, %xmm5
.LVL431:
.L1364:
	movq	(%rsi,%rdx,8), %rdi
	movsd	(%rdi,%rax), %xmm3
	mulsd	(%rcx,%rdx,8), %xmm3
	addq	$1, %rdx
	addsd	%xmm3, %xmm5
.L1363:
	movq	(%rsi,%rdx,8), %r10
	movsd	(%r10,%rax), %xmm9
	mulsd	(%rcx,%rdx,8), %xmm9
	addq	$1, %rdx
	addsd	%xmm9, %xmm5
.L1362:
	movq	(%rsi,%rdx,8), %rdi
	movsd	(%rdi,%rax), %xmm10
	mulsd	(%rcx,%rdx,8), %xmm10
	addq	$1, %rdx
	addsd	%xmm10, %xmm5
.L1361:
	movq	(%rsi,%rdx,8), %r10
	movsd	(%r10,%rax), %xmm11
	mulsd	(%rcx,%rdx,8), %xmm11
	addq	$1, %rdx
	addsd	%xmm11, %xmm5
.L1360:
	movq	(%rsi,%rdx,8), %rdi
	movsd	(%rdi,%rax), %xmm12
	mulsd	(%rcx,%rdx,8), %xmm12
	addq	$1, %rdx
	addsd	%xmm12, %xmm5
.L1359:
	movq	(%rsi,%rdx,8), %r10
	movsd	(%r10,%rax), %xmm13
	mulsd	(%rcx,%rdx,8), %xmm13
	addq	$1, %rdx
	.loc 1 257 0
	leal	(%r8,%rdx), %edi
	.loc 1 297 0
	cmpl	%edi, %ebp
	.loc 1 298 0
	addsd	%xmm13, %xmm5
	.loc 1 297 0
	jle	.L1163
.L1162:
	.loc 1 298 0
	movq	(%rsi,%rdx,8), %r10
	leaq	1(%rdx), %rdi
	movsd	(%r10,%rax), %xmm14
	movq	(%rsi,%rdi,8), %r10
	mulsd	(%rcx,%rdx,8), %xmm14
	movsd	(%r10,%rax), %xmm15
	mulsd	(%rcx,%rdi,8), %xmm15
	leaq	2(%rdx), %rdi
	movq	(%rsi,%rdi,8), %r10
	addsd	%xmm14, %xmm5
	movsd	(%r10,%rax), %xmm0
	mulsd	(%rcx,%rdi,8), %xmm0
	leaq	3(%rdx), %rdi
	addsd	%xmm15, %xmm5
	movq	(%rsi,%rdi,8), %r10
	movsd	(%r10,%rax), %xmm1
	addsd	%xmm0, %xmm5
	mulsd	(%rcx,%rdi,8), %xmm1
	leaq	4(%rdx), %rdi
	movq	(%rsi,%rdi,8), %r10
	movsd	(%r10,%rax), %xmm2
	addsd	%xmm1, %xmm5
	mulsd	(%rcx,%rdi,8), %xmm2
	leaq	5(%rdx), %rdi
	movq	(%rsi,%rdi,8), %r10
	movsd	(%r10,%rax), %xmm6
	addsd	%xmm2, %xmm5
	mulsd	(%rcx,%rdi,8), %xmm6
	leaq	6(%rdx), %rdi
	movq	(%rsi,%rdi,8), %r10
	movsd	(%r10,%rax), %xmm7
	addsd	%xmm6, %xmm5
	mulsd	(%rcx,%rdi,8), %xmm7
	leaq	7(%rdx), %rdi
	addq	$8, %rdx
	movq	(%rsi,%rdi,8), %r10
	movsd	(%r10,%rax), %xmm8
	addsd	%xmm7, %xmm5
	mulsd	(%rcx,%rdi,8), %xmm8
	.loc 1 257 0
	leal	(%r8,%rdx), %edi
	.loc 1 297 0
	cmpl	%edi, %ebp
	.loc 1 298 0
	addsd	%xmm8, %xmm5
	.loc 1 297 0
	jg	.L1162
.L1163:
	.loc 1 299 0
	movsd	88(%rsp), %xmm3
	addq	(%r15), %rax
	ucomisd	%xmm4, %xmm4
	mulsd	(%r9,%r11,8), %xmm3
	movq	-8(%r15), %r8
	.loc 1 257 0
	leaq	1(%r11), %rcx
	.loc 1 299 0
	movapd	%xmm4, %xmm0
	addsd	(%r8,%rcx,8), %xmm3
	jp	.L1475
.L1166:
	mulsd	%xmm0, %xmm5
	.loc 1 294 0
	cmpl	%ecx, %ebx
	.loc 1 299 0
	addsd	%xmm3, %xmm5
	movsd	%xmm5, (%rax)
	.loc 1 294 0
	jl	.L1450
	movq	%rcx, %r11
	jmp	.L1160
	.p2align 4,,10
	.p2align 3
.L1450:
	movq	112(%rsp), %rdi
.L1161:
	subl	$1, 96(%rsp)
	addq	$8, %r15
	.loc 1 288 0
	cmpl	$-1, 96(%rsp)
	jne	.L1157
.LVL432:
.L1135:
.LBB379:
.LBB380:
	.loc 1 1428 0
	movq	136(%rsp), %rdi
	call	free
.LVL433:
.LBE380:
.LBE379:
.LBE387:
	.loc 1 307 0
	addq	$168, %rsp
.LCFI98:
	.cfi_remember_state
	.cfi_def_cfa_offset 56
	movl	$1, %eax
	popq	%rbx
.LCFI99:
	.cfi_def_cfa_offset 48
	popq	%rbp
.LCFI100:
	.cfi_def_cfa_offset 40
	popq	%r12
.LCFI101:
	.cfi_def_cfa_offset 32
	popq	%r13
.LCFI102:
	.cfi_def_cfa_offset 24
	popq	%r14
.LCFI103:
	.cfi_def_cfa_offset 16
.LVL434:
	popq	%r15
.LCFI104:
	.cfi_def_cfa_offset 8
	ret
.LVL435:
.L1172:
.LCFI105:
	.cfi_restore_state
	.loc 1 257 0
	xorl	%r10d, %r10d
	xorl	%r13d, %r13d
	jmp	.L1148
.LVL436:
.L1174:
.LBB388:
	.loc 1 279 0
	xorl	%ecx, %ecx
	jmp	.L1154
.LVL437:
.L1171:
.LBE388:
	.loc 1 257 0
	xorl	%edx, %edx
	jmp	.L1147
.LVL438:
.L1475:
.LBB389:
	.loc 1 299 0
	movsd	88(%rsp), %xmm0
	movq	%rax, 80(%rsp)
	movq	%rcx, 56(%rsp)
	movsd	%xmm5, 16(%rsp)
	movq	%r9, 8(%rsp)
	movsd	%xmm4, 32(%rsp)
	movsd	%xmm3, 64(%rsp)
	call	sqrt
.LVL439:
	movq	8(%rsp), %r9
	movsd	64(%rsp), %xmm3
	movq	56(%rsp), %rcx
	movsd	32(%rsp), %xmm4
	movq	80(%rsp), %rax
	movsd	16(%rsp), %xmm5
	jmp	.L1166
.LVL440:
.L1473:
.LBB381:
.LBB363:
.LBB361:
	.loc 1 1418 0
	movl	$.LC99, %edi
	call	_Z7nrerrorPKc
.LVL441:
.LBE361:
.LBE363:
.LBE381:
.LBE389:
	.cfi_endproc
.LFE81:
	.size	_Z19HJM_SimPath_ForwardPPdiidS_S_S0_Pl, .-_Z19HJM_SimPath_ForwardPPdiidS_S_S0_Pl
	.p2align 4,,15
	.globl	_Z20Discount_Factors_optPdidS_
	.type	_Z20Discount_Factors_optPdidS_, @function
_Z20Discount_Factors_optPdidS_:
.LFB85:
	.loc 1 405 0
	.cfi_startproc
.LVL442:
.LBB396:
	.loc 1 410 0
	cvtsi2sd	%esi, %xmm1
.LBE396:
	.loc 1 405 0
	pushq	%r15
.LCFI106:
	.cfi_def_cfa_offset 16
	.cfi_offset 15, -16
.LBB405:
	.loc 1 413 0
	leal	-2(%rsi), %eax
.LBE405:
	.loc 1 405 0
	pushq	%r14
.LCFI107:
	.cfi_def_cfa_offset 24
	.cfi_offset 14, -24
.LBB406:
	.loc 1 413 0
	cltq
.LBE406:
	.loc 1 405 0
	pushq	%r13
.LCFI108:
	.cfi_def_cfa_offset 32
	.cfi_offset 13, -32
	pushq	%r12
.LCFI109:
	.cfi_def_cfa_offset 40
	.cfi_offset 12, -40
	pushq	%rbp
.LCFI110:
	.cfi_def_cfa_offset 48
	.cfi_offset 6, -48
	pushq	%rbx
.LCFI111:
	.cfi_def_cfa_offset 56
	.cfi_offset 3, -56
	movl	%esi, %ebx
.LBB407:
	.loc 1 410 0
	divsd	%xmm1, %xmm0
.LVL443:
.LBE407:
	.loc 1 405 0
	subq	$72, %rsp
.LCFI112:
	.cfi_def_cfa_offset 128
	.loc 1 405 0
	movq	%rdi, 40(%rsp)
.LBB408:
.LBB397:
.LBB398:
.LBB399:
	.loc 1 1417 0
	leaq	16(,%rax,8), %rdi
.LVL444:
	movq	%rdx, 8(%rsp)
	movsd	%xmm0, 16(%rsp)
	call	malloc
.LVL445:
	.loc 1 1418 0
	testq	%rax, %rax
	.loc 1 1417 0
	movq	%rax, 56(%rsp)
.LVL446:
	.loc 1 1418 0
	movq	8(%rsp), %rdx
	movsd	16(%rsp), %xmm0
	je	.L1958
	movq	%rax, %r14
	.loc 1 413 0
	addq	$8, %r14
.LVL447:
.LBE399:
.LBE398:
.LBE397:
	.loc 1 416 0
	testl	%ebx, %ebx
	jle	.L1519
	.loc 1 401 0
	movq	40(%rsp), %rcx
.LBE408:
	movl	%ebx, %edi
.LBB409:
	salq	$60, %rcx
	shrq	$63, %rcx
	cmpl	%ecx, %ebx
	cmovb	%ebx, %ecx
.LBE409:
	cmpl	$6, %ebx
	cmova	%ecx, %edi
	testl	%edi, %edi
	je	.L1520
	cmpl	$8, %edi
	jbe	.L1521
.LBB410:
	leal	-9(%rdi), %esi
	movq	40(%rsp), %rax
.LVL448:
	.loc 1 417 0
	movabsq	$4607182418800017408, %r9
	movabsq	$4607182418800017408, %rcx
	movabsq	$4607182418800017408, %rbp
	movabsq	$4607182418800017408, %r11
	.loc 1 401 0
	shrl	$3, %esi
	.loc 1 417 0
	movabsq	$4607182418800017408, %r12
	movabsq	$4607182418800017408, %r13
	.loc 1 401 0
	leaq	1(%rsi), %r10
	addq	$232, %rax
	.loc 1 417 0
	movabsq	$4607182418800017408, %rsi
	movabsq	$4607182418800017408, %r15
	movq	%r9, -224(%rax)
	movq	%rcx, -184(%rax)
	.loc 1 401 0
	salq	$6, %r10
	.loc 1 417 0
	movq	%rsi, -176(%rax)
	prefetcht0	(%rax)
	leaq	-64(%r10), %r8
	movq	%rbp, -232(%rax)
.LVL449:
	movq	%r11, -216(%rax)
	movq	%r12, -208(%rax)
	movq	%r13, -200(%rax)
	movl	$64, %ecx
	movq	%r15, -192(%rax)
	movq	40(%rsp), %rax
	shrq	$6, %r8
	andl	$3, %r8d
	.loc 1 416 0
	movl	$8, %esi
	movl	$8, %r9d
	addq	$296, %rax
	cmpq	%r10, %rcx
	je	.L1481
	testq	%r8, %r8
	je	.L1482
	cmpq	$1, %r8
	je	.L1845
	cmpq	$2, %r8
	je	.L1846
	.loc 1 417 0
	movabsq	$4607182418800017408, %rcx
	movabsq	$4607182418800017408, %r8
	movabsq	$4607182418800017408, %rbp
	movabsq	$4607182418800017408, %r9
	movabsq	$4607182418800017408, %r11
	movabsq	$4607182418800017408, %r12
	movabsq	$4607182418800017408, %r13
	movabsq	$4607182418800017408, %r15
	movq	%rcx, -176(%rax)
	prefetcht0	(%rax)
	movq	%r8, -232(%rax)
	movq	%rbp, -224(%rax)
	movq	%r9, -216(%rax)
	movq	%r11, -208(%rax)
	.loc 1 416 0
	movl	$16, %esi
	.loc 1 417 0
	movq	%r12, -200(%rax)
	movq	%r13, -192(%rax)
	movl	$128, %ecx
	movq	%r15, -184(%rax)
	movq	40(%rsp), %rax
	addq	$360, %rax
.L1846:
	movabsq	$4607182418800017408, %r8
	movabsq	$4607182418800017408, %rbp
	movabsq	$4607182418800017408, %r9
	movq	%r8, -232(%rax)
	movabsq	$4607182418800017408, %r11
	movabsq	$4607182418800017408, %r12
	movabsq	$4607182418800017408, %r13
	movabsq	$4607182418800017408, %r15
	movabsq	$4607182418800017408, %r8
	prefetcht0	(%rax)
	movq	%rbp, -224(%rax)
	movq	%r9, -216(%rax)
	movq	%r11, -208(%rax)
	movq	%r12, -200(%rax)
	.loc 1 416 0
	addl	$8, %esi
	.loc 1 417 0
	movq	%r13, -192(%rax)
	movq	%r15, -184(%rax)
	addq	$64, %rcx
	movq	%r8, -176(%rax)
	addq	$64, %rax
.L1845:
	movabsq	$4607182418800017408, %rbp
	movabsq	$4607182418800017408, %r9
	movabsq	$4607182418800017408, %r11
	movq	%rbp, -232(%rax)
	movabsq	$4607182418800017408, %r12
	movabsq	$4607182418800017408, %r13
	movabsq	$4607182418800017408, %r15
	movabsq	$4607182418800017408, %r8
	movabsq	$4607182418800017408, %rbp
	addq	$64, %rcx
	movq	%r9, -224(%rax)
	.loc 1 416 0
	addl	$8, %esi
	prefetcht0	(%rax)
	.loc 1 417 0
	movq	%r11, -216(%rax)
	movq	%r12, -208(%rax)
	movq	%r13, -200(%rax)
	movq	%r15, -192(%rax)
	movl	%esi, %r9d
	movq	%r8, -184(%rax)
	movq	%rbp, -176(%rax)
	addq	$64, %rax
	cmpq	%r10, %rcx
	je	.L1481
.L1482:
	movabsq	$4607182418800017408, %r12
	movabsq	$4607182418800017408, %r15
	movabsq	$4607182418800017408, %rbp
	movabsq	$4607182418800017408, %r11
	movq	%r12, -224(%rax)
	movabsq	$4607182418800017408, %r13
	leaq	64(%rax), %r12
	movq	%r15, -208(%rax)
	movabsq	$4607182418800017408, %r8
	movq	%rbp, -192(%rax)
	movabsq	$4607182418800017408, %r9
	movabsq	$4607182418800017408, %r15
	movabsq	$4607182418800017408, %rbp
	movq	%r11, -232(%rax)
	movq	%r13, -216(%rax)
	movq	%r8, -200(%rax)
	movq	%r9, -184(%rax)
	movabsq	$4607182418800017408, %r11
	movabsq	$4607182418800017408, %r13
	movq	%r15, -160(%rax)
	movabsq	$4607182418800017408, %r8
	leaq	128(%rax), %r15
	movq	%rbp, -144(%rax)
	movabsq	$4607182418800017408, %r9
	movabsq	$4607182418800017408, %rbp
	movq	%r11, -176(%rax)
	movq	%r13, -168(%rax)
	movq	%r8, -152(%rax)
	movq	%r9, -136(%rax)
	movabsq	$4607182418800017408, %r11
	movabsq	$4607182418800017408, %r13
	movabsq	$4607182418800017408, %r8
	movq	%rbp, -96(%rax)
	movabsq	$4607182418800017408, %r9
	leaq	192(%rax), %rbp
	prefetcht0	(%r12)
	movabsq	$4607182418800017408, %r12
	movq	%r11, -128(%rax)
	movq	%r13, -112(%rax)
	movq	%r12, -120(%rax)
	movq	%r8, -104(%rax)
	movabsq	$4607182418800017408, %r11
	movq	%r9, -88(%rax)
	movabsq	$4607182418800017408, %r12
	movabsq	$4607182418800017408, %r13
	movabsq	$4607182418800017408, %r8
	movabsq	$4607182418800017408, %r9
	prefetcht0	(%r15)
	movabsq	$4607182418800017408, %r15
	movq	%r11, -80(%rax)
	movq	%r12, -72(%rax)
	movq	%r13, -64(%rax)
	movq	%r15, -56(%rax)
	prefetcht0	0(%rbp)
	movq	%r8, -48(%rax)
	movq	%r9, -40(%rax)
	movabsq	$4607182418800017408, %r11
	movabsq	$4607182418800017408, %r9
	movabsq	$4607182418800017408, %r12
	movabsq	$4607182418800017408, %r13
	movabsq	$4607182418800017408, %r15
	movabsq	$4607182418800017408, %r8
	movabsq	$4607182418800017408, %rbp
	addq	$256, %rcx
	movq	%r9, 16(%rax)
	.loc 1 416 0
	addl	$32, %esi
	prefetcht0	(%rax)
	.loc 1 417 0
	movq	%r11, -32(%rax)
	movq	%r12, -24(%rax)
	movq	%r13, -16(%rax)
	movq	%r15, -8(%rax)
	movl	%esi, %r9d
	movq	%r8, (%rax)
	movq	%rbp, 8(%rax)
	addq	$256, %rax
	cmpq	%r10, %rcx
	jne	.L1482
.L1481:
.LVL450:
	.loc 1 401 0
	movq	40(%rsp), %rax
	movl	%r9d, %r13d
	movslq	%esi, %r10
	notl	%r13d
	leal	1(%r9), %r11d
	.loc 1 417 0
	movabsq	$4607182418800017408, %rcx
	addl	%edi, %r13d
	.loc 1 401 0
	leaq	(%rax,%r10,8), %r12
	andl	$7, %r13d
	cmpl	%r11d, %edi
	.loc 1 417 0
	movq	%rcx, (%r12)
	leaq	8(%r12), %rax
	.loc 1 401 0
	leal	1(%rsi), %ecx
	jbe	.L1921
	testl	%r13d, %r13d
	je	.L1483
	cmpl	$1, %r13d
	je	.L1839
	cmpl	$2, %r13d
	je	.L1840
	cmpl	$3, %r13d
	je	.L1841
	cmpl	$4, %r13d
	je	.L1842
	cmpl	$5, %r13d
	je	.L1843
	cmpl	$6, %r13d
	je	.L1844
	.loc 1 417 0
	movabsq	$4607182418800017408, %r15
	.loc 1 416 0
	leal	2(%rsi), %ecx
.LVL451:
	.loc 1 417 0
	movq	%r15, (%rax)
	leaq	16(%r12), %rax
.L1844:
	movabsq	$4607182418800017408, %r8
	.loc 1 416 0
	addl	$1, %ecx
	.loc 1 417 0
	movq	%r8, (%rax)
	addq	$8, %rax
.L1843:
	movabsq	$4607182418800017408, %rbp
	.loc 1 416 0
	addl	$1, %ecx
	.loc 1 417 0
	movq	%rbp, (%rax)
	addq	$8, %rax
.L1842:
	movabsq	$4607182418800017408, %r10
	.loc 1 416 0
	addl	$1, %ecx
	.loc 1 417 0
	movq	%r10, (%rax)
	addq	$8, %rax
.L1841:
	movabsq	$4607182418800017408, %r12
	.loc 1 416 0
	addl	$1, %ecx
	.loc 1 417 0
	movq	%r12, (%rax)
	addq	$8, %rax
.L1840:
	movabsq	$4607182418800017408, %r13
	.loc 1 416 0
	addl	$1, %ecx
	.loc 1 417 0
	movq	%r13, (%rax)
	addq	$8, %rax
.L1839:
	.loc 1 416 0
	addl	$1, %ecx
	.loc 1 417 0
	movabsq	$4607182418800017408, %r11
	.loc 1 401 0
	leal	(%r9,%rcx), %r15d
	.loc 1 417 0
	movq	%r11, (%rax)
	addq	$8, %rax
	subl	%esi, %r15d
	cmpl	%r15d, %edi
	jbe	.L1921
.L1483:
	movabsq	$4607182418800017408, %rbp
	.loc 1 416 0
	addl	$8, %ecx
	.loc 1 417 0
	movabsq	$4607182418800017408, %r8
	movq	%rbp, 8(%rax)
	.loc 1 401 0
	leal	(%r9,%rcx), %ebp
	.loc 1 417 0
	movq	%r8, (%rax)
	movabsq	$4607182418800017408, %r10
	movabsq	$4607182418800017408, %r12
	movabsq	$4607182418800017408, %r13
	movabsq	$4607182418800017408, %r11
	movabsq	$4607182418800017408, %r15
	movabsq	$4607182418800017408, %r8
	subl	%esi, %ebp
	movq	%r10, 16(%rax)
	movq	%r12, 24(%rax)
	movq	%r13, 32(%rax)
	movq	%r11, 40(%rax)
	movq	%r15, 48(%rax)
	movq	%r8, 56(%rax)
	addq	$64, %rax
	cmpl	%ebp, %edi
	ja	.L1483
.L1921:
	cmpl	%edi, %ebx
	je	.L1484
.L1480:
	movl	%ebx, %r11d
	movl	%edi, %esi
	subl	%edi, %r11d
	movl	%r11d, %r8d
	shrl	%r8d
	movl	%r8d, %ebp
	addl	%ebp, %ebp
	je	.L1485
	movq	40(%rsp), %r9
	cmpl	$4, %r8d
	.loc 1 401 0
	leal	-3(%r8), %r12d
	leaq	(%r9,%rsi,8), %rax
	jbe	.L1522
	leal	-5(%r8), %edi
	movapd	.LC26(%rip), %xmm2
	prefetcht0	640(%rax)
	movl	$4, %r10d
	movl	$4, %r15d
	shrl	$2, %edi
	andl	$3, %edi
	.loc 1 417 0
	movapd	%xmm2, (%rax)
	movapd	%xmm2, 16(%rax)
	movapd	%xmm2, 32(%rax)
	movapd	%xmm2, 48(%rax)
	.loc 1 401 0
	addq	$64, %rax
	cmpl	$5, %r12d
	jbe	.L1486
	testl	%edi, %edi
	je	.L1487
	cmpl	$1, %edi
	je	.L1837
	cmpl	$2, %edi
	.p2align 4,,3
	je	.L1838
	prefetcht0	640(%rax)
	.loc 1 417 0
	movapd	%xmm2, (%rax)
	movl	$8, %r15d
	movapd	%xmm2, 16(%rax)
	movapd	%xmm2, 32(%rax)
	movapd	%xmm2, 48(%rax)
	.loc 1 401 0
	addq	$64, %rax
.L1838:
	prefetcht0	640(%rax)
	.loc 1 417 0
	movapd	%xmm2, (%rax)
	addl	$4, %r15d
	movapd	%xmm2, 16(%rax)
	movapd	%xmm2, 32(%rax)
	movapd	%xmm2, 48(%rax)
	.loc 1 401 0
	addq	$64, %rax
.L1837:
	leal	5(%r15), %r13d
	leal	4(%r15), %r10d
	prefetcht0	640(%rax)
	.loc 1 417 0
	movapd	%xmm2, (%rax)
	movl	%r10d, %r15d
	movapd	%xmm2, 16(%rax)
	movapd	%xmm2, 32(%rax)
	movapd	%xmm2, 48(%rax)
	.loc 1 401 0
	addq	$64, %rax
	cmpl	%r12d, %r13d
	jae	.L1486
.L1487:
	leal	17(%r15), %esi
	leal	16(%r15), %r10d
	prefetcht0	640(%rax)
	.loc 1 417 0 discriminator 2
	movapd	%xmm2, (%rax)
	prefetcht0	704(%rax)
	prefetcht0	768(%rax)
	prefetcht0	832(%rax)
	movl	%r10d, %r15d
	movapd	%xmm2, 16(%rax)
	movapd	%xmm2, 32(%rax)
	movapd	%xmm2, 48(%rax)
	movapd	%xmm2, 64(%rax)
	movapd	%xmm2, 80(%rax)
	movapd	%xmm2, 96(%rax)
	movapd	%xmm2, 112(%rax)
	movapd	%xmm2, 128(%rax)
	movapd	%xmm2, 144(%rax)
	movapd	%xmm2, 160(%rax)
	movapd	%xmm2, 176(%rax)
	movapd	%xmm2, 192(%rax)
	movapd	%xmm2, 208(%rax)
	movapd	%xmm2, 224(%rax)
	movapd	%xmm2, 240(%rax)
	.loc 1 401 0 discriminator 2
	addq	$256, %rax
	cmpl	%r12d, %esi
	jb	.L1487
.L1486:
	movl	%r10d, %r9d
	leal	1(%r10), %edi
	leaq	16(%rax), %r12
	notl	%r9d
	addl	%r8d, %r9d
	andl	$7, %r9d
	cmpl	%edi, %r8d
	.loc 1 417 0
	movapd	%xmm2, (%rax)
	jbe	.L1924
	testl	%r9d, %r9d
	je	.L1492
	cmpl	$1, %r9d
	je	.L1831
	cmpl	$2, %r9d
	je	.L1832
	cmpl	$3, %r9d
	je	.L1833
	cmpl	$4, %r9d
	je	.L1834
	cmpl	$5, %r9d
	je	.L1835
	cmpl	$6, %r9d
	je	.L1836
	movapd	%xmm2, (%r12)
	leal	2(%r10), %edi
	leaq	32(%rax), %r12
.L1836:
	movapd	%xmm2, (%r12)
	addl	$1, %edi
	addq	$16, %r12
.L1835:
	movapd	%xmm2, (%r12)
	addl	$1, %edi
	addq	$16, %r12
.L1834:
	movapd	%xmm2, (%r12)
	addl	$1, %edi
	addq	$16, %r12
.L1833:
	movapd	%xmm2, (%r12)
	addl	$1, %edi
	addq	$16, %r12
.L1832:
	movapd	%xmm2, (%r12)
	addl	$1, %edi
	addq	$16, %r12
.L1831:
	addl	$1, %edi
	movapd	%xmm2, (%r12)
	addq	$16, %r12
	cmpl	%edi, %r8d
	jbe	.L1924
.L1492:
	addl	$8, %edi
	movapd	%xmm2, (%r12)
	movapd	%xmm2, 16(%r12)
	movapd	%xmm2, 32(%r12)
	movapd	%xmm2, 48(%r12)
	movapd	%xmm2, 64(%r12)
	movapd	%xmm2, 80(%r12)
	movapd	%xmm2, 96(%r12)
	movapd	%xmm2, 112(%r12)
	subq	$-128, %r12
	cmpl	%edi, %r8d
	ja	.L1492
.L1924:
	addl	%ebp, %ecx
	cmpl	%ebp, %r11d
	je	.L1484
.L1485:
	cmpl	%ecx, %ebx
	.loc 1 401 0
	leal	-7(%rbx), %r9d
	leal	1(%rcx), %esi
	jle	.L1489
	cmpl	%r9d, %esi
	jge	.L1489
	movq	40(%rsp), %r13
	movslq	%ecx, %r10
	movl	%r9d, %r8d
	subl	%ecx, %r8d
	.loc 1 417 0
	movabsq	$4607182418800017408, %rsi
	.loc 1 416 0
	addl	$8, %ecx
	subl	$2, %r8d
	.loc 1 417 0
	movabsq	$4607182418800017408, %rax
	movabsq	$4607182418800017408, %r15
	.loc 1 401 0
	leaq	272(%r13,%r10,8), %rdi
	shrl	$3, %r8d
	.loc 1 417 0
	movabsq	$4607182418800017408, %r12
	andl	$3, %r8d
	movabsq	$4607182418800017408, %rbp
	movabsq	$4607182418800017408, %r11
	movq	%rsi, -256(%rdi)
	.loc 1 401 0
	leal	1(%rcx), %esi
	.loc 1 417 0
	movabsq	$4607182418800017408, %r10
	movabsq	$4607182418800017408, %r13
	movq	%rax, -264(%rdi)
	prefetcht0	(%rdi)
	cmpl	%esi, %r9d
	movq	%r15, -272(%rdi)
	movq	%r12, -248(%rdi)
	movq	%rbp, -240(%rdi)
	movq	%r11, -232(%rdi)
	leaq	64(%rdi), %rax
	movq	%r10, -224(%rdi)
	movq	%r13, -216(%rdi)
	jle	.L1489
	testl	%r8d, %r8d
	je	.L1490
	cmpl	$1, %r8d
	je	.L1829
	cmpl	$2, %r8d
	je	.L1830
	movabsq	$4607182418800017408, %r8
	movabsq	$4607182418800017408, %r15
	movabsq	$4607182418800017408, %rsi
	movabsq	$4607182418800017408, %r12
	movabsq	$4607182418800017408, %rbp
	movabsq	$4607182418800017408, %r11
	movabsq	$4607182418800017408, %r10
	movabsq	$4607182418800017408, %r13
	prefetcht0	(%rax)
	movq	%r8, -272(%rax)
	movq	%r15, -264(%rax)
	.loc 1 416 0
	addl	$8, %ecx
	.loc 1 417 0
	movq	%rsi, -256(%rax)
	movq	%r12, -248(%rax)
	movq	%rbp, -240(%rax)
	movq	%r11, -232(%rax)
	movq	%r10, -224(%rax)
	movq	%r13, -216(%rax)
	leaq	128(%rdi), %rax
.L1830:
	movabsq	$4607182418800017408, %rdi
	movabsq	$4607182418800017408, %r8
	movabsq	$4607182418800017408, %r15
	movabsq	$4607182418800017408, %rsi
	movabsq	$4607182418800017408, %r12
	movabsq	$4607182418800017408, %rbp
	movabsq	$4607182418800017408, %r11
	movabsq	$4607182418800017408, %r10
	prefetcht0	(%rax)
	movq	%rdi, -272(%rax)
	movq	%r8, -264(%rax)
	.loc 1 416 0
	addl	$8, %ecx
	.loc 1 417 0
	movq	%r15, -256(%rax)
	movq	%rsi, -248(%rax)
	movq	%r12, -240(%rax)
	movq	%rbp, -232(%rax)
	movq	%r11, -224(%rax)
	movq	%r10, -216(%rax)
	addq	$64, %rax
.L1829:
	movabsq	$4607182418800017408, %rsi
	.loc 1 416 0
	addl	$8, %ecx
	.loc 1 417 0
	movabsq	$4607182418800017408, %r13
	movq	%rsi, -240(%rax)
	.loc 1 401 0
	leal	1(%rcx), %esi
	.loc 1 417 0
	movabsq	$4607182418800017408, %rdi
	movabsq	$4607182418800017408, %r8
	movabsq	$4607182418800017408, %r15
	movabsq	$4607182418800017408, %r12
	movabsq	$4607182418800017408, %rbp
	movabsq	$4607182418800017408, %r11
	prefetcht0	(%rax)
	movq	%r13, -272(%rax)
	movq	%rdi, -264(%rax)
	movq	%r8, -256(%rax)
	movq	%r15, -248(%rax)
	movq	%r12, -232(%rax)
	movq	%rbp, -224(%rax)
	movq	%r11, -216(%rax)
	addq	$64, %rax
	cmpl	%esi, %r9d
	jle	.L1489
.L1490:
	leaq	64(%rax), %rsi
	movabsq	$4607182418800017408, %r10
	movabsq	$4607182418800017408, %r13
	movabsq	$4607182418800017408, %rdi
	movabsq	$4607182418800017408, %r8
	movabsq	$4607182418800017408, %r15
	prefetcht0	(%rsi)
	leaq	128(%rax), %rsi
	movabsq	$4607182418800017408, %r12
	movabsq	$4607182418800017408, %rbp
	movabsq	$4607182418800017408, %r11
	movq	%r10, -272(%rax)
	prefetcht0	(%rsi)
	leaq	192(%rax), %rsi
	movq	%r13, -264(%rax)
	movq	%rdi, -256(%rax)
	movq	%r8, -248(%rax)
	movabsq	$4607182418800017408, %r10
	movq	%r15, -240(%rax)
	movq	%r12, -232(%rax)
	movabsq	$4607182418800017408, %r13
	movq	%rbp, -224(%rax)
	movq	%r11, -216(%rax)
	movabsq	$4607182418800017408, %rdi
	movabsq	$4607182418800017408, %r8
	movabsq	$4607182418800017408, %r15
	movabsq	$4607182418800017408, %r12
	movabsq	$4607182418800017408, %rbp
	movabsq	$4607182418800017408, %r11
	.loc 1 416 0
	addl	$32, %ecx
	.loc 1 417 0
	movq	%r10, -208(%rax)
	movq	%r13, -200(%rax)
	movabsq	$4607182418800017408, %r10
	movq	%rdi, -192(%rax)
	movq	%r8, -184(%rax)
	movabsq	$4607182418800017408, %r13
	movq	%r15, -176(%rax)
	movq	%r12, -168(%rax)
	movabsq	$4607182418800017408, %rdi
	movq	%rbp, -160(%rax)
	movq	%r11, -152(%rax)
	movabsq	$4607182418800017408, %r8
	movabsq	$4607182418800017408, %r15
	movabsq	$4607182418800017408, %r12
	movabsq	$4607182418800017408, %rbp
	movabsq	$4607182418800017408, %r11
	prefetcht0	(%rsi)
	.loc 1 401 0
	leal	1(%rcx), %esi
	.loc 1 417 0
	movq	%r10, -144(%rax)
	movq	%r13, -136(%rax)
	movabsq	$4607182418800017408, %r10
	movq	%rdi, -128(%rax)
	movq	%r8, -120(%rax)
	movabsq	$4607182418800017408, %r13
	movq	%r15, -112(%rax)
	movq	%r12, -104(%rax)
	movabsq	$4607182418800017408, %rdi
	movq	%rbp, -96(%rax)
	movq	%r11, -88(%rax)
	movabsq	$4607182418800017408, %r8
	movabsq	$4607182418800017408, %r15
	movabsq	$4607182418800017408, %r12
	movabsq	$4607182418800017408, %rbp
	movabsq	$4607182418800017408, %r11
	prefetcht0	(%rax)
	movq	%r10, -80(%rax)
	movq	%r13, -72(%rax)
	movq	%rdi, -64(%rax)
	movq	%r8, -56(%rax)
	movq	%r15, -48(%rax)
	movq	%r12, -40(%rax)
	movq	%rbp, -32(%rax)
	movq	%r11, -24(%rax)
	addq	$256, %rax
	cmpl	%esi, %r9d
	jg	.L1490
.L1489:
	.loc 1 401 0
	movq	40(%rsp), %r9
	movl	%ebx, %r13d
	movslq	%ecx, %rcx
	subl	%esi, %r13d
	andl	$7, %r13d
	leaq	(%r9,%rcx,8), %rax
	je	.L1491
	.loc 1 417 0
	movabsq	$4607182418800017408, %r10
	movq	%r10, (%rax)
.LVL452:
	addq	$8, %rax
	.loc 1 416 0
	cmpl	%esi, %ebx
	jle	.L1484
	addl	$1, %esi
.LVL453:
	cmpl	$1, %r13d
	je	.L1491
	cmpl	$2, %r13d
	je	.L1824
	cmpl	$3, %r13d
	je	.L1825
	cmpl	$4, %r13d
	je	.L1826
	cmpl	$5, %r13d
	je	.L1827
	cmpl	$6, %r13d
	je	.L1828
	.loc 1 417 0
	movabsq	$4607182418800017408, %rdi
	addl	$1, %esi
.LVL454:
	movq	%rdi, (%rax)
.LVL455:
	addq	$8, %rax
.L1828:
	movabsq	$4607182418800017408, %r8
	addl	$1, %esi
	movq	%r8, (%rax)
	addq	$8, %rax
.L1827:
	movabsq	$4607182418800017408, %r15
	addl	$1, %esi
	movq	%r15, (%rax)
	addq	$8, %rax
.L1826:
	movabsq	$4607182418800017408, %r12
	addl	$1, %esi
	movq	%r12, (%rax)
	addq	$8, %rax
.L1825:
	movabsq	$4607182418800017408, %rbp
	addl	$1, %esi
	movq	%rbp, (%rax)
	addq	$8, %rax
.L1824:
	movabsq	$4607182418800017408, %r11
	addl	$1, %esi
	movq	%r11, (%rax)
	addq	$8, %rax
	jmp	.L1491
.LVL456:
	.p2align 4,,10
	.p2align 3
.L1959:
	movabsq	$4607182418800017408, %r10
	movabsq	$4607182418800017408, %rcx
	movabsq	$4607182418800017408, %r8
	movabsq	$4607182418800017408, %r13
	movabsq	$4607182418800017408, %r12
	movabsq	$4607182418800017408, %rdi
	movabsq	$4607182418800017408, %r15
	movq	%r10, 8(%rax)
	movq	%rcx, 16(%rax)
	movq	%r8, 24(%rax)
	movq	%r13, 32(%rax)
	addl	$8, %esi
.LVL457:
	movq	%r12, 40(%rax)
.LVL458:
	movq	%rdi, 48(%rax)
	movq	%r15, 56(%rax)
	addq	$64, %rax
.L1491:
	movabsq	$4607182418800017408, %rcx
	.loc 1 416 0
	cmpl	%esi, %ebx
	.loc 1 417 0
	movq	%rcx, (%rax)
.LVL459:
	.loc 1 416 0
	jg	.L1959
.LVL460:
.L1484:
	.loc 1 420 0
	movl	%ebx, %ebp
	subl	$1, %ebp
	je	.L1519
	.loc 1 401 0
	movq	%rdx, %rsi
.LBE410:
	movl	%ebp, %r9d
.LBB411:
	salq	$60, %rsi
	shrq	$63, %rsi
	cmpl	%esi, %ebp
	cmovbe	%ebp, %esi
.LBE411:
	cmpl	$3, %ebp
	cmova	%esi, %r9d
	testl	%r9d, %r9d
	je	.L1523
	cmpl	$8, %r9d
	jbe	.L1524
.LBB412:
	leal	-9(%r9), %r10d
	movq	56(%rsp), %rax
	leaq	152(%rdx), %r13
	movsd	.LC13(%rip), %xmm11
.LBE412:
	xorl	%r15d, %r15d
.LBB413:
	shrl	$3, %r10d
.LBE413:
	xorl	%edi, %edi
.LBB414:
	leaq	1(%r10), %r8
	addq	$160, %rax
	salq	$6, %r8
.LVL461:
	.p2align 4,,10
	.p2align 3
.L1497:
	.loc 1 420 0
	movsd	-152(%r13), %xmm3
	addq	$64, %r15
	prefetcht0	0(%r13)
	addl	$8, %edi
	prefetcht0	(%rax)
	xorpd	%xmm11, %xmm3
	movl	%edi, %r12d
	mulsd	%xmm0, %xmm3
	movsd	%xmm3, -152(%rax)
	movsd	-144(%r13), %xmm4
	xorpd	%xmm11, %xmm4
	mulsd	%xmm0, %xmm4
	movsd	%xmm4, -144(%rax)
	movsd	-136(%r13), %xmm5
	xorpd	%xmm11, %xmm5
	mulsd	%xmm0, %xmm5
	movsd	%xmm5, -136(%rax)
	movsd	-128(%r13), %xmm6
	xorpd	%xmm11, %xmm6
	mulsd	%xmm0, %xmm6
	movsd	%xmm6, -128(%rax)
	movsd	-120(%r13), %xmm7
	xorpd	%xmm11, %xmm7
	mulsd	%xmm0, %xmm7
	movsd	%xmm7, -120(%rax)
	movsd	-112(%r13), %xmm8
	xorpd	%xmm11, %xmm8
	mulsd	%xmm0, %xmm8
	movsd	%xmm8, -112(%rax)
	movsd	-104(%r13), %xmm9
	xorpd	%xmm11, %xmm9
	mulsd	%xmm0, %xmm9
	movsd	%xmm9, -104(%rax)
.LVL462:
	movsd	-96(%r13), %xmm10
	addq	$64, %r13
	xorpd	%xmm11, %xmm10
	mulsd	%xmm0, %xmm10
	movsd	%xmm10, -96(%rax)
	addq	$64, %rax
	cmpq	%r8, %r15
	jne	.L1497
.LVL463:
.L1496:
	.loc 1 401 0
	movslq	%edi, %rcx
	movl	%r12d, %r11d
	leal	1(%r12), %r10d
	salq	$3, %rcx
	notl	%r11d
	movl	$8, %eax
	leaq	(%rdx,%rcx), %r13
	addl	%r9d, %r11d
	addq	%r14, %rcx
	andl	$7, %r11d
	cmpl	%r10d, %r9d
	leal	1(%rdi), %esi
	.loc 1 420 0
	movsd	0(%r13), %xmm12
	xorpd	%xmm11, %xmm12
	mulsd	%xmm0, %xmm12
	movsd	%xmm12, (%rcx)
	jbe	.L1925
	testl	%r11d, %r11d
	je	.L1498
	cmpl	$1, %r11d
	je	.L1818
	cmpl	$2, %r11d
	je	.L1819
	cmpl	$3, %r11d
	je	.L1820
	cmpl	$4, %r11d
	je	.L1821
	cmpl	$5, %r11d
	je	.L1822
	cmpl	$6, %r11d
	je	.L1823
	movsd	8(%r13), %xmm13
	leal	2(%rdi), %esi
.LVL464:
	movl	$16, %eax
	xorpd	%xmm11, %xmm13
	mulsd	%xmm0, %xmm13
	movsd	%xmm13, 8(%rcx)
.L1823:
	movsd	0(%r13,%rax), %xmm14
	addl	$1, %esi
	xorpd	%xmm11, %xmm14
	mulsd	%xmm0, %xmm14
	movsd	%xmm14, (%rcx,%rax)
	addq	$8, %rax
.L1822:
	movsd	0(%r13,%rax), %xmm15
	addl	$1, %esi
	xorpd	%xmm11, %xmm15
	mulsd	%xmm0, %xmm15
	movsd	%xmm15, (%rcx,%rax)
	addq	$8, %rax
.L1821:
	movsd	0(%r13,%rax), %xmm1
	addl	$1, %esi
	xorpd	%xmm11, %xmm1
	mulsd	%xmm0, %xmm1
	movsd	%xmm1, (%rcx,%rax)
	addq	$8, %rax
.L1820:
	movsd	0(%r13,%rax), %xmm2
	addl	$1, %esi
	xorpd	%xmm11, %xmm2
	mulsd	%xmm0, %xmm2
	movsd	%xmm2, (%rcx,%rax)
	addq	$8, %rax
.L1819:
	movsd	0(%r13,%rax), %xmm3
	addl	$1, %esi
	xorpd	%xmm11, %xmm3
	mulsd	%xmm0, %xmm3
	movsd	%xmm3, (%rcx,%rax)
	addq	$8, %rax
.L1818:
	movsd	0(%r13,%rax), %xmm4
	addl	$1, %esi
	.loc 1 401 0
	leal	(%r12,%rsi), %r8d
	.loc 1 420 0
	xorpd	%xmm11, %xmm4
	subl	%edi, %r8d
	mulsd	%xmm0, %xmm4
	movsd	%xmm4, (%rcx,%rax)
	addq	$8, %rax
	cmpl	%r8d, %r9d
	jbe	.L1925
.L1498:
	movsd	0(%r13,%rax), %xmm5
	addl	$8, %esi
	movsd	8(%r13,%rax), %xmm6
	.loc 1 401 0
	leal	(%r12,%rsi), %r15d
	.loc 1 420 0
	movsd	16(%r13,%rax), %xmm7
	movsd	24(%r13,%rax), %xmm8
	subl	%edi, %r15d
	movsd	32(%r13,%rax), %xmm9
	movsd	40(%r13,%rax), %xmm10
	movsd	48(%r13,%rax), %xmm12
	movsd	56(%r13,%rax), %xmm13
	xorpd	%xmm11, %xmm5
	xorpd	%xmm11, %xmm6
	xorpd	%xmm11, %xmm7
	xorpd	%xmm11, %xmm8
	xorpd	%xmm11, %xmm9
	xorpd	%xmm11, %xmm10
	xorpd	%xmm11, %xmm12
	xorpd	%xmm11, %xmm13
	mulsd	%xmm0, %xmm5
	mulsd	%xmm0, %xmm6
	mulsd	%xmm0, %xmm7
	mulsd	%xmm0, %xmm8
	mulsd	%xmm0, %xmm9
	movsd	%xmm5, (%rcx,%rax)
	mulsd	%xmm0, %xmm10
	movsd	%xmm6, 8(%rcx,%rax)
	mulsd	%xmm0, %xmm12
	movsd	%xmm7, 16(%rcx,%rax)
	mulsd	%xmm0, %xmm13
	movsd	%xmm8, 24(%rcx,%rax)
	movsd	%xmm9, 32(%rcx,%rax)
	movsd	%xmm10, 40(%rcx,%rax)
	movsd	%xmm12, 48(%rcx,%rax)
	movsd	%xmm13, 56(%rcx,%rax)
	addq	$64, %rax
	cmpl	%r15d, %r9d
	ja	.L1498
.L1925:
	cmpl	%r9d, %ebp
	je	.L1957
.L1495:
	movl	%ebp, %r12d
	movl	%r9d, %ecx
	subl	%r9d, %r12d
	movl	%r12d, %r9d
	shrl	%r9d
	movl	%r9d, %r10d
	addl	%r10d, %r10d
	je	.L1500
	movapd	%xmm0, %xmm11
	salq	$3, %rcx
	leaq	(%rdx,%rcx), %rax
	addq	%r14, %rcx
	cmpl	$4, %r9d
	unpcklpd	%xmm11, %xmm11
	.loc 1 401 0
	leal	-3(%r9), %r13d
	movapd	%xmm11, %xmm1
	jbe	.L1525
	movapd	.LC102(%rip), %xmm2
	leal	-5(%r9), %edi
	prefetcht0	368(%rax)
	movl	$4, %r11d
	movl	$4, %r8d
	.loc 1 420 0
	movapd	(%rax), %xmm14
	shrl	$2, %edi
	andl	$1, %edi
	movapd	16(%rax), %xmm15
	xorpd	%xmm2, %xmm14
	movapd	32(%rax), %xmm3
	xorpd	%xmm2, %xmm15
	movapd	48(%rax), %xmm4
	xorpd	%xmm2, %xmm3
	mulpd	%xmm11, %xmm14
	.loc 1 401 0
	addq	$64, %rax
	.loc 1 420 0
	xorpd	%xmm2, %xmm4
	mulpd	%xmm11, %xmm15
	mulpd	%xmm11, %xmm3
	movlpd	%xmm14, (%rcx)
	movhpd	%xmm14, 8(%rcx)
	mulpd	%xmm11, %xmm4
	movlpd	%xmm15, 16(%rcx)
	movhpd	%xmm15, 24(%rcx)
	movlpd	%xmm3, 32(%rcx)
	movhpd	%xmm3, 40(%rcx)
	movlpd	%xmm4, 48(%rcx)
	movhpd	%xmm4, 56(%rcx)
	.loc 1 401 0
	addq	$64, %rcx
	cmpl	$5, %r13d
	jbe	.L1501
	testl	%edi, %edi
	je	.L1502
	.loc 1 420 0
	movapd	(%rax), %xmm5
	prefetcht0	368(%rax)
	movl	$8, %r11d
	movl	$8, %r8d
	movapd	16(%rax), %xmm6
	xorpd	%xmm2, %xmm5
	movapd	32(%rax), %xmm7
	xorpd	%xmm2, %xmm6
	movapd	48(%rax), %xmm8
	xorpd	%xmm2, %xmm7
	mulpd	%xmm11, %xmm5
	.loc 1 401 0
	addq	$64, %rax
	.loc 1 420 0
	xorpd	%xmm2, %xmm8
	mulpd	%xmm11, %xmm6
	mulpd	%xmm11, %xmm7
	movlpd	%xmm5, (%rcx)
	movhpd	%xmm5, 8(%rcx)
	mulpd	%xmm11, %xmm8
	movlpd	%xmm6, 16(%rcx)
	movhpd	%xmm6, 24(%rcx)
	movlpd	%xmm7, 32(%rcx)
	movhpd	%xmm7, 40(%rcx)
	movlpd	%xmm8, 48(%rcx)
	movhpd	%xmm8, 56(%rcx)
	.loc 1 401 0
	addq	$64, %rcx
	cmpl	$9, %r13d
	jbe	.L1501
.L1502:
	.loc 1 420 0 discriminator 2
	movapd	(%rax), %xmm9
	leal	9(%r8), %r15d
	prefetcht0	368(%rax)
	leal	8(%r8), %r11d
	prefetcht0	432(%rax)
	movapd	16(%rax), %xmm10
	xorpd	%xmm2, %xmm9
	movl	%r11d, %r8d
	movapd	32(%rax), %xmm12
	xorpd	%xmm2, %xmm10
	mulpd	%xmm1, %xmm9
	movapd	48(%rax), %xmm13
	xorpd	%xmm2, %xmm12
	movapd	64(%rax), %xmm11
	xorpd	%xmm2, %xmm13
	mulpd	%xmm1, %xmm10
	movapd	80(%rax), %xmm14
	xorpd	%xmm2, %xmm11
	movapd	96(%rax), %xmm15
	xorpd	%xmm2, %xmm14
	mulpd	%xmm1, %xmm12
	movapd	112(%rax), %xmm3
	.loc 1 401 0 discriminator 2
	subq	$-128, %rax
	.loc 1 420 0 discriminator 2
	xorpd	%xmm2, %xmm15
	xorpd	%xmm2, %xmm3
	movlpd	%xmm9, (%rcx)
	mulpd	%xmm1, %xmm13
	movhpd	%xmm9, 8(%rcx)
	movlpd	%xmm10, 16(%rcx)
	mulpd	%xmm1, %xmm11
	movhpd	%xmm10, 24(%rcx)
	movlpd	%xmm12, 32(%rcx)
	mulpd	%xmm1, %xmm14
	movhpd	%xmm12, 40(%rcx)
	movlpd	%xmm13, 48(%rcx)
	mulpd	%xmm1, %xmm15
	movhpd	%xmm13, 56(%rcx)
	movlpd	%xmm11, 64(%rcx)
	mulpd	%xmm1, %xmm3
	movhpd	%xmm11, 72(%rcx)
	movlpd	%xmm14, 80(%rcx)
	movhpd	%xmm14, 88(%rcx)
	movlpd	%xmm15, 96(%rcx)
	movhpd	%xmm15, 104(%rcx)
	movlpd	%xmm3, 112(%rcx)
	movhpd	%xmm3, 120(%rcx)
	.loc 1 401 0 discriminator 2
	subq	$-128, %rcx
	cmpl	%r13d, %r15d
	jb	.L1502
.L1501:
	.loc 1 420 0
	movapd	(%rax), %xmm4
	movl	%r11d, %r13d
	notl	%r13d
	leal	1(%r11), %edi
	movl	$16, %r8d
	xorpd	%xmm2, %xmm4
	addl	%r9d, %r13d
	andl	$7, %r13d
	cmpl	%edi, %r9d
	mulpd	%xmm1, %xmm4
	movlpd	%xmm4, (%rcx)
	movhpd	%xmm4, 8(%rcx)
	jbe	.L1928
	testl	%r13d, %r13d
	je	.L1507
	cmpl	$1, %r13d
	je	.L1812
	cmpl	$2, %r13d
	je	.L1813
	cmpl	$3, %r13d
	je	.L1814
	cmpl	$4, %r13d
	je	.L1815
	cmpl	$5, %r13d
	je	.L1816
	cmpl	$6, %r13d
	je	.L1817
	movapd	16(%rax), %xmm5
	leal	2(%r11), %edi
	movl	$32, %r8d
	xorpd	%xmm2, %xmm5
	mulpd	%xmm1, %xmm5
	movlpd	%xmm5, 16(%rcx)
	movhpd	%xmm5, 24(%rcx)
.L1817:
	movapd	(%rax,%r8), %xmm6
	addl	$1, %edi
	xorpd	%xmm2, %xmm6
	mulpd	%xmm1, %xmm6
	movlpd	%xmm6, (%rcx,%r8)
	movhpd	%xmm6, 8(%rcx,%r8)
	addq	$16, %r8
.L1816:
	movapd	(%rax,%r8), %xmm7
	addl	$1, %edi
	xorpd	%xmm2, %xmm7
	mulpd	%xmm1, %xmm7
	movlpd	%xmm7, (%rcx,%r8)
	movhpd	%xmm7, 8(%rcx,%r8)
	addq	$16, %r8
.L1815:
	movapd	(%rax,%r8), %xmm8
	addl	$1, %edi
	xorpd	%xmm2, %xmm8
	mulpd	%xmm1, %xmm8
	movlpd	%xmm8, (%rcx,%r8)
	movhpd	%xmm8, 8(%rcx,%r8)
	addq	$16, %r8
.L1814:
	movapd	(%rax,%r8), %xmm9
	addl	$1, %edi
	xorpd	%xmm2, %xmm9
	mulpd	%xmm1, %xmm9
	movlpd	%xmm9, (%rcx,%r8)
	movhpd	%xmm9, 8(%rcx,%r8)
	addq	$16, %r8
.L1813:
	movapd	(%rax,%r8), %xmm10
	addl	$1, %edi
	xorpd	%xmm2, %xmm10
	mulpd	%xmm1, %xmm10
	movlpd	%xmm10, (%rcx,%r8)
	movhpd	%xmm10, 8(%rcx,%r8)
	addq	$16, %r8
.L1812:
	movapd	(%rax,%r8), %xmm12
	addl	$1, %edi
	xorpd	%xmm2, %xmm12
	mulpd	%xmm1, %xmm12
	movlpd	%xmm12, (%rcx,%r8)
	movhpd	%xmm12, 8(%rcx,%r8)
	addq	$16, %r8
	cmpl	%edi, %r9d
	jbe	.L1928
.L1507:
	movapd	(%rax,%r8), %xmm13
	addl	$8, %edi
	movapd	16(%rax,%r8), %xmm11
	xorpd	%xmm2, %xmm13
	movapd	32(%rax,%r8), %xmm14
	xorpd	%xmm2, %xmm11
	movapd	48(%rax,%r8), %xmm15
	xorpd	%xmm2, %xmm14
	movapd	64(%rax,%r8), %xmm3
	xorpd	%xmm2, %xmm15
	mulpd	%xmm1, %xmm13
	movapd	80(%rax,%r8), %xmm4
	xorpd	%xmm2, %xmm3
	movapd	96(%rax,%r8), %xmm5
	xorpd	%xmm2, %xmm4
	mulpd	%xmm1, %xmm11
	movapd	112(%rax,%r8), %xmm6
	xorpd	%xmm2, %xmm5
	xorpd	%xmm2, %xmm6
	movlpd	%xmm13, (%rcx,%r8)
	mulpd	%xmm1, %xmm14
	movhpd	%xmm13, 8(%rcx,%r8)
	movlpd	%xmm11, 16(%rcx,%r8)
	mulpd	%xmm1, %xmm15
	movhpd	%xmm11, 24(%rcx,%r8)
	mulpd	%xmm1, %xmm3
	movlpd	%xmm14, 32(%rcx,%r8)
	mulpd	%xmm1, %xmm4
	movhpd	%xmm14, 40(%rcx,%r8)
	movlpd	%xmm15, 48(%rcx,%r8)
	mulpd	%xmm1, %xmm5
	movhpd	%xmm15, 56(%rcx,%r8)
	movlpd	%xmm3, 64(%rcx,%r8)
	mulpd	%xmm1, %xmm6
	movhpd	%xmm3, 72(%rcx,%r8)
	movlpd	%xmm4, 80(%rcx,%r8)
	movhpd	%xmm4, 88(%rcx,%r8)
	movlpd	%xmm5, 96(%rcx,%r8)
	movhpd	%xmm5, 104(%rcx,%r8)
	movlpd	%xmm6, 112(%rcx,%r8)
	movhpd	%xmm6, 120(%rcx,%r8)
	subq	$-128, %r8
	cmpl	%edi, %r9d
	ja	.L1507
.L1928:
	addl	%r10d, %esi
	cmpl	%r10d, %r12d
	je	.L1957
.L1500:
	.loc 1 401 0
	leal	-8(%rbx), %r11d
	leal	1(%rsi), %eax
	cmpl	%r11d, %eax
	movl	%r11d, 52(%rsp)
	jge	.L1956
	cmpl	%esi, %ebp
	jle	.L1956
	movslq	%esi, %rcx
	movsd	.LC13(%rip), %xmm1
	leaq	160(,%rcx,8), %r15
	movl	52(%rsp), %r9d
	leaq	(%rdx,%r15), %r13
	addq	%r14, %r15
	subl	%esi, %r9d
	.loc 1 420 0
	addl	$8, %esi
	prefetcht0	(%r15)
	movsd	-160(%r13), %xmm2
	subl	$2, %r9d
	.loc 1 401 0
	leal	1(%rsi), %r8d
	shrl	$3, %r9d
	prefetcht0	0(%r13)
	leaq	64(%r13), %r10
	.loc 1 420 0
	xorpd	%xmm1, %xmm2
	andl	$1, %r9d
	cmpl	52(%rsp), %r8d
	leaq	64(%r15), %r12
	mulsd	%xmm0, %xmm2
	movsd	%xmm2, -160(%r15)
	movsd	-152(%r13), %xmm7
	xorpd	%xmm1, %xmm7
	mulsd	%xmm0, %xmm7
	movsd	%xmm7, -152(%r15)
	movsd	-144(%r13), %xmm8
	xorpd	%xmm1, %xmm8
	mulsd	%xmm0, %xmm8
	movsd	%xmm8, -144(%r15)
	movsd	-136(%r13), %xmm9
	xorpd	%xmm1, %xmm9
	mulsd	%xmm0, %xmm9
	movsd	%xmm9, -136(%r15)
	movsd	-128(%r13), %xmm10
	xorpd	%xmm1, %xmm10
	mulsd	%xmm0, %xmm10
	movsd	%xmm10, -128(%r15)
	movsd	-120(%r13), %xmm12
	xorpd	%xmm1, %xmm12
	mulsd	%xmm0, %xmm12
	movsd	%xmm12, -120(%r15)
	movsd	-112(%r13), %xmm13
	xorpd	%xmm1, %xmm13
	mulsd	%xmm0, %xmm13
	movsd	%xmm13, -112(%r15)
	movsd	-104(%r13), %xmm11
	xorpd	%xmm1, %xmm11
	mulsd	%xmm0, %xmm11
	movsd	%xmm11, -104(%r15)
	jge	.L1504
	testl	%r9d, %r9d
	je	.L1937
	movsd	-160(%r10), %xmm14
	addl	$8, %esi
	prefetcht0	(%r10)
	.loc 1 401 0
	leal	1(%rsi), %edi
	cmpl	52(%rsp), %edi
	prefetcht0	(%r12)
	.loc 1 420 0
	xorpd	%xmm1, %xmm14
	mulsd	%xmm0, %xmm14
	movsd	%xmm14, -160(%r12)
	movsd	-152(%r10), %xmm15
	xorpd	%xmm1, %xmm15
	mulsd	%xmm0, %xmm15
	movsd	%xmm15, -152(%r12)
	movsd	-144(%r10), %xmm3
	xorpd	%xmm1, %xmm3
	mulsd	%xmm0, %xmm3
	movsd	%xmm3, -144(%r12)
	movsd	-136(%r10), %xmm4
	xorpd	%xmm1, %xmm4
	mulsd	%xmm0, %xmm4
	movsd	%xmm4, -136(%r12)
	movsd	-128(%r10), %xmm5
	xorpd	%xmm1, %xmm5
	mulsd	%xmm0, %xmm5
	movsd	%xmm5, -128(%r12)
	movsd	-120(%r10), %xmm6
	xorpd	%xmm1, %xmm6
	mulsd	%xmm0, %xmm6
	movsd	%xmm6, -120(%r12)
	movsd	-112(%r10), %xmm2
	xorpd	%xmm1, %xmm2
	mulsd	%xmm0, %xmm2
	movsd	%xmm2, -112(%r12)
	movsd	-104(%r10), %xmm7
	leaq	128(%r13), %r10
	xorpd	%xmm1, %xmm7
	mulsd	%xmm0, %xmm7
	movsd	%xmm7, -104(%r12)
	leaq	128(%r15), %r12
	jge	.L1504
.L1937:
	movl	52(%rsp), %r11d
.L1505:
	movsd	-160(%r10), %xmm8
	addl	$16, %esi
	prefetcht0	(%r10)
	.loc 1 401 0
	leal	1(%rsi), %r15d
	leaq	64(%r10), %rax
	leaq	64(%r12), %rcx
	.loc 1 420 0
	xorpd	%xmm1, %xmm8
	prefetcht0	(%r12)
	prefetcht0	(%rax)
	prefetcht0	(%rcx)
	mulsd	%xmm0, %xmm8
	movsd	%xmm8, -160(%r12)
	movsd	-152(%r10), %xmm9
	xorpd	%xmm1, %xmm9
	mulsd	%xmm0, %xmm9
	movsd	%xmm9, -152(%r12)
	movsd	-144(%r10), %xmm10
	xorpd	%xmm1, %xmm10
	mulsd	%xmm0, %xmm10
	movsd	%xmm10, -144(%r12)
	movsd	-136(%r10), %xmm12
	xorpd	%xmm1, %xmm12
	mulsd	%xmm0, %xmm12
	movsd	%xmm12, -136(%r12)
	movsd	-128(%r10), %xmm13
	xorpd	%xmm1, %xmm13
	mulsd	%xmm0, %xmm13
	movsd	%xmm13, -128(%r12)
	movsd	-120(%r10), %xmm11
	xorpd	%xmm1, %xmm11
	mulsd	%xmm0, %xmm11
	movsd	%xmm11, -120(%r12)
	movsd	-112(%r10), %xmm14
	xorpd	%xmm1, %xmm14
	mulsd	%xmm0, %xmm14
	movsd	%xmm14, -112(%r12)
	movsd	-104(%r10), %xmm15
	xorpd	%xmm1, %xmm15
	mulsd	%xmm0, %xmm15
	movsd	%xmm15, -104(%r12)
	movsd	-96(%r10), %xmm3
	xorpd	%xmm1, %xmm3
	mulsd	%xmm0, %xmm3
	movsd	%xmm3, -96(%r12)
	movsd	-88(%r10), %xmm4
	xorpd	%xmm1, %xmm4
	mulsd	%xmm0, %xmm4
	movsd	%xmm4, -88(%r12)
	movsd	-80(%r10), %xmm5
	xorpd	%xmm1, %xmm5
	mulsd	%xmm0, %xmm5
	movsd	%xmm5, -80(%r12)
	movsd	-72(%r10), %xmm6
	xorpd	%xmm1, %xmm6
	mulsd	%xmm0, %xmm6
	movsd	%xmm6, -72(%r12)
	movsd	-64(%r10), %xmm2
	xorpd	%xmm1, %xmm2
	mulsd	%xmm0, %xmm2
	movsd	%xmm2, -64(%r12)
	movsd	-56(%r10), %xmm7
	xorpd	%xmm1, %xmm7
	mulsd	%xmm0, %xmm7
	movsd	%xmm7, -56(%r12)
	movsd	-48(%r10), %xmm8
	xorpd	%xmm1, %xmm8
	mulsd	%xmm0, %xmm8
	movsd	%xmm8, -48(%r12)
	movsd	-40(%r10), %xmm9
	subq	$-128, %r10
	xorpd	%xmm1, %xmm9
	mulsd	%xmm0, %xmm9
	movsd	%xmm9, -40(%r12)
	subq	$-128, %r12
	cmpl	%r11d, %r15d
	jl	.L1505
.L1504:
	.loc 1 401 0
	movslq	%esi, %r13
	movl	%esi, %r9d
	leal	1(%rsi), %r8d
	salq	$3, %r13
	notl	%r9d
	movl	$1, %r12d
	addq	%r13, %rdx
	leal	(%r9,%rbp), %r10d
	addq	%r14, %r13
	.loc 1 420 0
	movsd	(%rdx), %xmm10
	andl	$7, %r10d
	cmpl	%r8d, %ebp
	xorpd	%xmm1, %xmm10
	mulsd	%xmm0, %xmm10
	movsd	%xmm10, 0(%r13)
	jle	.L1499
	testl	%r10d, %r10d
	je	.L1506
	cmpl	$1, %r10d
	je	.L1806
	cmpl	$2, %r10d
	je	.L1807
	cmpl	$3, %r10d
	je	.L1808
	cmpl	$4, %r10d
	je	.L1809
	cmpl	$5, %r10d
	je	.L1810
	cmpl	$6, %r10d
	je	.L1811
	movsd	8(%rdx), %xmm12
	movl	$2, %r12d
	xorpd	%xmm1, %xmm12
	mulsd	%xmm0, %xmm12
	movsd	%xmm12, 8(%r13)
.L1811:
	movsd	(%rdx,%r12,8), %xmm13
	xorpd	%xmm1, %xmm13
	mulsd	%xmm0, %xmm13
	movsd	%xmm13, 0(%r13,%r12,8)
	addq	$1, %r12
.L1810:
	movsd	(%rdx,%r12,8), %xmm11
	xorpd	%xmm1, %xmm11
	mulsd	%xmm0, %xmm11
	movsd	%xmm11, 0(%r13,%r12,8)
	addq	$1, %r12
.L1809:
	movsd	(%rdx,%r12,8), %xmm14
	xorpd	%xmm1, %xmm14
	mulsd	%xmm0, %xmm14
	movsd	%xmm14, 0(%r13,%r12,8)
	addq	$1, %r12
.L1808:
	movsd	(%rdx,%r12,8), %xmm15
	xorpd	%xmm1, %xmm15
	mulsd	%xmm0, %xmm15
	movsd	%xmm15, 0(%r13,%r12,8)
	addq	$1, %r12
.L1807:
	movsd	(%rdx,%r12,8), %xmm3
	xorpd	%xmm1, %xmm3
	mulsd	%xmm0, %xmm3
	movsd	%xmm3, 0(%r13,%r12,8)
	addq	$1, %r12
.L1806:
	movsd	(%rdx,%r12,8), %xmm4
	xorpd	%xmm1, %xmm4
	mulsd	%xmm0, %xmm4
	movsd	%xmm4, 0(%r13,%r12,8)
	addq	$1, %r12
	.loc 1 401 0
	leal	(%rsi,%r12), %edi
	.loc 1 420 0
	cmpl	%edi, %ebp
	jle	.L1499
.L1506:
	movsd	(%rdx,%r12,8), %xmm5
	leaq	1(%r12), %r11
	leaq	2(%r12), %rax
	leaq	3(%r12), %rcx
	leaq	4(%r12), %r15
	leaq	5(%r12), %r9
	leaq	6(%r12), %r10
	leaq	7(%r12), %r8
	xorpd	%xmm1, %xmm5
	movsd	(%rdx,%r11,8), %xmm6
	movsd	(%rdx,%rax,8), %xmm2
	movsd	(%rdx,%rcx,8), %xmm7
	movsd	(%rdx,%r15,8), %xmm8
	movsd	(%rdx,%r9,8), %xmm9
	movsd	(%rdx,%r10,8), %xmm10
	movsd	(%rdx,%r8,8), %xmm12
	mulsd	%xmm0, %xmm5
	xorpd	%xmm1, %xmm6
	xorpd	%xmm1, %xmm2
	xorpd	%xmm1, %xmm7
	xorpd	%xmm1, %xmm8
	movsd	%xmm5, 0(%r13,%r12,8)
	addq	$8, %r12
	xorpd	%xmm1, %xmm9
	.loc 1 401 0
	leal	(%rsi,%r12), %edi
	.loc 1 420 0
	xorpd	%xmm1, %xmm10
	xorpd	%xmm1, %xmm12
	cmpl	%edi, %ebp
	mulsd	%xmm0, %xmm6
	mulsd	%xmm0, %xmm2
	mulsd	%xmm0, %xmm7
	mulsd	%xmm0, %xmm8
	mulsd	%xmm0, %xmm9
	movsd	%xmm6, 0(%r13,%r11,8)
	mulsd	%xmm0, %xmm10
	movsd	%xmm2, 0(%r13,%rax,8)
	mulsd	%xmm0, %xmm12
	movsd	%xmm7, 0(%r13,%rcx,8)
	movsd	%xmm8, 0(%r13,%r15,8)
	movsd	%xmm9, 0(%r13,%r9,8)
	movsd	%xmm10, 0(%r13,%r10,8)
	movsd	%xmm12, 0(%r13,%r8,8)
	jg	.L1506
.L1499:
	cmpl	$1, 52(%rsp)
	jle	.L1526
	.loc 1 401 0
	movq	56(%rsp), %r15
.LBE414:
	movl	52(%rsp), %r13d
	xorl	%r12d, %r12d
.LBB415:
	addq	$96, %r15
	.p2align 4,,10
	.p2align 3
.L1510:
	.loc 1 421 0 discriminator 2
	movsd	-88(%r15), %xmm0
	addl	$8, %r12d
	prefetcht0	(%r15)
	call	exp
.LVL465:
	movsd	%xmm0, -88(%r15)
	movsd	-80(%r15), %xmm0
	call	exp
.LVL466:
	movsd	%xmm0, -80(%r15)
	movsd	-72(%r15), %xmm0
	call	exp
.LVL467:
	movsd	%xmm0, -72(%r15)
	movsd	-64(%r15), %xmm0
	call	exp
.LVL468:
	movsd	%xmm0, -64(%r15)
	movsd	-56(%r15), %xmm0
	call	exp
.LVL469:
	movsd	%xmm0, -56(%r15)
	movsd	-48(%r15), %xmm0
	call	exp
.LVL470:
	movsd	%xmm0, -48(%r15)
	movsd	-40(%r15), %xmm0
	call	exp
.LVL471:
	movsd	%xmm0, -40(%r15)
	movsd	-32(%r15), %xmm0
	call	exp
.LVL472:
	.loc 1 401 0 discriminator 2
	leal	1(%r12), %edx
	.loc 1 421 0 discriminator 2
	movsd	%xmm0, -32(%r15)
	addq	$64, %r15
	cmpl	%r13d, %edx
	jl	.L1510
	movl	%edx, %r13d
.LVL473:
.L1509:
	movl	%ebp, %r11d
	.loc 1 401 0
	movslq	%r12d, %rsi
	subl	%r13d, %r11d
	leaq	(%r14,%rsi,8), %r15
	andl	$7, %r11d
	je	.L1511
	.loc 1 421 0
	movsd	(%r15), %xmm0
	movl	%r11d, 16(%rsp)
	call	exp
.LVL474:
	movsd	%xmm0, (%r15)
.LVL475:
	addq	$8, %r15
	cmpl	%r13d, %ebp
	movl	16(%rsp), %eax
	jle	.L1519
	addl	$1, %r13d
.LVL476:
	cmpl	$1, %eax
	je	.L1511
	cmpl	$2, %eax
	je	.L1801
	cmpl	$3, %eax
	je	.L1802
	cmpl	$4, %eax
	.p2align 4,,2
	je	.L1803
	cmpl	$5, %eax
	.p2align 4,,2
	je	.L1804
	cmpl	$6, %eax
	.p2align 4,,2
	je	.L1805
	movsd	(%r15), %xmm0
	addl	$1, %r13d
.LVL477:
	call	exp
.LVL478:
	movsd	%xmm0, (%r15)
.LVL479:
	addq	$8, %r15
.L1805:
	movsd	(%r15), %xmm0
	addl	$1, %r13d
	call	exp
.LVL480:
	movsd	%xmm0, (%r15)
	addq	$8, %r15
.L1804:
	movsd	(%r15), %xmm0
	addl	$1, %r13d
	call	exp
.LVL481:
	movsd	%xmm0, (%r15)
	addq	$8, %r15
.L1803:
	movsd	(%r15), %xmm0
	addl	$1, %r13d
	call	exp
.LVL482:
	movsd	%xmm0, (%r15)
	addq	$8, %r15
.L1802:
	movsd	(%r15), %xmm0
	addl	$1, %r13d
	call	exp
.LVL483:
	movsd	%xmm0, (%r15)
	addq	$8, %r15
.L1801:
	movsd	(%r15), %xmm0
	addl	$1, %r13d
	call	exp
.LVL484:
	movsd	%xmm0, (%r15)
	addq	$8, %r15
	jmp	.L1511
.LVL485:
	.p2align 4,,10
	.p2align 3
.L1960:
	movsd	8(%r15), %xmm0
	addl	$8, %r13d
.LVL486:
	call	exp
.LVL487:
	movsd	%xmm0, 8(%r15)
.LVL488:
	movsd	16(%r15), %xmm0
	call	exp
.LVL489:
	movsd	%xmm0, 16(%r15)
	movsd	24(%r15), %xmm0
	call	exp
.LVL490:
	movsd	%xmm0, 24(%r15)
	movsd	32(%r15), %xmm0
	call	exp
.LVL491:
	movsd	%xmm0, 32(%r15)
	movsd	40(%r15), %xmm0
	call	exp
.LVL492:
	movsd	%xmm0, 40(%r15)
	movsd	48(%r15), %xmm0
	call	exp
.LVL493:
	movsd	%xmm0, 48(%r15)
	movsd	56(%r15), %xmm0
	call	exp
.LVL494:
	movsd	%xmm0, 56(%r15)
	addq	$64, %r15
.L1511:
	movsd	(%r15), %xmm0
	call	exp
.LVL495:
	cmpl	%r13d, %ebp
	movsd	%xmm0, (%r15)
.LVL496:
	jg	.L1960
.LVL497:
.L1519:
	.loc 1 423 0 discriminator 1
	cmpl	$1, %ebx
	jle	.L1512
	.loc 1 401 0
	movq	40(%rsp), %r12
.LBE415:
	movl	$1, %r13d
.LBB416:
	addq	$8, %r12
.LVL498:
	.p2align 4,,10
	.p2align 3
.L1513:
.LBE416:
	.loc 1 401 0 is_stmt 0 discriminator 1
	xorl	%ecx, %ecx
	cmpl	$8, %r13d
	movsd	(%r12), %xmm0
	jle	.L1517
.LBB417:
	.loc 1 425 0 is_stmt 1
	mulsd	(%r14), %xmm0
.LVL499:
	.loc 1 401 0
	leal	-9(%r13), %r9d
	leaq	232(%r14), %rbp
	.loc 1 424 0
	movl	$8, %ecx
	leaq	296(%r14), %r8
	.loc 1 401 0
	shrl	$3, %r9d
	prefetcht0	0(%rbp)
	leal	8(,%r9,8), %r10d
	andl	$3, %r9d
	cmpl	%r10d, %ecx
	.loc 1 425 0
	mulsd	8(%r14), %xmm0
	mulsd	16(%r14), %xmm0
	mulsd	24(%r14), %xmm0
	mulsd	32(%r14), %xmm0
	mulsd	40(%r14), %xmm0
	mulsd	48(%r14), %xmm0
.LVL500:
	mulsd	56(%r14), %xmm0
	je	.L1517
	testl	%r9d, %r9d
	je	.L1516
	cmpl	$1, %r9d
	je	.L1799
	cmpl	$2, %r9d
	je	.L1800
	mulsd	-232(%r8), %xmm0
.LVL501:
	prefetcht0	(%r8)
	.loc 1 424 0
	movl	$16, %ecx
	.loc 1 425 0
	mulsd	-224(%r8), %xmm0
	mulsd	-216(%r8), %xmm0
	mulsd	-208(%r8), %xmm0
	mulsd	-200(%r8), %xmm0
	mulsd	-192(%r8), %xmm0
	mulsd	-184(%r8), %xmm0
.LVL502:
	mulsd	-176(%r8), %xmm0
	leaq	360(%r14), %r8
.L1800:
	mulsd	-232(%r8), %xmm0
.LVL503:
	prefetcht0	(%r8)
	.loc 1 424 0
	addl	$8, %ecx
.LVL504:
	.loc 1 425 0
	mulsd	-224(%r8), %xmm0
.LVL505:
	mulsd	-216(%r8), %xmm0
.LVL506:
	mulsd	-208(%r8), %xmm0
.LVL507:
	mulsd	-200(%r8), %xmm0
.LVL508:
	mulsd	-192(%r8), %xmm0
.LVL509:
	mulsd	-184(%r8), %xmm0
.LVL510:
	mulsd	-176(%r8), %xmm0
	addq	$64, %r8
.L1799:
	mulsd	-232(%r8), %xmm0
.LVL511:
	.loc 1 424 0
	addl	$8, %ecx
.LVL512:
	prefetcht0	(%r8)
	.loc 1 425 0
	mulsd	-224(%r8), %xmm0
.LVL513:
	mulsd	-216(%r8), %xmm0
.LVL514:
	mulsd	-208(%r8), %xmm0
.LVL515:
	mulsd	-200(%r8), %xmm0
.LVL516:
	mulsd	-192(%r8), %xmm0
.LVL517:
	mulsd	-184(%r8), %xmm0
.LVL518:
	mulsd	-176(%r8), %xmm0
	addq	$64, %r8
	cmpl	%r10d, %ecx
	je	.L1517
.L1516:
	.loc 1 425 0 is_stmt 0 discriminator 2
	mulsd	-232(%r8), %xmm0
.LVL519:
	leaq	64(%r8), %rdi
	leaq	128(%r8), %rdx
	leaq	192(%r8), %rsi
	.loc 1 424 0 is_stmt 1 discriminator 2
	addl	$32, %ecx
.LVL520:
	prefetcht0	(%r8)
	prefetcht0	(%rdi)
	prefetcht0	(%rdx)
	prefetcht0	(%rsi)
	.loc 1 425 0 discriminator 2
	mulsd	-224(%r8), %xmm0
.LVL521:
	mulsd	-216(%r8), %xmm0
.LVL522:
	mulsd	-208(%r8), %xmm0
.LVL523:
	mulsd	-200(%r8), %xmm0
.LVL524:
	mulsd	-192(%r8), %xmm0
.LVL525:
	mulsd	-184(%r8), %xmm0
.LVL526:
	mulsd	-176(%r8), %xmm0
.LVL527:
	mulsd	-168(%r8), %xmm0
	mulsd	-160(%r8), %xmm0
	mulsd	-152(%r8), %xmm0
	mulsd	-144(%r8), %xmm0
	mulsd	-136(%r8), %xmm0
	mulsd	-128(%r8), %xmm0
	mulsd	-120(%r8), %xmm0
	mulsd	-112(%r8), %xmm0
	mulsd	-104(%r8), %xmm0
	mulsd	-96(%r8), %xmm0
	mulsd	-88(%r8), %xmm0
	mulsd	-80(%r8), %xmm0
	mulsd	-72(%r8), %xmm0
	mulsd	-64(%r8), %xmm0
	mulsd	-56(%r8), %xmm0
	mulsd	-48(%r8), %xmm0
	mulsd	-40(%r8), %xmm0
	mulsd	-32(%r8), %xmm0
	mulsd	-24(%r8), %xmm0
	mulsd	-16(%r8), %xmm0
	mulsd	-8(%r8), %xmm0
	mulsd	(%r8), %xmm0
	mulsd	8(%r8), %xmm0
.LVL528:
	mulsd	16(%r8), %xmm0
	addq	$256, %r8
	cmpl	%r10d, %ecx
	jne	.L1516
.LVL529:
.L1517:
	movl	%ecx, %ebp
	.loc 1 401 0
	movslq	%ecx, %r15
	.loc 1 424 0
	leal	1(%rcx), %r9d
.LVL530:
	notl	%ebp
	.loc 1 401 0
	leaq	(%r14,%r15,8), %r11
	addl	%r13d, %ebp
	andl	$7, %ebp
	.loc 1 424 0
	cmpl	%r9d, %r13d
	.loc 1 425 0
	mulsd	(%r11), %xmm0
	leaq	8(%r11), %rax
	.loc 1 424 0
	jle	.L1930
	testl	%ebp, %ebp
	je	.L1514
	cmpl	$1, %ebp
	je	.L1793
	cmpl	$2, %ebp
	.p2align 4,,3
	je	.L1794
	cmpl	$3, %ebp
	.p2align 4,,2
	je	.L1795
	cmpl	$4, %ebp
	.p2align 4,,2
	je	.L1796
	cmpl	$5, %ebp
	.p2align 4,,2
	je	.L1797
	cmpl	$6, %ebp
	.p2align 4,,2
	je	.L1798
	.loc 1 425 0
	mulsd	8(%r11), %xmm0
	.loc 1 424 0
	leal	2(%rcx), %r9d
	leaq	16(%r11), %rax
.LVL531:
.L1798:
	.loc 1 425 0
	mulsd	(%rax), %xmm0
	.loc 1 424 0
	addl	$1, %r9d
	addq	$8, %rax
.L1797:
	.loc 1 425 0
	mulsd	(%rax), %xmm0
	.loc 1 424 0
	addl	$1, %r9d
	addq	$8, %rax
.L1796:
	.loc 1 425 0
	mulsd	(%rax), %xmm0
	.loc 1 424 0
	addl	$1, %r9d
	addq	$8, %rax
.L1795:
	.loc 1 425 0
	mulsd	(%rax), %xmm0
	.loc 1 424 0
	addl	$1, %r9d
	addq	$8, %rax
.L1794:
	.loc 1 425 0
	mulsd	(%rax), %xmm0
	.loc 1 424 0
	addl	$1, %r9d
	addq	$8, %rax
.L1793:
	addl	$1, %r9d
	.loc 1 425 0
	mulsd	(%rax), %xmm0
	addq	$8, %rax
	.loc 1 424 0
	cmpl	%r9d, %r13d
	jle	.L1930
.L1514:
	.loc 1 425 0
	mulsd	(%rax), %xmm0
	.loc 1 424 0
	addl	$8, %r9d
	.loc 1 425 0
	mulsd	8(%rax), %xmm0
	mulsd	16(%rax), %xmm0
	mulsd	24(%rax), %xmm0
	mulsd	32(%rax), %xmm0
	mulsd	40(%rax), %xmm0
	mulsd	48(%rax), %xmm0
	mulsd	56(%rax), %xmm0
	addq	$64, %rax
	.loc 1 424 0
	cmpl	%r9d, %r13d
	jg	.L1514
.L1930:
	.loc 1 423 0
	addl	$1, %r13d
.LVL532:
	movsd	%xmm0, (%r12)
	addq	$8, %r12
	cmpl	%ebx, %r13d
	jne	.L1513
.LVL533:
.L1512:
.LBB402:
.LBB403:
	.loc 1 1428 0
	movq	56(%rsp), %rdi
	call	free
.LVL534:
.LBE403:
.LBE402:
.LBE417:
	.loc 1 430 0
	addq	$72, %rsp
.LCFI113:
	.cfi_remember_state
	.cfi_def_cfa_offset 56
	movl	$1, %eax
	popq	%rbx
.LCFI114:
	.cfi_def_cfa_offset 48
.LVL535:
	popq	%rbp
.LCFI115:
	.cfi_def_cfa_offset 40
	popq	%r12
.LCFI116:
	.cfi_def_cfa_offset 32
	popq	%r13
.LCFI117:
	.cfi_def_cfa_offset 24
	popq	%r14
.LCFI118:
	.cfi_def_cfa_offset 16
	popq	%r15
.LCFI119:
	.cfi_def_cfa_offset 8
	ret
.LVL536:
	.p2align 4,,10
	.p2align 3
.L1956:
.LCFI120:
	.cfi_restore_state
	movsd	.LC13(%rip), %xmm1
	jmp	.L1504
.LVL537:
.L1524:
	.loc 1 401 0
	xorl	%r12d, %r12d
	xorl	%edi, %edi
	movsd	.LC13(%rip), %xmm11
	jmp	.L1496
.LVL538:
.L1525:
	xorl	%r11d, %r11d
	movapd	.LC102(%rip), %xmm2
	jmp	.L1501
.LVL539:
.L1521:
	xorl	%r9d, %r9d
	xorl	%esi, %esi
	jmp	.L1481
.LVL540:
.L1522:
	xorl	%r10d, %r10d
	movapd	.LC26(%rip), %xmm2
	jmp	.L1486
.L1526:
	xorl	%r12d, %r12d
	movl	$1, %r13d
	jmp	.L1509
.LVL541:
.L1958:
.LBB418:
.LBB404:
.LBB401:
.LBB400:
	.loc 1 1418 0
	movl	$.LC99, %edi
	call	_Z7nrerrorPKc
.LVL542:
.L1523:
.LBE400:
.LBE401:
.LBE404:
.LBE418:
	.loc 1 401 0
	xorl	%esi, %esi
	jmp	.L1495
.LVL543:
.L1520:
	.loc 1 416 0
	xorl	%ecx, %ecx
	jmp	.L1480
.LVL544:
.L1957:
	leal	-8(%rbx), %esi
	movl	%esi, 52(%rsp)
	jmp	.L1499
	.cfi_endproc
.LFE85:
	.size	_Z20Discount_Factors_optPdidS_, .-_Z20Discount_Factors_optPdidS_
	.p2align 4,,15
	.globl	_Z25Discount_Factors_BlockingPdidS_i
	.type	_Z25Discount_Factors_BlockingPdidS_i, @function
_Z25Discount_Factors_BlockingPdidS_i:
.LFB86:
	.loc 1 441 0
	.cfi_startproc
.LVL545:
.LBB425:
	.loc 1 446 0
	cvtsi2sd	%esi, %xmm1
.LBE425:
	.loc 1 441 0
	pushq	%r15
.LCFI121:
	.cfi_def_cfa_offset 16
	.cfi_offset 15, -16
	pushq	%r14
.LCFI122:
	.cfi_def_cfa_offset 24
	.cfi_offset 14, -24
	pushq	%r13
.LCFI123:
	.cfi_def_cfa_offset 32
	.cfi_offset 13, -32
	movl	%ecx, %r13d
	pushq	%r12
.LCFI124:
	.cfi_def_cfa_offset 40
	.cfi_offset 12, -40
	pushq	%rbp
.LCFI125:
	.cfi_def_cfa_offset 48
	.cfi_offset 6, -48
	pushq	%rbx
.LCFI126:
	.cfi_def_cfa_offset 56
	.cfi_offset 3, -56
.LBB437:
	.loc 1 449 0
	movl	%esi, %ebx
	.loc 1 446 0
	divsd	%xmm1, %xmm0
.LVL546:
	.loc 1 449 0
	subl	$1, %ebx
	imull	%ecx, %ebx
.LVL547:
.LBE437:
	.loc 1 441 0
	subq	$72, %rsp
.LCFI127:
	.cfi_def_cfa_offset 128
	.loc 1 441 0
	movq	%rdi, 40(%rsp)
.LBB438:
.LBB426:
.LBB427:
.LBB428:
	.loc 1 1417 0
	movq	%rdx, 8(%rsp)
.LBE428:
.LBE427:
.LBE426:
.LBE438:
	.loc 1 441 0
	movl	%esi, 60(%rsp)
.LBB439:
	.loc 1 449 0
	leal	-1(%rbx), %eax
	cltq
.LVL548:
.LBB433:
.LBB431:
.LBB429:
	.loc 1 1417 0
	leaq	16(,%rax,8), %rdi
.LVL549:
	movsd	%xmm0, 16(%rsp)
	call	malloc
.LVL550:
	.loc 1 1418 0
	testq	%rax, %rax
	.loc 1 1417 0
	movq	%rax, 48(%rsp)
.LVL551:
	.loc 1 1418 0
	movq	8(%rsp), %rdx
	movsd	16(%rsp), %xmm0
	je	.L2423
	movq	%rax, %rbp
	.loc 1 449 0
	addq	$8, %rbp
.LVL552:
.LBE429:
.LBE431:
.LBE433:
	.loc 1 451 0
	testl	%ebx, %ebx
	jle	.L1984
	.loc 1 436 0
	movq	%rdx, %rcx
.LBE439:
	movl	%ebx, %r9d
.LBB440:
	salq	$60, %rcx
	shrq	$63, %rcx
	cmpl	%ecx, %ebx
	cmovb	%ebx, %ecx
.LBE440:
	cmpl	$3, %ebx
	cmova	%ecx, %r9d
	testl	%r9d, %r9d
	je	.L2006
	cmpl	$8, %r9d
	jbe	.L2007
.LBB441:
	leal	-9(%r9), %esi
	movq	48(%rsp), %r12
	leaq	152(%rdx), %r10
	movsd	.LC13(%rip), %xmm10
.LBE441:
	xorl	%edi, %edi
.LBB442:
	shrl	$3, %esi
.LBE442:
	xorl	%r14d, %r14d
.LBB443:
	leaq	1(%rsi), %r8
	addq	$160, %r12
	salq	$6, %r8
.LVL553:
	.p2align 4,,10
	.p2align 3
.L1969:
	.loc 1 451 0
	movsd	-152(%r10), %xmm2
	addq	$64, %rdi
	prefetcht0	(%r10)
	addl	$8, %r14d
	prefetcht0	(%r12)
	xorpd	%xmm10, %xmm2
	movl	%r14d, %r11d
	mulsd	%xmm0, %xmm2
	movsd	%xmm2, -152(%r12)
	movsd	-144(%r10), %xmm3
	xorpd	%xmm10, %xmm3
	mulsd	%xmm0, %xmm3
	movsd	%xmm3, -144(%r12)
	movsd	-136(%r10), %xmm4
	xorpd	%xmm10, %xmm4
	mulsd	%xmm0, %xmm4
	movsd	%xmm4, -136(%r12)
	movsd	-128(%r10), %xmm5
	xorpd	%xmm10, %xmm5
	mulsd	%xmm0, %xmm5
	movsd	%xmm5, -128(%r12)
	movsd	-120(%r10), %xmm6
	xorpd	%xmm10, %xmm6
	mulsd	%xmm0, %xmm6
	movsd	%xmm6, -120(%r12)
	movsd	-112(%r10), %xmm7
	xorpd	%xmm10, %xmm7
	mulsd	%xmm0, %xmm7
	movsd	%xmm7, -112(%r12)
	movsd	-104(%r10), %xmm8
	xorpd	%xmm10, %xmm8
	mulsd	%xmm0, %xmm8
	movsd	%xmm8, -104(%r12)
.LVL554:
	movsd	-96(%r10), %xmm9
	addq	$64, %r10
	xorpd	%xmm10, %xmm9
	mulsd	%xmm0, %xmm9
	movsd	%xmm9, -96(%r12)
	addq	$64, %r12
	cmpq	%r8, %rdi
	jne	.L1969
.LVL555:
.L1968:
	.loc 1 436 0
	movslq	%r14d, %r12
	movl	%r11d, %r10d
	leal	1(%r11), %r15d
	salq	$3, %r12
	notl	%r10d
	movl	$8, %eax
.LVL556:
	leaq	(%rdx,%r12), %rsi
	addl	%r9d, %r10d
	addq	%rbp, %r12
	andl	$7, %r10d
	cmpl	%r15d, %r9d
	leal	1(%r14), %ecx
	.loc 1 451 0
	movsd	(%rsi), %xmm11
	xorpd	%xmm10, %xmm11
	mulsd	%xmm0, %xmm11
	movsd	%xmm11, (%r12)
	jbe	.L2389
	testl	%r10d, %r10d
	je	.L1970
	cmpl	$1, %r10d
	je	.L2312
	cmpl	$2, %r10d
	je	.L2313
	cmpl	$3, %r10d
	je	.L2314
	cmpl	$4, %r10d
	je	.L2315
	cmpl	$5, %r10d
	je	.L2316
	cmpl	$6, %r10d
	je	.L2317
	movsd	8(%rsi), %xmm12
	leal	2(%r14), %ecx
.LVL557:
	movl	$16, %eax
	xorpd	%xmm10, %xmm12
	mulsd	%xmm0, %xmm12
	movsd	%xmm12, 8(%r12)
.L2317:
	movsd	(%rsi,%rax), %xmm13
	addl	$1, %ecx
	xorpd	%xmm10, %xmm13
	mulsd	%xmm0, %xmm13
	movsd	%xmm13, (%r12,%rax)
	addq	$8, %rax
.L2316:
	movsd	(%rsi,%rax), %xmm14
	addl	$1, %ecx
	xorpd	%xmm10, %xmm14
	mulsd	%xmm0, %xmm14
	movsd	%xmm14, (%r12,%rax)
	addq	$8, %rax
.L2315:
	movsd	(%rsi,%rax), %xmm15
	addl	$1, %ecx
	xorpd	%xmm10, %xmm15
	mulsd	%xmm0, %xmm15
	movsd	%xmm15, (%r12,%rax)
	addq	$8, %rax
.L2314:
	movsd	(%rsi,%rax), %xmm1
	addl	$1, %ecx
	xorpd	%xmm10, %xmm1
	mulsd	%xmm0, %xmm1
	movsd	%xmm1, (%r12,%rax)
	addq	$8, %rax
.L2313:
	movsd	(%rsi,%rax), %xmm2
	addl	$1, %ecx
	xorpd	%xmm10, %xmm2
	mulsd	%xmm0, %xmm2
	movsd	%xmm2, (%r12,%rax)
	addq	$8, %rax
.L2312:
	movsd	(%rsi,%rax), %xmm3
	addl	$1, %ecx
	.loc 1 436 0
	leal	(%r11,%rcx), %r8d
	.loc 1 451 0
	xorpd	%xmm10, %xmm3
	subl	%r14d, %r8d
	mulsd	%xmm0, %xmm3
	movsd	%xmm3, (%r12,%rax)
	addq	$8, %rax
	cmpl	%r8d, %r9d
	jbe	.L2389
.L1970:
	movsd	(%rsi,%rax), %xmm4
	addl	$8, %ecx
	movsd	8(%rsi,%rax), %xmm5
	.loc 1 436 0
	leal	(%r11,%rcx), %edi
	.loc 1 451 0
	movsd	16(%rsi,%rax), %xmm6
	movsd	24(%rsi,%rax), %xmm7
	subl	%r14d, %edi
	movsd	32(%rsi,%rax), %xmm8
	movsd	40(%rsi,%rax), %xmm9
	movsd	48(%rsi,%rax), %xmm11
	movsd	56(%rsi,%rax), %xmm12
	xorpd	%xmm10, %xmm4
	xorpd	%xmm10, %xmm5
	xorpd	%xmm10, %xmm6
	xorpd	%xmm10, %xmm7
	xorpd	%xmm10, %xmm8
	xorpd	%xmm10, %xmm9
	xorpd	%xmm10, %xmm11
	xorpd	%xmm10, %xmm12
	mulsd	%xmm0, %xmm4
	mulsd	%xmm0, %xmm5
	mulsd	%xmm0, %xmm6
	mulsd	%xmm0, %xmm7
	mulsd	%xmm0, %xmm8
	movsd	%xmm4, (%r12,%rax)
	mulsd	%xmm0, %xmm9
	movsd	%xmm5, 8(%r12,%rax)
	mulsd	%xmm0, %xmm11
	movsd	%xmm6, 16(%r12,%rax)
	mulsd	%xmm0, %xmm12
	movsd	%xmm7, 24(%r12,%rax)
	movsd	%xmm8, 32(%r12,%rax)
	movsd	%xmm9, 40(%r12,%rax)
	movsd	%xmm11, 48(%r12,%rax)
	movsd	%xmm12, 56(%r12,%rax)
	addq	$64, %rax
	cmpl	%edi, %r9d
	ja	.L1970
.L2389:
	cmpl	%r9d, %ebx
	je	.L1971
.L1967:
	movl	%ebx, %r12d
	movl	%r9d, %eax
	subl	%r9d, %r12d
	movl	%r12d, %r9d
	shrl	%r9d
	movl	%r9d, %r15d
	addl	%r15d, %r15d
	je	.L1972
	movapd	%xmm0, %xmm10
	salq	$3, %rax
	leaq	(%rdx,%rax), %rdi
	addq	%rbp, %rax
	cmpl	$4, %r9d
	unpcklpd	%xmm10, %xmm10
	.loc 1 436 0
	leal	-3(%r9), %r14d
	movapd	%xmm10, %xmm2
	jbe	.L2008
	movapd	.LC102(%rip), %xmm1
	leal	-5(%r9), %esi
	prefetcht0	368(%rdi)
	movl	$4, %r11d
	movl	$4, %r10d
	.loc 1 451 0
	movapd	(%rdi), %xmm13
	shrl	$2, %esi
	andl	$1, %esi
	movapd	16(%rdi), %xmm14
	xorpd	%xmm1, %xmm13
	movapd	32(%rdi), %xmm15
	xorpd	%xmm1, %xmm14
	movapd	48(%rdi), %xmm3
	xorpd	%xmm1, %xmm15
	mulpd	%xmm10, %xmm13
	.loc 1 436 0
	addq	$64, %rdi
	.loc 1 451 0
	xorpd	%xmm1, %xmm3
	mulpd	%xmm10, %xmm14
	mulpd	%xmm10, %xmm15
	movlpd	%xmm13, (%rax)
	movhpd	%xmm13, 8(%rax)
	mulpd	%xmm10, %xmm3
	movlpd	%xmm14, 16(%rax)
	movhpd	%xmm14, 24(%rax)
	movlpd	%xmm15, 32(%rax)
	movhpd	%xmm15, 40(%rax)
	movlpd	%xmm3, 48(%rax)
	movhpd	%xmm3, 56(%rax)
	.loc 1 436 0
	addq	$64, %rax
	cmpl	$5, %r14d
	jbe	.L1973
	testl	%esi, %esi
	je	.L1974
	.loc 1 451 0
	movapd	(%rdi), %xmm4
	prefetcht0	368(%rdi)
	movl	$8, %r11d
	movl	$8, %r10d
	movapd	16(%rdi), %xmm5
	xorpd	%xmm1, %xmm4
	movapd	32(%rdi), %xmm6
	xorpd	%xmm1, %xmm5
	movapd	48(%rdi), %xmm7
	xorpd	%xmm1, %xmm6
	mulpd	%xmm10, %xmm4
	.loc 1 436 0
	addq	$64, %rdi
	.loc 1 451 0
	xorpd	%xmm1, %xmm7
	mulpd	%xmm10, %xmm5
	mulpd	%xmm10, %xmm6
	movlpd	%xmm4, (%rax)
	movhpd	%xmm4, 8(%rax)
	mulpd	%xmm10, %xmm7
	movlpd	%xmm5, 16(%rax)
	movhpd	%xmm5, 24(%rax)
	movlpd	%xmm6, 32(%rax)
	movhpd	%xmm6, 40(%rax)
	movlpd	%xmm7, 48(%rax)
	movhpd	%xmm7, 56(%rax)
	.loc 1 436 0
	addq	$64, %rax
	cmpl	$9, %r14d
	jbe	.L1973
.L1974:
	.loc 1 451 0 discriminator 2
	movapd	(%rdi), %xmm8
	leal	9(%r10), %r8d
	prefetcht0	368(%rdi)
	leal	8(%r10), %r11d
	prefetcht0	432(%rdi)
	movapd	16(%rdi), %xmm9
	xorpd	%xmm1, %xmm8
	movl	%r11d, %r10d
	movapd	32(%rdi), %xmm11
	xorpd	%xmm1, %xmm9
	mulpd	%xmm2, %xmm8
	movapd	48(%rdi), %xmm12
	xorpd	%xmm1, %xmm11
	movapd	64(%rdi), %xmm10
	xorpd	%xmm1, %xmm12
	mulpd	%xmm2, %xmm9
	movapd	80(%rdi), %xmm13
	xorpd	%xmm1, %xmm10
	movapd	96(%rdi), %xmm14
	xorpd	%xmm1, %xmm13
	mulpd	%xmm2, %xmm11
	movapd	112(%rdi), %xmm15
	.loc 1 436 0 discriminator 2
	subq	$-128, %rdi
	.loc 1 451 0 discriminator 2
	xorpd	%xmm1, %xmm14
	xorpd	%xmm1, %xmm15
	movlpd	%xmm8, (%rax)
	mulpd	%xmm2, %xmm12
	movhpd	%xmm8, 8(%rax)
	movlpd	%xmm9, 16(%rax)
	mulpd	%xmm2, %xmm10
	movhpd	%xmm9, 24(%rax)
	movlpd	%xmm11, 32(%rax)
	mulpd	%xmm2, %xmm13
	movhpd	%xmm11, 40(%rax)
	movlpd	%xmm12, 48(%rax)
	mulpd	%xmm2, %xmm14
	movhpd	%xmm12, 56(%rax)
	movlpd	%xmm10, 64(%rax)
	mulpd	%xmm2, %xmm15
	movhpd	%xmm10, 72(%rax)
	movlpd	%xmm13, 80(%rax)
	movhpd	%xmm13, 88(%rax)
	movlpd	%xmm14, 96(%rax)
	movhpd	%xmm14, 104(%rax)
	movlpd	%xmm15, 112(%rax)
	movhpd	%xmm15, 120(%rax)
	.loc 1 436 0 discriminator 2
	subq	$-128, %rax
	cmpl	%r14d, %r8d
	jb	.L1974
.L1973:
	.loc 1 451 0
	movapd	(%rdi), %xmm3
	movl	%r11d, %r14d
	notl	%r14d
	leal	1(%r11), %r10d
	movl	$16, %esi
	xorpd	%xmm1, %xmm3
	addl	%r9d, %r14d
	andl	$7, %r14d
	cmpl	%r10d, %r9d
	mulpd	%xmm2, %xmm3
	movlpd	%xmm3, (%rax)
	movhpd	%xmm3, 8(%rax)
	jbe	.L2392
	testl	%r14d, %r14d
	je	.L1979
	cmpl	$1, %r14d
	je	.L2306
	cmpl	$2, %r14d
	je	.L2307
	cmpl	$3, %r14d
	je	.L2308
	cmpl	$4, %r14d
	je	.L2309
	cmpl	$5, %r14d
	je	.L2310
	cmpl	$6, %r14d
	je	.L2311
	movapd	16(%rdi), %xmm4
	leal	2(%r11), %r10d
	movl	$32, %esi
	xorpd	%xmm1, %xmm4
	mulpd	%xmm2, %xmm4
	movlpd	%xmm4, 16(%rax)
	movhpd	%xmm4, 24(%rax)
.L2311:
	movapd	(%rdi,%rsi), %xmm5
	addl	$1, %r10d
	xorpd	%xmm1, %xmm5
	mulpd	%xmm2, %xmm5
	movlpd	%xmm5, (%rax,%rsi)
	movhpd	%xmm5, 8(%rax,%rsi)
	addq	$16, %rsi
.L2310:
	movapd	(%rdi,%rsi), %xmm6
	addl	$1, %r10d
	xorpd	%xmm1, %xmm6
	mulpd	%xmm2, %xmm6
	movlpd	%xmm6, (%rax,%rsi)
	movhpd	%xmm6, 8(%rax,%rsi)
	addq	$16, %rsi
.L2309:
	movapd	(%rdi,%rsi), %xmm7
	addl	$1, %r10d
	xorpd	%xmm1, %xmm7
	mulpd	%xmm2, %xmm7
	movlpd	%xmm7, (%rax,%rsi)
	movhpd	%xmm7, 8(%rax,%rsi)
	addq	$16, %rsi
.L2308:
	movapd	(%rdi,%rsi), %xmm8
	addl	$1, %r10d
	xorpd	%xmm1, %xmm8
	mulpd	%xmm2, %xmm8
	movlpd	%xmm8, (%rax,%rsi)
	movhpd	%xmm8, 8(%rax,%rsi)
	addq	$16, %rsi
.L2307:
	movapd	(%rdi,%rsi), %xmm9
	addl	$1, %r10d
	xorpd	%xmm1, %xmm9
	mulpd	%xmm2, %xmm9
	movlpd	%xmm9, (%rax,%rsi)
	movhpd	%xmm9, 8(%rax,%rsi)
	addq	$16, %rsi
.L2306:
	movapd	(%rdi,%rsi), %xmm11
	addl	$1, %r10d
	xorpd	%xmm1, %xmm11
	mulpd	%xmm2, %xmm11
	movlpd	%xmm11, (%rax,%rsi)
	movhpd	%xmm11, 8(%rax,%rsi)
	addq	$16, %rsi
	cmpl	%r10d, %r9d
	jbe	.L2392
.L1979:
	movapd	(%rdi,%rsi), %xmm12
	addl	$8, %r10d
	movapd	16(%rdi,%rsi), %xmm10
	xorpd	%xmm1, %xmm12
	movapd	32(%rdi,%rsi), %xmm13
	xorpd	%xmm1, %xmm10
	movapd	48(%rdi,%rsi), %xmm14
	xorpd	%xmm1, %xmm13
	movapd	64(%rdi,%rsi), %xmm15
	xorpd	%xmm1, %xmm14
	mulpd	%xmm2, %xmm12
	movapd	80(%rdi,%rsi), %xmm3
	xorpd	%xmm1, %xmm15
	movapd	96(%rdi,%rsi), %xmm4
	xorpd	%xmm1, %xmm3
	mulpd	%xmm2, %xmm10
	movapd	112(%rdi,%rsi), %xmm5
	xorpd	%xmm1, %xmm4
	xorpd	%xmm1, %xmm5
	movlpd	%xmm12, (%rax,%rsi)
	mulpd	%xmm2, %xmm13
	movhpd	%xmm12, 8(%rax,%rsi)
	movlpd	%xmm10, 16(%rax,%rsi)
	mulpd	%xmm2, %xmm14
	movhpd	%xmm10, 24(%rax,%rsi)
	mulpd	%xmm2, %xmm15
	movlpd	%xmm13, 32(%rax,%rsi)
	mulpd	%xmm2, %xmm3
	movhpd	%xmm13, 40(%rax,%rsi)
	movlpd	%xmm14, 48(%rax,%rsi)
	mulpd	%xmm2, %xmm4
	movhpd	%xmm14, 56(%rax,%rsi)
	movlpd	%xmm15, 64(%rax,%rsi)
	mulpd	%xmm2, %xmm5
	movhpd	%xmm15, 72(%rax,%rsi)
	movlpd	%xmm3, 80(%rax,%rsi)
	movhpd	%xmm3, 88(%rax,%rsi)
	movlpd	%xmm4, 96(%rax,%rsi)
	movhpd	%xmm4, 104(%rax,%rsi)
	movlpd	%xmm5, 112(%rax,%rsi)
	movhpd	%xmm5, 120(%rax,%rsi)
	subq	$-128, %rsi
	cmpl	%r10d, %r9d
	ja	.L1979
.L2392:
	addl	%r15d, %ecx
	cmpl	%r15d, %r12d
	je	.L1971
.L1972:
	cmpl	%ecx, %ebx
	.loc 1 436 0
	leal	-7(%rbx), %r9d
	jle	.L2422
	leal	1(%rcx), %r11d
	cmpl	%r9d, %r11d
	jge	.L2422
	movslq	%ecx, %rax
	movsd	.LC13(%rip), %xmm1
	leaq	160(,%rax,8), %rdi
	movl	%r9d, %r14d
	subl	%ecx, %r14d
	.loc 1 451 0
	addl	$8, %ecx
	.loc 1 436 0
	leaq	(%rdx,%rdi), %r8
	addq	%rbp, %rdi
	subl	$2, %r14d
	leal	1(%rcx), %r10d
	shrl	$3, %r14d
	prefetcht0	(%rdi)
	.loc 1 451 0
	movsd	-160(%r8), %xmm2
	andl	$1, %r14d
	prefetcht0	(%r8)
	cmpl	%r10d, %r9d
	leaq	64(%r8), %rsi
	leaq	64(%rdi), %r12
	xorpd	%xmm1, %xmm2
	mulsd	%xmm0, %xmm2
	movsd	%xmm2, -160(%rdi)
	movsd	-152(%r8), %xmm6
	xorpd	%xmm1, %xmm6
	mulsd	%xmm0, %xmm6
	movsd	%xmm6, -152(%rdi)
	movsd	-144(%r8), %xmm7
	xorpd	%xmm1, %xmm7
	mulsd	%xmm0, %xmm7
	movsd	%xmm7, -144(%rdi)
	movsd	-136(%r8), %xmm8
	xorpd	%xmm1, %xmm8
	mulsd	%xmm0, %xmm8
	movsd	%xmm8, -136(%rdi)
	movsd	-128(%r8), %xmm9
	xorpd	%xmm1, %xmm9
	mulsd	%xmm0, %xmm9
	movsd	%xmm9, -128(%rdi)
	movsd	-120(%r8), %xmm11
	xorpd	%xmm1, %xmm11
	mulsd	%xmm0, %xmm11
	movsd	%xmm11, -120(%rdi)
	movsd	-112(%r8), %xmm12
	xorpd	%xmm1, %xmm12
	mulsd	%xmm0, %xmm12
	movsd	%xmm12, -112(%rdi)
	movsd	-104(%r8), %xmm10
	xorpd	%xmm1, %xmm10
	mulsd	%xmm0, %xmm10
	movsd	%xmm10, -104(%rdi)
	jle	.L1976
	testl	%r14d, %r14d
	je	.L1977
	movsd	-160(%rsi), %xmm13
	addl	$8, %ecx
	prefetcht0	(%rsi)
	.loc 1 436 0
	leal	1(%rcx), %r15d
	prefetcht0	(%r12)
	.loc 1 451 0
	xorpd	%xmm1, %xmm13
	cmpl	%r15d, %r9d
	mulsd	%xmm0, %xmm13
	movsd	%xmm13, -160(%r12)
	movsd	-152(%rsi), %xmm14
	xorpd	%xmm1, %xmm14
	mulsd	%xmm0, %xmm14
	movsd	%xmm14, -152(%r12)
	movsd	-144(%rsi), %xmm15
	xorpd	%xmm1, %xmm15
	mulsd	%xmm0, %xmm15
	movsd	%xmm15, -144(%r12)
	movsd	-136(%rsi), %xmm3
	xorpd	%xmm1, %xmm3
	mulsd	%xmm0, %xmm3
	movsd	%xmm3, -136(%r12)
	movsd	-128(%rsi), %xmm4
	xorpd	%xmm1, %xmm4
	mulsd	%xmm0, %xmm4
	movsd	%xmm4, -128(%r12)
	movsd	-120(%rsi), %xmm5
	xorpd	%xmm1, %xmm5
	mulsd	%xmm0, %xmm5
	movsd	%xmm5, -120(%r12)
	movsd	-112(%rsi), %xmm2
	xorpd	%xmm1, %xmm2
	mulsd	%xmm0, %xmm2
	movsd	%xmm2, -112(%r12)
	movsd	-104(%rsi), %xmm6
	leaq	128(%r8), %rsi
	xorpd	%xmm1, %xmm6
	mulsd	%xmm0, %xmm6
	movsd	%xmm6, -104(%r12)
	leaq	128(%rdi), %r12
	jle	.L1976
.L1977:
	movsd	-160(%rsi), %xmm7
	addl	$16, %ecx
	prefetcht0	(%rsi)
	.loc 1 436 0
	leal	1(%rcx), %edi
	leaq	64(%rsi), %r11
	leaq	64(%r12), %rax
	.loc 1 451 0
	xorpd	%xmm1, %xmm7
	prefetcht0	(%r12)
	prefetcht0	(%r11)
	prefetcht0	(%rax)
	mulsd	%xmm0, %xmm7
	movsd	%xmm7, -160(%r12)
	movsd	-152(%rsi), %xmm8
	xorpd	%xmm1, %xmm8
	mulsd	%xmm0, %xmm8
	movsd	%xmm8, -152(%r12)
	movsd	-144(%rsi), %xmm9
	xorpd	%xmm1, %xmm9
	mulsd	%xmm0, %xmm9
	movsd	%xmm9, -144(%r12)
	movsd	-136(%rsi), %xmm11
	xorpd	%xmm1, %xmm11
	mulsd	%xmm0, %xmm11
	movsd	%xmm11, -136(%r12)
	movsd	-128(%rsi), %xmm12
	xorpd	%xmm1, %xmm12
	mulsd	%xmm0, %xmm12
	movsd	%xmm12, -128(%r12)
	movsd	-120(%rsi), %xmm10
	xorpd	%xmm1, %xmm10
	mulsd	%xmm0, %xmm10
	movsd	%xmm10, -120(%r12)
	movsd	-112(%rsi), %xmm13
	xorpd	%xmm1, %xmm13
	mulsd	%xmm0, %xmm13
	movsd	%xmm13, -112(%r12)
	movsd	-104(%rsi), %xmm14
	xorpd	%xmm1, %xmm14
	mulsd	%xmm0, %xmm14
	movsd	%xmm14, -104(%r12)
	movsd	-96(%rsi), %xmm15
	xorpd	%xmm1, %xmm15
	mulsd	%xmm0, %xmm15
	movsd	%xmm15, -96(%r12)
	movsd	-88(%rsi), %xmm3
	xorpd	%xmm1, %xmm3
	mulsd	%xmm0, %xmm3
	movsd	%xmm3, -88(%r12)
	movsd	-80(%rsi), %xmm4
	xorpd	%xmm1, %xmm4
	mulsd	%xmm0, %xmm4
	movsd	%xmm4, -80(%r12)
	movsd	-72(%rsi), %xmm5
	xorpd	%xmm1, %xmm5
	mulsd	%xmm0, %xmm5
	movsd	%xmm5, -72(%r12)
	movsd	-64(%rsi), %xmm2
	xorpd	%xmm1, %xmm2
	mulsd	%xmm0, %xmm2
	movsd	%xmm2, -64(%r12)
	movsd	-56(%rsi), %xmm6
	xorpd	%xmm1, %xmm6
	mulsd	%xmm0, %xmm6
	movsd	%xmm6, -56(%r12)
	movsd	-48(%rsi), %xmm7
	xorpd	%xmm1, %xmm7
	mulsd	%xmm0, %xmm7
	movsd	%xmm7, -48(%r12)
	movsd	-40(%rsi), %xmm8
	subq	$-128, %rsi
	xorpd	%xmm1, %xmm8
	mulsd	%xmm0, %xmm8
	movsd	%xmm8, -40(%r12)
	subq	$-128, %r12
	cmpl	%edi, %r9d
	jg	.L1977
.L1976:
	.loc 1 436 0
	movslq	%ecx, %r9
	movl	%ecx, %r8d
	leal	1(%rcx), %r10d
	salq	$3, %r9
	notl	%r8d
	movl	$1, %esi
	addq	%r9, %rdx
	leal	(%r8,%rbx), %r14d
	addq	%rbp, %r9
	.loc 1 451 0
	movsd	(%rdx), %xmm9
	andl	$7, %r14d
	cmpl	%r10d, %ebx
	xorpd	%xmm1, %xmm9
	mulsd	%xmm0, %xmm9
	movsd	%xmm9, (%r9)
	jle	.L1971
	testl	%r14d, %r14d
	je	.L1978
	cmpl	$1, %r14d
	je	.L2300
	cmpl	$2, %r14d
	je	.L2301
	cmpl	$3, %r14d
	je	.L2302
	cmpl	$4, %r14d
	je	.L2303
	cmpl	$5, %r14d
	je	.L2304
	cmpl	$6, %r14d
	je	.L2305
	movsd	8(%rdx), %xmm11
	movl	$2, %esi
	xorpd	%xmm1, %xmm11
	mulsd	%xmm0, %xmm11
	movsd	%xmm11, 8(%r9)
.L2305:
	movsd	(%rdx,%rsi,8), %xmm12
	xorpd	%xmm1, %xmm12
	mulsd	%xmm0, %xmm12
	movsd	%xmm12, (%r9,%rsi,8)
	addq	$1, %rsi
.L2304:
	movsd	(%rdx,%rsi,8), %xmm10
	xorpd	%xmm1, %xmm10
	mulsd	%xmm0, %xmm10
	movsd	%xmm10, (%r9,%rsi,8)
	addq	$1, %rsi
.L2303:
	movsd	(%rdx,%rsi,8), %xmm13
	xorpd	%xmm1, %xmm13
	mulsd	%xmm0, %xmm13
	movsd	%xmm13, (%r9,%rsi,8)
	addq	$1, %rsi
.L2302:
	movsd	(%rdx,%rsi,8), %xmm14
	xorpd	%xmm1, %xmm14
	mulsd	%xmm0, %xmm14
	movsd	%xmm14, (%r9,%rsi,8)
	addq	$1, %rsi
.L2301:
	movsd	(%rdx,%rsi,8), %xmm15
	xorpd	%xmm1, %xmm15
	mulsd	%xmm0, %xmm15
	movsd	%xmm15, (%r9,%rsi,8)
	addq	$1, %rsi
.L2300:
	movsd	(%rdx,%rsi,8), %xmm3
	xorpd	%xmm1, %xmm3
	mulsd	%xmm0, %xmm3
	movsd	%xmm3, (%r9,%rsi,8)
	addq	$1, %rsi
	.loc 1 436 0
	leal	(%rcx,%rsi), %r12d
	.loc 1 451 0
	cmpl	%r12d, %ebx
	jle	.L1971
.L1978:
	movsd	(%rdx,%rsi,8), %xmm4
	leaq	1(%rsi), %r15
	leaq	2(%rsi), %r11
	leaq	3(%rsi), %rax
	leaq	4(%rsi), %rdi
	leaq	5(%rsi), %r8
	leaq	6(%rsi), %r14
	leaq	7(%rsi), %r10
	xorpd	%xmm1, %xmm4
	movsd	(%rdx,%r15,8), %xmm5
	movsd	(%rdx,%r11,8), %xmm2
	movsd	(%rdx,%rax,8), %xmm6
	movsd	(%rdx,%rdi,8), %xmm7
	movsd	(%rdx,%r8,8), %xmm8
	movsd	(%rdx,%r14,8), %xmm9
	movsd	(%rdx,%r10,8), %xmm11
	mulsd	%xmm0, %xmm4
	xorpd	%xmm1, %xmm5
	xorpd	%xmm1, %xmm2
	xorpd	%xmm1, %xmm6
	xorpd	%xmm1, %xmm7
	movsd	%xmm4, (%r9,%rsi,8)
	addq	$8, %rsi
	xorpd	%xmm1, %xmm8
	.loc 1 436 0
	leal	(%rcx,%rsi), %r12d
	.loc 1 451 0
	xorpd	%xmm1, %xmm9
	xorpd	%xmm1, %xmm11
	cmpl	%r12d, %ebx
	mulsd	%xmm0, %xmm5
	mulsd	%xmm0, %xmm2
	mulsd	%xmm0, %xmm6
	mulsd	%xmm0, %xmm7
	mulsd	%xmm0, %xmm8
	movsd	%xmm5, (%r9,%r15,8)
	mulsd	%xmm0, %xmm9
	movsd	%xmm2, (%r9,%r11,8)
	mulsd	%xmm0, %xmm11
	movsd	%xmm6, (%r9,%rax,8)
	movsd	%xmm7, (%r9,%rdi,8)
	movsd	%xmm8, (%r9,%r8,8)
	movsd	%xmm9, (%r9,%r14,8)
	movsd	%xmm11, (%r9,%r10,8)
	jg	.L1978
.L1971:
	cmpl	$8, %ebx
	jle	.L2009
	.loc 1 436 0
	leal	-9(%rbx), %ecx
	movq	48(%rsp), %r14
.LBE443:
	xorl	%r12d, %r12d
.LBB444:
	shrl	$3, %ecx
	leal	8(,%rcx,8), %r15d
	addq	$96, %r14
	.p2align 4,,10
	.p2align 3
.L1982:
	.loc 1 452 0 discriminator 2
	movsd	-88(%r14), %xmm0
	addl	$8, %r12d
	prefetcht0	(%r14)
	call	exp
.LVL558:
	movsd	%xmm0, -88(%r14)
	movsd	-80(%r14), %xmm0
	call	exp
.LVL559:
	movsd	%xmm0, -80(%r14)
	movsd	-72(%r14), %xmm0
	call	exp
.LVL560:
	movsd	%xmm0, -72(%r14)
	movsd	-64(%r14), %xmm0
	call	exp
.LVL561:
	movsd	%xmm0, -64(%r14)
	movsd	-56(%r14), %xmm0
	call	exp
.LVL562:
	movsd	%xmm0, -56(%r14)
	movsd	-48(%r14), %xmm0
	call	exp
.LVL563:
	movsd	%xmm0, -48(%r14)
	movsd	-40(%r14), %xmm0
	call	exp
.LVL564:
	movsd	%xmm0, -40(%r14)
	movsd	-32(%r14), %xmm0
	call	exp
.LVL565:
	movsd	%xmm0, -32(%r14)
	addq	$64, %r14
	cmpl	%r15d, %r12d
	jne	.L1982
.LVL566:
.L1981:
	.loc 1 436 0
	movslq	%r12d, %rdx
	movl	%r12d, %esi
	.loc 1 452 0
	leal	1(%r12), %r14d
	.loc 1 436 0
	leaq	0(%rbp,%rdx,8), %r9
	notl	%esi
	addl	%ebx, %esi
	.loc 1 452 0
	movsd	(%r9), %xmm0
	andl	$7, %esi
	movq	%r9, 8(%rsp)
	movl	%esi, 16(%rsp)
	call	exp
.LVL567:
	movq	8(%rsp), %r11
	cmpl	%r14d, %ebx
	movl	16(%rsp), %eax
	movsd	%xmm0, (%r11)
	leaq	8(%r11), %r15
	jle	.L1984
	testl	%eax, %eax
	je	.L1983
	cmpl	$1, %eax
	je	.L2294
	cmpl	$2, %eax
	.p2align 4,,3
	je	.L2295
	cmpl	$3, %eax
	.p2align 4,,2
	je	.L2296
	cmpl	$4, %eax
	.p2align 4,,2
	je	.L2297
	cmpl	$5, %eax
	.p2align 4,,2
	je	.L2298
	cmpl	$6, %eax
	.p2align 4,,2
	je	.L2299
	movsd	(%r15), %xmm0
	movq	%r11, 8(%rsp)
	leal	2(%r12), %r14d
	call	exp
.LVL568:
	movq	8(%rsp), %rdi
	movsd	%xmm0, (%r15)
	leaq	16(%rdi), %r15
.LVL569:
.L2299:
	movsd	(%r15), %xmm0
	addl	$1, %r14d
	call	exp
.LVL570:
	movsd	%xmm0, (%r15)
	addq	$8, %r15
.L2298:
	movsd	(%r15), %xmm0
	addl	$1, %r14d
	call	exp
.LVL571:
	movsd	%xmm0, (%r15)
	addq	$8, %r15
.L2297:
	movsd	(%r15), %xmm0
	addl	$1, %r14d
	call	exp
.LVL572:
	movsd	%xmm0, (%r15)
	addq	$8, %r15
.L2296:
	movsd	(%r15), %xmm0
	addl	$1, %r14d
	call	exp
.LVL573:
	movsd	%xmm0, (%r15)
	addq	$8, %r15
.L2295:
	movsd	(%r15), %xmm0
	addl	$1, %r14d
	call	exp
.LVL574:
	movsd	%xmm0, (%r15)
	addq	$8, %r15
.L2294:
	movsd	(%r15), %xmm0
	addl	$1, %r14d
	call	exp
.LVL575:
	movsd	%xmm0, (%r15)
	addq	$8, %r15
	cmpl	%r14d, %ebx
	jle	.L1984
.L1983:
	movsd	(%r15), %xmm0
	addl	$8, %r14d
	call	exp
.LVL576:
	movsd	%xmm0, (%r15)
	movsd	8(%r15), %xmm0
	call	exp
.LVL577:
	movsd	%xmm0, 8(%r15)
	movsd	16(%r15), %xmm0
	call	exp
.LVL578:
	movsd	%xmm0, 16(%r15)
	movsd	24(%r15), %xmm0
	call	exp
.LVL579:
	movsd	%xmm0, 24(%r15)
	movsd	32(%r15), %xmm0
	call	exp
.LVL580:
	movsd	%xmm0, 32(%r15)
	movsd	40(%r15), %xmm0
	call	exp
.LVL581:
	movsd	%xmm0, 40(%r15)
	movsd	48(%r15), %xmm0
	call	exp
.LVL582:
	movsd	%xmm0, 48(%r15)
	movsd	56(%r15), %xmm0
	call	exp
.LVL583:
	movsd	%xmm0, 56(%r15)
	addq	$64, %r15
	cmpl	%r14d, %ebx
	jg	.L1983
.L1984:
.LVL584:
	.loc 1 456 0
	movl	60(%rsp), %edi
	imull	%r13d, %edi
	testl	%edi, %edi
	jle	.L1965
	.loc 1 436 0
	movq	40(%rsp), %rbx
.LVL585:
.LBE444:
	movl	%edi, %esi
.LBB445:
	salq	$60, %rbx
	shrq	$63, %rbx
	cmpl	%ebx, %edi
	cmovb	%edi, %ebx
.LBE445:
	cmpl	$6, %edi
	cmova	%ebx, %esi
	testl	%esi, %esi
	je	.L2010
	cmpl	$8, %esi
	jbe	.L2011
.LBB446:
	leal	-9(%rsi), %r8d
	movq	40(%rsp), %rax
	.loc 1 457 0
	movabsq	$4607182418800017408, %r10
	movabsq	$4607182418800017408, %rcx
	movabsq	$4607182418800017408, %rdx
	movabsq	$4607182418800017408, %r12
	.loc 1 436 0
	shrl	$3, %r8d
	.loc 1 457 0
	movabsq	$4607182418800017408, %r11
	movabsq	$4607182418800017408, %r14
	.loc 1 436 0
	leaq	1(%r8), %r9
	addq	$232, %rax
	.loc 1 457 0
	movabsq	$4607182418800017408, %r15
	movabsq	$4607182418800017408, %rbx
	movq	%r10, -232(%rax)
.LVL586:
	movq	%rcx, -224(%rax)
	.loc 1 436 0
	salq	$6, %r9
	.loc 1 457 0
	movq	%rdx, -208(%rax)
	prefetcht0	(%rax)
	leaq	-64(%r9), %r8
	movq	%r12, -216(%rax)
	movq	%r11, -200(%rax)
	movq	%r14, -192(%rax)
	movq	%r15, -184(%rax)
	movl	$64, %edx
	movq	%rbx, -176(%rax)
	movq	40(%rsp), %rax
	shrq	$6, %r8
	andl	$3, %r8d
	.loc 1 456 0
	movl	$8, %ecx
	movl	$8, %r10d
	addq	$296, %rax
	cmpq	%r9, %rdx
	je	.L1989
	testq	%r8, %r8
	je	.L1990
	cmpq	$1, %r8
	je	.L2292
	cmpq	$2, %r8
	je	.L2293
	.loc 1 457 0
	movabsq	$4607182418800017408, %rcx
	movabsq	$4607182418800017408, %rdx
	movabsq	$4607182418800017408, %r8
	movabsq	$4607182418800017408, %r10
	movabsq	$4607182418800017408, %r12
	movabsq	$4607182418800017408, %r11
	movabsq	$4607182418800017408, %r14
	movabsq	$4607182418800017408, %r15
	movq	%rcx, -216(%rax)
	movq	%rdx, -200(%rax)
	prefetcht0	(%rax)
	movq	%r8, -232(%rax)
	movq	%r10, -224(%rax)
	movq	%r12, -208(%rax)
	.loc 1 456 0
	movl	$16, %ecx
	.loc 1 457 0
	movq	%r11, -192(%rax)
	movq	%r14, -184(%rax)
	movl	$128, %edx
	movq	%r15, -176(%rax)
	movq	40(%rsp), %rax
	addq	$360, %rax
.L2293:
	movabsq	$4607182418800017408, %rbx
	movabsq	$4607182418800017408, %r8
	movabsq	$4607182418800017408, %r10
	movq	%rbx, -232(%rax)
	movabsq	$4607182418800017408, %r12
	movabsq	$4607182418800017408, %r11
	movabsq	$4607182418800017408, %r14
	movabsq	$4607182418800017408, %r15
	movabsq	$4607182418800017408, %rbx
	prefetcht0	(%rax)
	movq	%r8, -224(%rax)
	movq	%r10, -216(%rax)
	movq	%r12, -208(%rax)
	movq	%r11, -200(%rax)
	.loc 1 456 0
	addl	$8, %ecx
	.loc 1 457 0
	movq	%r14, -192(%rax)
	movq	%r15, -184(%rax)
	addq	$64, %rdx
	movq	%rbx, -176(%rax)
	addq	$64, %rax
.L2292:
	movabsq	$4607182418800017408, %r8
	movabsq	$4607182418800017408, %r10
	movabsq	$4607182418800017408, %r12
	movq	%r8, -232(%rax)
	movabsq	$4607182418800017408, %r11
	movabsq	$4607182418800017408, %r14
	movabsq	$4607182418800017408, %r15
	movabsq	$4607182418800017408, %rbx
	movabsq	$4607182418800017408, %r8
	addq	$64, %rdx
	movq	%r10, -224(%rax)
	.loc 1 456 0
	addl	$8, %ecx
	prefetcht0	(%rax)
	.loc 1 457 0
	movq	%r12, -216(%rax)
	movq	%r11, -208(%rax)
	movq	%r14, -200(%rax)
	movq	%r15, -192(%rax)
	movl	%ecx, %r10d
	movq	%rbx, -184(%rax)
	movq	%r8, -176(%rax)
	addq	$64, %rax
	cmpq	%r9, %rdx
	je	.L1989
.L1990:
	movabsq	$4607182418800017408, %r11
	movabsq	$4607182418800017408, %r15
	movabsq	$4607182418800017408, %r8
	movabsq	$4607182418800017408, %r12
	movq	%r11, -224(%rax)
	movabsq	$4607182418800017408, %r14
	leaq	64(%rax), %r11
	movq	%r15, -208(%rax)
	movabsq	$4607182418800017408, %rbx
	movq	%r8, -192(%rax)
	movabsq	$4607182418800017408, %r10
	movabsq	$4607182418800017408, %r15
	movabsq	$4607182418800017408, %r8
	movq	%r12, -232(%rax)
	movq	%r14, -216(%rax)
	movq	%rbx, -200(%rax)
	movq	%r10, -184(%rax)
	movabsq	$4607182418800017408, %r12
	movabsq	$4607182418800017408, %r14
	movq	%r15, -160(%rax)
	movabsq	$4607182418800017408, %rbx
	leaq	128(%rax), %r15
	movq	%r8, -144(%rax)
	movabsq	$4607182418800017408, %r10
	movabsq	$4607182418800017408, %r8
	movq	%r12, -176(%rax)
	movq	%r14, -168(%rax)
	movq	%rbx, -152(%rax)
	movq	%r10, -136(%rax)
	movabsq	$4607182418800017408, %r12
	movabsq	$4607182418800017408, %r14
	movabsq	$4607182418800017408, %rbx
	movq	%r8, -96(%rax)
	movabsq	$4607182418800017408, %r10
	leaq	192(%rax), %r8
	prefetcht0	(%r11)
	movabsq	$4607182418800017408, %r11
	movq	%r12, -128(%rax)
	movq	%r14, -112(%rax)
	movq	%r11, -120(%rax)
	movq	%rbx, -104(%rax)
	movabsq	$4607182418800017408, %r12
	movq	%r10, -88(%rax)
	movabsq	$4607182418800017408, %r11
	movabsq	$4607182418800017408, %r14
	movabsq	$4607182418800017408, %rbx
	movabsq	$4607182418800017408, %r10
	prefetcht0	(%r15)
	movabsq	$4607182418800017408, %r15
	movq	%r12, -80(%rax)
	movq	%r11, -72(%rax)
	movq	%r14, -64(%rax)
	movq	%r15, -56(%rax)
	prefetcht0	(%r8)
	movq	%rbx, -48(%rax)
	movq	%r10, -40(%rax)
	movabsq	$4607182418800017408, %r12
	movabsq	$4607182418800017408, %r10
	movabsq	$4607182418800017408, %r11
	movabsq	$4607182418800017408, %r14
	movabsq	$4607182418800017408, %r15
	movabsq	$4607182418800017408, %rbx
	movabsq	$4607182418800017408, %r8
	addq	$256, %rdx
	movq	%r10, 16(%rax)
	.loc 1 456 0
	addl	$32, %ecx
	prefetcht0	(%rax)
	.loc 1 457 0
	movq	%r12, -32(%rax)
	movq	%r11, -24(%rax)
	movq	%r14, -16(%rax)
	movq	%r15, -8(%rax)
	movl	%ecx, %r10d
	movq	%rbx, (%rax)
	movq	%r8, 8(%rax)
	addq	$256, %rax
	cmpq	%r9, %rdx
	jne	.L1990
.L1989:
.LVL587:
	.loc 1 436 0
	movq	40(%rsp), %rax
	movl	%r10d, %r14d
	movslq	%ecx, %r9
	notl	%r14d
	leal	1(%r10), %r11d
	.loc 1 457 0
	movabsq	$4607182418800017408, %rdx
	addl	%esi, %r14d
	.loc 1 436 0
	leaq	(%rax,%r9,8), %r12
	andl	$7, %r14d
	cmpl	%r11d, %esi
	.loc 1 457 0
	movq	%rdx, (%r12)
	leaq	8(%r12), %rax
	.loc 1 436 0
	leal	1(%rcx), %edx
	jbe	.L2393
	testl	%r14d, %r14d
	je	.L1991
	cmpl	$1, %r14d
	je	.L2286
	cmpl	$2, %r14d
	je	.L2287
	cmpl	$3, %r14d
	je	.L2288
	cmpl	$4, %r14d
	je	.L2289
	cmpl	$5, %r14d
	je	.L2290
	cmpl	$6, %r14d
	je	.L2291
	.loc 1 457 0
	movabsq	$4607182418800017408, %r15
	.loc 1 456 0
	leal	2(%rcx), %edx
.LVL588:
	.loc 1 457 0
	movq	%r15, (%rax)
	leaq	16(%r12), %rax
.L2291:
	movabsq	$4607182418800017408, %rbx
	.loc 1 456 0
	addl	$1, %edx
	.loc 1 457 0
	movq	%rbx, (%rax)
	addq	$8, %rax
.L2290:
	movabsq	$4607182418800017408, %r8
	.loc 1 456 0
	addl	$1, %edx
	.loc 1 457 0
	movq	%r8, (%rax)
	addq	$8, %rax
.L2289:
	movabsq	$4607182418800017408, %r9
	.loc 1 456 0
	addl	$1, %edx
	.loc 1 457 0
	movq	%r9, (%rax)
	addq	$8, %rax
.L2288:
	movabsq	$4607182418800017408, %r12
	.loc 1 456 0
	addl	$1, %edx
	.loc 1 457 0
	movq	%r12, (%rax)
	addq	$8, %rax
.L2287:
	movabsq	$4607182418800017408, %r14
	.loc 1 456 0
	addl	$1, %edx
	.loc 1 457 0
	movq	%r14, (%rax)
	addq	$8, %rax
.L2286:
	.loc 1 456 0
	addl	$1, %edx
	.loc 1 457 0
	movabsq	$4607182418800017408, %r11
	.loc 1 436 0
	leal	(%r10,%rdx), %r15d
	.loc 1 457 0
	movq	%r11, (%rax)
	addq	$8, %rax
	subl	%ecx, %r15d
	cmpl	%r15d, %esi
	jbe	.L2393
.L1991:
	movabsq	$4607182418800017408, %r8
	.loc 1 456 0
	addl	$8, %edx
	.loc 1 457 0
	movabsq	$4607182418800017408, %rbx
	movq	%r8, 8(%rax)
	.loc 1 436 0
	leal	(%r10,%rdx), %r8d
	.loc 1 457 0
	movq	%rbx, (%rax)
	movabsq	$4607182418800017408, %r9
	movabsq	$4607182418800017408, %r12
	movabsq	$4607182418800017408, %r14
	movabsq	$4607182418800017408, %r11
	movabsq	$4607182418800017408, %r15
	movabsq	$4607182418800017408, %rbx
	subl	%ecx, %r8d
	movq	%r9, 16(%rax)
	movq	%r12, 24(%rax)
	movq	%r14, 32(%rax)
	movq	%r11, 40(%rax)
	movq	%r15, 48(%rax)
	movq	%rbx, 56(%rax)
	addq	$64, %rax
	cmpl	%r8d, %esi
	ja	.L1991
.L2393:
	cmpl	%esi, %edi
	je	.L1965
.L1988:
	movl	%edi, %r10d
	movl	%esi, %eax
	subl	%esi, %r10d
	movl	%r10d, %r8d
	shrl	%r8d
	movl	%r8d, %r11d
	addl	%r11d, %r11d
	je	.L1993
	movq	40(%rsp), %rcx
	cmpl	$4, %r8d
	.loc 1 436 0
	leal	-3(%r8), %r12d
	leaq	(%rcx,%rax,8), %rax
	jbe	.L2012
	leal	-5(%r8), %esi
	movapd	.LC26(%rip), %xmm0
	prefetcht0	640(%rax)
	movl	$4, %r9d
	movl	$4, %r15d
	shrl	$2, %esi
	andl	$3, %esi
	.loc 1 457 0
	movapd	%xmm0, (%rax)
	movapd	%xmm0, 16(%rax)
	movapd	%xmm0, 32(%rax)
	movapd	%xmm0, 48(%rax)
	.loc 1 436 0
	addq	$64, %rax
	cmpl	$5, %r12d
	jbe	.L1994
	testl	%esi, %esi
	je	.L1995
	cmpl	$1, %esi
	je	.L2284
	cmpl	$2, %esi
	.p2align 4,,3
	je	.L2285
	prefetcht0	640(%rax)
	.loc 1 457 0
	movapd	%xmm0, (%rax)
	movl	$8, %r15d
	movapd	%xmm0, 16(%rax)
	movapd	%xmm0, 32(%rax)
	movapd	%xmm0, 48(%rax)
	.loc 1 436 0
	addq	$64, %rax
.L2285:
	prefetcht0	640(%rax)
	.loc 1 457 0
	movapd	%xmm0, (%rax)
	addl	$4, %r15d
	movapd	%xmm0, 16(%rax)
	movapd	%xmm0, 32(%rax)
	movapd	%xmm0, 48(%rax)
	.loc 1 436 0
	addq	$64, %rax
.L2284:
	leal	5(%r15), %r14d
	leal	4(%r15), %r9d
	prefetcht0	640(%rax)
	.loc 1 457 0
	movapd	%xmm0, (%rax)
	movl	%r9d, %r15d
	movapd	%xmm0, 16(%rax)
	movapd	%xmm0, 32(%rax)
	movapd	%xmm0, 48(%rax)
	.loc 1 436 0
	addq	$64, %rax
	cmpl	%r12d, %r14d
	jae	.L1994
.L1995:
	leal	17(%r15), %ebx
	leal	16(%r15), %r9d
	prefetcht0	640(%rax)
	.loc 1 457 0 discriminator 2
	movapd	%xmm0, (%rax)
	prefetcht0	704(%rax)
	prefetcht0	768(%rax)
	prefetcht0	832(%rax)
	movl	%r9d, %r15d
	movapd	%xmm0, 16(%rax)
	movapd	%xmm0, 32(%rax)
	movapd	%xmm0, 48(%rax)
	movapd	%xmm0, 64(%rax)
	movapd	%xmm0, 80(%rax)
	movapd	%xmm0, 96(%rax)
	movapd	%xmm0, 112(%rax)
	movapd	%xmm0, 128(%rax)
	movapd	%xmm0, 144(%rax)
	movapd	%xmm0, 160(%rax)
	movapd	%xmm0, 176(%rax)
	movapd	%xmm0, 192(%rax)
	movapd	%xmm0, 208(%rax)
	movapd	%xmm0, 224(%rax)
	movapd	%xmm0, 240(%rax)
	.loc 1 436 0 discriminator 2
	addq	$256, %rax
	cmpl	%r12d, %ebx
	jb	.L1995
.L1994:
	movl	%r9d, %r12d
	leal	1(%r9), %esi
	leaq	16(%rax), %rcx
	notl	%r12d
	addl	%r8d, %r12d
	andl	$7, %r12d
	cmpl	%esi, %r8d
	.loc 1 457 0
	movapd	%xmm0, (%rax)
	jbe	.L2395
	testl	%r12d, %r12d
	je	.L2000
	cmpl	$1, %r12d
	je	.L2278
	cmpl	$2, %r12d
	je	.L2279
	cmpl	$3, %r12d
	je	.L2280
	cmpl	$4, %r12d
	je	.L2281
	cmpl	$5, %r12d
	je	.L2282
	cmpl	$6, %r12d
	je	.L2283
	movapd	%xmm0, (%rcx)
	leal	2(%r9), %esi
	leaq	32(%rax), %rcx
.L2283:
	movapd	%xmm0, (%rcx)
	addl	$1, %esi
	addq	$16, %rcx
.L2282:
	movapd	%xmm0, (%rcx)
	addl	$1, %esi
	addq	$16, %rcx
.L2281:
	movapd	%xmm0, (%rcx)
	addl	$1, %esi
	addq	$16, %rcx
.L2280:
	movapd	%xmm0, (%rcx)
	addl	$1, %esi
	addq	$16, %rcx
.L2279:
	movapd	%xmm0, (%rcx)
	addl	$1, %esi
	addq	$16, %rcx
.L2278:
	addl	$1, %esi
	movapd	%xmm0, (%rcx)
	addq	$16, %rcx
	cmpl	%esi, %r8d
	jbe	.L2395
.L2000:
	addl	$8, %esi
	movapd	%xmm0, (%rcx)
	movapd	%xmm0, 16(%rcx)
	movapd	%xmm0, 32(%rcx)
	movapd	%xmm0, 48(%rcx)
	movapd	%xmm0, 64(%rcx)
	movapd	%xmm0, 80(%rcx)
	movapd	%xmm0, 96(%rcx)
	movapd	%xmm0, 112(%rcx)
	subq	$-128, %rcx
	cmpl	%esi, %r8d
	ja	.L2000
.L2395:
	addl	%r11d, %edx
	cmpl	%r11d, %r10d
	je	.L1965
.L1993:
	.loc 1 436 0
	leal	-7(%rdi), %r9d
	leal	1(%rdx), %ecx
	cmpl	%r9d, %ecx
	jge	.L1997
	cmpl	%edx, %edi
	jle	.L1997
	movq	40(%rsp), %r15
	movslq	%edx, %r14
	movl	%r9d, %r8d
	subl	%edx, %r8d
	.loc 1 457 0
	movabsq	$4607182418800017408, %rcx
	.loc 1 456 0
	addl	$8, %edx
	subl	$2, %r8d
	.loc 1 457 0
	movabsq	$4607182418800017408, %rax
	movabsq	$4607182418800017408, %rbx
	.loc 1 436 0
	leaq	272(%r15,%r14,8), %rsi
	shrl	$3, %r8d
	.loc 1 457 0
	movabsq	$4607182418800017408, %r12
	andl	$3, %r8d
	movabsq	$4607182418800017408, %r10
	movabsq	$4607182418800017408, %r11
	movq	%rcx, -248(%rsi)
	.loc 1 436 0
	leal	1(%rdx), %ecx
	.loc 1 457 0
	movabsq	$4607182418800017408, %r14
	movabsq	$4607182418800017408, %r15
	movq	%rax, -272(%rsi)
	prefetcht0	(%rsi)
	cmpl	%r9d, %ecx
	movq	%rbx, -264(%rsi)
	movq	%r12, -256(%rsi)
	movq	%r10, -240(%rsi)
	movq	%r11, -232(%rsi)
	leaq	64(%rsi), %rax
	movq	%r14, -224(%rsi)
	movq	%r15, -216(%rsi)
	jge	.L1997
	testl	%r8d, %r8d
	je	.L1998
	cmpl	$1, %r8d
	je	.L2276
	cmpl	$2, %r8d
	je	.L2277
	movabsq	$4607182418800017408, %r8
	movabsq	$4607182418800017408, %rbx
	movabsq	$4607182418800017408, %r12
	movabsq	$4607182418800017408, %rcx
	movabsq	$4607182418800017408, %r10
	movabsq	$4607182418800017408, %r11
	movabsq	$4607182418800017408, %r14
	movabsq	$4607182418800017408, %r15
	prefetcht0	(%rax)
	movq	%r8, -272(%rax)
	movq	%rbx, -264(%rax)
	.loc 1 456 0
	addl	$8, %edx
	.loc 1 457 0
	movq	%r12, -256(%rax)
	movq	%rcx, -248(%rax)
	movq	%r10, -240(%rax)
	movq	%r11, -232(%rax)
	movq	%r14, -224(%rax)
	movq	%r15, -216(%rax)
	leaq	128(%rsi), %rax
.L2277:
	movabsq	$4607182418800017408, %rsi
	movabsq	$4607182418800017408, %r8
	movabsq	$4607182418800017408, %rbx
	movabsq	$4607182418800017408, %r12
	movabsq	$4607182418800017408, %rcx
	movabsq	$4607182418800017408, %r10
	movabsq	$4607182418800017408, %r11
	movabsq	$4607182418800017408, %r14
	prefetcht0	(%rax)
	movq	%rsi, -272(%rax)
	movq	%r8, -264(%rax)
	.loc 1 456 0
	addl	$8, %edx
	.loc 1 457 0
	movq	%rbx, -256(%rax)
	movq	%r12, -248(%rax)
	movq	%rcx, -240(%rax)
	movq	%r10, -232(%rax)
	movq	%r11, -224(%rax)
	movq	%r14, -216(%rax)
	addq	$64, %rax
.L2276:
	movabsq	$4607182418800017408, %rcx
	.loc 1 456 0
	addl	$8, %edx
	.loc 1 457 0
	movabsq	$4607182418800017408, %r15
	movq	%rcx, -232(%rax)
	.loc 1 436 0
	leal	1(%rdx), %ecx
	.loc 1 457 0
	movabsq	$4607182418800017408, %rsi
	movabsq	$4607182418800017408, %r8
	movabsq	$4607182418800017408, %rbx
	movabsq	$4607182418800017408, %r12
	movabsq	$4607182418800017408, %r10
	movabsq	$4607182418800017408, %r11
	prefetcht0	(%rax)
	movq	%r15, -272(%rax)
	movq	%rsi, -264(%rax)
	movq	%r8, -256(%rax)
	movq	%rbx, -248(%rax)
	movq	%r12, -240(%rax)
	movq	%r10, -224(%rax)
	movq	%r11, -216(%rax)
	addq	$64, %rax
	cmpl	%r9d, %ecx
	jge	.L1997
.L1998:
	leaq	64(%rax), %rcx
	movabsq	$4607182418800017408, %r14
	movabsq	$4607182418800017408, %r15
	movabsq	$4607182418800017408, %rsi
	movabsq	$4607182418800017408, %r8
	movabsq	$4607182418800017408, %rbx
	prefetcht0	(%rcx)
	leaq	128(%rax), %rcx
	movabsq	$4607182418800017408, %r12
	movabsq	$4607182418800017408, %r10
	movabsq	$4607182418800017408, %r11
	movq	%r14, -272(%rax)
	prefetcht0	(%rcx)
	leaq	192(%rax), %rcx
	movq	%r15, -264(%rax)
	movq	%rsi, -256(%rax)
	movq	%r8, -248(%rax)
	movabsq	$4607182418800017408, %r14
	movq	%rbx, -240(%rax)
	movq	%r12, -232(%rax)
	movabsq	$4607182418800017408, %r15
	movq	%r10, -224(%rax)
	movq	%r11, -216(%rax)
	movabsq	$4607182418800017408, %rsi
	movabsq	$4607182418800017408, %r8
	movabsq	$4607182418800017408, %rbx
	movabsq	$4607182418800017408, %r12
	movabsq	$4607182418800017408, %r10
	movabsq	$4607182418800017408, %r11
	.loc 1 456 0
	addl	$32, %edx
	.loc 1 457 0
	movq	%r14, -208(%rax)
	movq	%r15, -200(%rax)
	movabsq	$4607182418800017408, %r14
	movq	%rsi, -192(%rax)
	movq	%r8, -184(%rax)
	movabsq	$4607182418800017408, %r15
	movq	%rbx, -176(%rax)
	movq	%r12, -168(%rax)
	movabsq	$4607182418800017408, %rsi
	movq	%r10, -160(%rax)
	movq	%r11, -152(%rax)
	movabsq	$4607182418800017408, %r8
	movabsq	$4607182418800017408, %rbx
	movabsq	$4607182418800017408, %r12
	movabsq	$4607182418800017408, %r10
	movabsq	$4607182418800017408, %r11
	prefetcht0	(%rcx)
	.loc 1 436 0
	leal	1(%rdx), %ecx
	.loc 1 457 0
	movq	%r14, -144(%rax)
	movq	%r15, -136(%rax)
	movabsq	$4607182418800017408, %r14
	movq	%rsi, -128(%rax)
	movq	%r8, -120(%rax)
	movabsq	$4607182418800017408, %r15
	movq	%rbx, -112(%rax)
	movq	%r12, -104(%rax)
	movabsq	$4607182418800017408, %rsi
	movq	%r10, -96(%rax)
	movq	%r11, -88(%rax)
	movabsq	$4607182418800017408, %r8
	movabsq	$4607182418800017408, %rbx
	movabsq	$4607182418800017408, %r12
	movabsq	$4607182418800017408, %r10
	movabsq	$4607182418800017408, %r11
	prefetcht0	(%rax)
	movq	%r14, -80(%rax)
	movq	%r15, -72(%rax)
	movq	%rsi, -64(%rax)
	movq	%r8, -56(%rax)
	movq	%rbx, -48(%rax)
	movq	%r12, -40(%rax)
	movq	%r10, -32(%rax)
	movq	%r11, -24(%rax)
	addq	$256, %rax
	cmpl	%r9d, %ecx
	jl	.L1998
.L1997:
	.loc 1 436 0
	movq	40(%rsp), %r9
	movl	%edi, %r14d
	movslq	%edx, %rdx
	subl	%ecx, %r14d
	andl	$7, %r14d
	leaq	(%r9,%rdx,8), %rax
	je	.L1999
	.loc 1 457 0
	movabsq	$4607182418800017408, %r15
	movq	%r15, (%rax)
.LVL589:
	addq	$8, %rax
	.loc 1 456 0
	cmpl	%ecx, %edi
	jle	.L1965
	addl	$1, %ecx
.LVL590:
	cmpl	$1, %r14d
	je	.L1999
	cmpl	$2, %r14d
	je	.L2271
	cmpl	$3, %r14d
	je	.L2272
	cmpl	$4, %r14d
	je	.L2273
	cmpl	$5, %r14d
	je	.L2274
	cmpl	$6, %r14d
	je	.L2275
	.loc 1 457 0
	movabsq	$4607182418800017408, %rsi
	addl	$1, %ecx
.LVL591:
	movq	%rsi, (%rax)
.LVL592:
	addq	$8, %rax
.L2275:
	movabsq	$4607182418800017408, %r8
	addl	$1, %ecx
	movq	%r8, (%rax)
	addq	$8, %rax
.L2274:
	movabsq	$4607182418800017408, %rbx
	addl	$1, %ecx
	movq	%rbx, (%rax)
	addq	$8, %rax
.L2273:
	movabsq	$4607182418800017408, %r12
	addl	$1, %ecx
	movq	%r12, (%rax)
	addq	$8, %rax
.L2272:
	movabsq	$4607182418800017408, %r10
	addl	$1, %ecx
	movq	%r10, (%rax)
	addq	$8, %rax
.L2271:
	movabsq	$4607182418800017408, %r11
	addl	$1, %ecx
	movq	%r11, (%rax)
	addq	$8, %rax
	jmp	.L1999
.LVL593:
	.p2align 4,,10
	.p2align 3
.L2424:
	movabsq	$4607182418800017408, %r9
	movabsq	$4607182418800017408, %r14
	movabsq	$4607182418800017408, %r15
	movabsq	$4607182418800017408, %rsi
	movabsq	$4607182418800017408, %r12
	movabsq	$4607182418800017408, %rdx
	movabsq	$4607182418800017408, %rbx
	movq	%r9, 8(%rax)
	movq	%r14, 16(%rax)
	movq	%r15, 24(%rax)
	movq	%rsi, 32(%rax)
	addl	$8, %ecx
.LVL594:
	movq	%r12, 40(%rax)
.LVL595:
	movq	%rdx, 48(%rax)
	movq	%rbx, 56(%rax)
	addq	$64, %rax
.L1999:
	movabsq	$4607182418800017408, %rdx
	.loc 1 456 0
	cmpl	%ecx, %edi
	.loc 1 457 0
	movq	%rdx, (%rax)
.LVL596:
	.loc 1 456 0
	jg	.L2424
.LVL597:
.L1965:
	.loc 1 459 0
	cmpl	$1, 60(%rsp)
	jle	.L1986
	.loc 1 436 0
	leal	-1(%r13), %r9d
	movq	40(%rsp), %rax
	movslq	%r13d, %rdi
	leaq	0(,%rdi,8), %rcx
	movl	60(%rsp), %ebx
.LBE446:
	movl	$1, %r8d
.LBB447:
	addq	%r9, %rdi
	negq	%r9
	leaq	8(%rax,%rdi,8), %r10
	leaq	-8(,%r9,8), %r11
.LVL598:
	.p2align 4,,10
	.p2align 3
.L2002:
	.loc 1 461 0 discriminator 1
	testl	%r13d, %r13d
	jle	.L2004
	.loc 1 436 0
	leaq	(%r11,%r10), %r14
	movq	%rbp, %r15
.LVL599:
	.p2align 4,,10
	.p2align 3
.L2005:
	leal	-1(%r8), %esi
	movsd	(%r14), %xmm1
	.loc 1 463 0 discriminator 1
	movl	$1, %edx
.LVL600:
	leaq	(%r15,%rcx), %r12
	andl	$7, %esi
	cmpl	%r8d, %edx
	.loc 1 464 0 discriminator 1
	mulsd	(%r15), %xmm1
	.loc 1 463 0 discriminator 1
	je	.L2396
	testl	%esi, %esi
	je	.L2003
	cmpl	$1, %esi
	je	.L2265
	cmpl	$2, %esi
	.p2align 4,,3
	je	.L2266
	cmpl	$3, %esi
	.p2align 4,,2
	je	.L2267
	cmpl	$4, %esi
	.p2align 4,,2
	je	.L2268
	cmpl	$5, %esi
	.p2align 4,,2
	je	.L2269
	cmpl	$6, %esi
	.p2align 4,,2
	je	.L2270
	.loc 1 464 0
	mulsd	(%r12), %xmm1
	.loc 1 463 0
	movl	$2, %edx
.LVL601:
	addq	%rcx, %r12
.L2270:
	.loc 1 464 0
	mulsd	(%r12), %xmm1
	.loc 1 463 0
	addl	$1, %edx
.LVL602:
	addq	%rcx, %r12
.L2269:
	.loc 1 464 0
	mulsd	(%r12), %xmm1
	.loc 1 463 0
	addl	$1, %edx
.LVL603:
	addq	%rcx, %r12
.L2268:
	.loc 1 464 0
	mulsd	(%r12), %xmm1
	.loc 1 463 0
	addl	$1, %edx
.LVL604:
	addq	%rcx, %r12
.L2267:
	.loc 1 464 0
	mulsd	(%r12), %xmm1
	.loc 1 463 0
	addl	$1, %edx
.LVL605:
	addq	%rcx, %r12
.L2266:
	.loc 1 464 0
	mulsd	(%r12), %xmm1
	.loc 1 463 0
	addl	$1, %edx
.LVL606:
	addq	%rcx, %r12
.L2265:
	addl	$1, %edx
.LVL607:
	.loc 1 464 0
	mulsd	(%r12), %xmm1
	addq	%rcx, %r12
	.loc 1 463 0
	cmpl	%r8d, %edx
	je	.L2396
.L2003:
	.loc 1 464 0 discriminator 2
	mulsd	(%r12), %xmm1
	addq	%rcx, %r12
	.loc 1 463 0 discriminator 2
	addl	$8, %edx
.LVL608:
	.loc 1 464 0 discriminator 2
	mulsd	(%r12), %xmm1
.LVL609:
	addq	%rcx, %r12
	mulsd	(%r12), %xmm1
	addq	%rcx, %r12
	mulsd	(%r12), %xmm1
	addq	%rcx, %r12
	mulsd	(%r12), %xmm1
	addq	%rcx, %r12
	mulsd	(%r12), %xmm1
	addq	%rcx, %r12
	mulsd	(%r12), %xmm1
.LVL610:
	addq	%rcx, %r12
	mulsd	(%r12), %xmm1
	addq	%rcx, %r12
	.loc 1 463 0 discriminator 2
	cmpl	%r8d, %edx
	jne	.L2003
.L2396:
	movsd	%xmm1, (%r14)
	addq	$8, %r14
	addq	$8, %r15
	.loc 1 461 0
	cmpq	%r10, %r14
	jne	.L2005
.LVL611:
.L2004:
	.loc 1 459 0
	addl	$1, %r8d
.LVL612:
	addq	%rcx, %r10
	cmpl	%ebx, %r8d
	jne	.L2002
.LVL613:
.L1986:
.LBB434:
.LBB435:
	.loc 1 1428 0
	movq	48(%rsp), %rdi
	call	free
.LVL614:
.LBE435:
.LBE434:
.LBE447:
	.loc 1 473 0
	addq	$72, %rsp
.LCFI128:
	.cfi_remember_state
	.cfi_def_cfa_offset 56
	movl	$1, %eax
	popq	%rbx
.LCFI129:
	.cfi_def_cfa_offset 48
	popq	%rbp
.LCFI130:
	.cfi_def_cfa_offset 40
	popq	%r12
.LCFI131:
	.cfi_def_cfa_offset 32
	popq	%r13
.LCFI132:
	.cfi_def_cfa_offset 24
.LVL615:
	popq	%r14
.LCFI133:
	.cfi_def_cfa_offset 16
	popq	%r15
.LCFI134:
	.cfi_def_cfa_offset 8
	ret
.LVL616:
.L2422:
.LCFI135:
	.cfi_restore_state
	movsd	.LC13(%rip), %xmm1
	jmp	.L1976
.L2008:
	.loc 1 436 0
	xorl	%r11d, %r11d
	movapd	.LC102(%rip), %xmm1
	jmp	.L1973
.LVL617:
.L2007:
	xorl	%r11d, %r11d
	xorl	%r14d, %r14d
	movsd	.LC13(%rip), %xmm10
	jmp	.L1968
.LVL618:
.L2012:
	xorl	%r9d, %r9d
	movapd	.LC26(%rip), %xmm0
	jmp	.L1994
.LVL619:
.L2011:
	xorl	%r10d, %r10d
	xorl	%ecx, %ecx
	jmp	.L1989
.LVL620:
.L2009:
	xorl	%r12d, %r12d
	jmp	.L1981
.LVL621:
.L2010:
	xorl	%edx, %edx
	jmp	.L1988
.LVL622:
.L2423:
.LBB448:
.LBB436:
.LBB432:
.LBB430:
	.loc 1 1418 0
	movl	$.LC99, %edi
	call	_Z7nrerrorPKc
.LVL623:
.L2006:
.LBE430:
.LBE432:
.LBE436:
.LBE448:
	.loc 1 451 0
	xorl	%ecx, %ecx
	jmp	.L1967
	.cfi_endproc
.LFE86:
	.size	_Z25Discount_Factors_BlockingPdidS_i, .-_Z25Discount_Factors_BlockingPdidS_i
	.p2align 4,,15
	.globl	_Z17HJM_SimPath_YieldPPdiidS_S0_Pl
	.type	_Z17HJM_SimPath_YieldPPdiidS_S0_Pl, @function
_Z17HJM_SimPath_YieldPPdiidS_S0_Pl:
.LFB77:
	.loc 1 106 0
	.cfi_startproc
.LVL624:
	pushq	%r15
.LCFI136:
	.cfi_def_cfa_offset 16
	.cfi_offset 15, -16
	movq	%rcx, %r15
	pushq	%r14
.LCFI137:
	.cfi_def_cfa_offset 24
	.cfi_offset 14, -24
	movl	%esi, %r14d
	pushq	%r13
.LCFI138:
	.cfi_def_cfa_offset 32
	.cfi_offset 13, -32
	pushq	%r12
.LCFI139:
	.cfi_def_cfa_offset 40
	.cfi_offset 12, -40
	pushq	%rbp
.LCFI140:
	.cfi_def_cfa_offset 48
	.cfi_offset 6, -48
	pushq	%rbx
.LCFI141:
	.cfi_def_cfa_offset 56
	.cfi_offset 3, -56
	subq	$152, %rsp
.LCFI142:
	.cfi_def_cfa_offset 208
	.loc 1 106 0
	movl	%edx, 68(%rsp)
.LBB486:
	.loc 1 115 0
	leal	-1(%rsi), %edx
.LVL625:
.LBE486:
	.loc 1 106 0
	movq	%rdi, 128(%rsp)
	movsd	%xmm0, 104(%rsp)
	movq	%r8, 112(%rsp)
	movq	%r9, 136(%rsp)
.LBB551:
	.loc 1 115 0
	movslq	%edx, %rax
.LVL626:
	movl	%edx, 64(%rsp)
.LBB487:
.LBB488:
.LBB489:
	.loc 1 1417 0
	leaq	16(,%rax,8), %rdi
.LVL627:
	call	malloc
.LVL628:
	.loc 1 1418 0
	testq	%rax, %rax
	.loc 1 1417 0
	movq	%rax, 40(%rsp)
.LVL629:
	.loc 1 1418 0
	je	.L2430
	movq	%rax, %rdi
.LBE489:
.LBE488:
.LBE487:
	.loc 1 116 0
	leal	-2(%r14), %eax
.LVL630:
.LBB496:
.LBB493:
.LBB490:
	.loc 1 115 0
	addq	$8, %rdi
.LVL631:
.LBE490:
.LBE493:
.LBE496:
	.loc 1 116 0
	cltq
.LBB497:
.LBB494:
.LBB491:
	.loc 1 115 0
	movq	%rdi, 96(%rsp)
.LBE491:
.LBE494:
.LBE497:
	.loc 1 116 0
	movq	%rax, 88(%rsp)
	movl	68(%rsp), %eax
.LBB498:
.LBB499:
.LBB500:
	.loc 1 1437 0
	movq	88(%rsp), %rbp
.LBE500:
.LBE499:
.LBE498:
	.loc 1 116 0
	subl	$1, %eax
	cltq
.LBB515:
.LBB508:
.LBB501:
	.loc 1 1437 0
	addq	$1, %rbp
	.loc 1 1441 0
	leaq	16(,%rax,8), %rdi
	.loc 1 1437 0
	movq	%rax, %r12
.LBE501:
.LBE508:
.LBE515:
	.loc 1 116 0
	movq	%rax, 32(%rsp)
.LVL632:
.LBB516:
.LBB509:
.LBB502:
	.loc 1 1437 0
	addq	$1, %r12
.LVL633:
	.loc 1 1441 0
	call	malloc
.LVL634:
	.loc 1 1442 0
