	.file	"blackscholes.m4.cpp"
	.text
.Ltext0:
	.p2align 4,,15
	.globl	_Z4CNDFf
	.type	_Z4CNDFf, @function
_Z4CNDFf:
.LFB76:
	.file 1 "blackscholes.m4.cpp"
	.loc 1 170 0
	.cfi_startproc
.LVL0:
	movaps	%xmm0, %xmm1
	pushq	%rbx
.LCFI0:
	.cfi_def_cfa_offset 16
	.cfi_offset 3, -16
.LBB41:
	.loc 1 184 0
	xorps	%xmm0, %xmm0
.LVL1:
	.loc 1 188 0
	xorl	%ebx, %ebx
.LBE41:
	.loc 1 170 0
	subq	$16, %rsp
.LCFI1:
	.cfi_def_cfa_offset 32
.LBB42:
	.loc 1 184 0
	ucomiss	%xmm1, %xmm0
	ja	.L12
.L2:
.LVL2:
	.loc 1 193 0
	movss	.LC2(%rip), %xmm3
	mulss	%xmm1, %xmm3
	movss	%xmm1, (%rsp)
	mulss	%xmm1, %xmm3
	unpcklps	%xmm3, %xmm3
	cvtps2pd	%xmm3, %xmm0
	call	exp
.LVL3:
	.loc 1 197 0
	movss	(%rsp), %xmm4
	.loc 1 220 0
	testl	%ebx, %ebx
	.loc 1 197 0
	unpcklps	%xmm4, %xmm4
	.loc 1 198 0
	movss	.LC4(%rip), %xmm7
	.loc 1 193 0
	unpcklpd	%xmm0, %xmm0
.LVL4:
	.loc 1 199 0
	movaps	%xmm7, %xmm8
	.loc 1 197 0
	cvtps2pd	%xmm4, %xmm5
	.loc 1 193 0
	cvtpd2ps	%xmm0, %xmm0
	.loc 1 197 0
	mulsd	.LC3(%rip), %xmm5
	unpcklpd	%xmm5, %xmm5
	.loc 1 195 0
	unpcklps	%xmm0, %xmm0
	.loc 1 197 0
	cvtpd2ps	%xmm5, %xmm6
.LVL5:
	.loc 1 198 0
	addss	%xmm7, %xmm6
.LVL6:
	.loc 1 199 0
	divss	%xmm6, %xmm8
.LVL7:
	.loc 1 200 0
	movaps	%xmm8, %xmm9
	mulss	%xmm8, %xmm9
.LVL8:
	.loc 1 201 0
	movaps	%xmm9, %xmm10
	.loc 1 206 0
	unpcklps	%xmm9, %xmm9
.LVL9:
	.loc 1 201 0
	mulss	%xmm8, %xmm10
.LVL10:
	.loc 1 206 0
	cvtps2pd	%xmm9, %xmm14
	.loc 1 202 0
	movaps	%xmm10, %xmm11
	.loc 1 207 0
	unpcklps	%xmm10, %xmm10
.LVL11:
	.loc 1 202 0
	mulss	%xmm8, %xmm11
.LVL12:
	.loc 1 205 0
	unpcklps	%xmm8, %xmm8
.LVL13:
	.loc 1 207 0
	cvtps2pd	%xmm10, %xmm1
	.loc 1 206 0
	mulsd	.LC6(%rip), %xmm14
	.loc 1 209 0
	unpcklps	%xmm11, %xmm11
.LVL14:
	.loc 1 205 0
	cvtps2pd	%xmm8, %xmm12
	.loc 1 207 0
	mulsd	.LC7(%rip), %xmm1
	.loc 1 203 0
	mulss	%xmm11, %xmm8
	.loc 1 209 0
	cvtps2pd	%xmm11, %xmm3
	.loc 1 206 0
	unpcklpd	%xmm14, %xmm14
	.loc 1 205 0
	mulsd	.LC5(%rip), %xmm12
	.loc 1 209 0
	mulsd	.LC8(%rip), %xmm3
	.loc 1 211 0
	unpcklps	%xmm8, %xmm8
	.loc 1 207 0
	unpcklpd	%xmm1, %xmm1
	.loc 1 206 0
	cvtpd2ps	%xmm14, %xmm15
	.loc 1 211 0
	cvtps2pd	%xmm8, %xmm5
	.loc 1 209 0
	unpcklpd	%xmm3, %xmm3
	.loc 1 207 0
	cvtpd2ps	%xmm1, %xmm2
	.loc 1 211 0
	mulsd	.LC9(%rip), %xmm5
	.loc 1 195 0
	cvtps2pd	%xmm0, %xmm8
	.loc 1 205 0
	unpcklpd	%xmm12, %xmm12
	.loc 1 209 0
	cvtpd2ps	%xmm3, %xmm4
	.loc 1 195 0
	mulsd	.LC10(%rip), %xmm8
	.loc 1 216 0
	movaps	%xmm7, %xmm0
	.loc 1 205 0
	cvtpd2ps	%xmm12, %xmm13
.LVL15:
	.loc 1 211 0
	unpcklpd	%xmm5, %xmm5
	.loc 1 208 0
	addss	%xmm2, %xmm15
.LVL16:
	.loc 1 211 0
	cvtpd2ps	%xmm5, %xmm6
.LVL17:
	.loc 1 210 0
	addss	%xmm4, %xmm15
.LVL18:
	.loc 1 195 0
	unpcklpd	%xmm8, %xmm8
	cvtpd2ps	%xmm8, %xmm9
	.loc 1 212 0
	addss	%xmm6, %xmm15
	.loc 1 214 0
	addss	%xmm13, %xmm15
	.loc 1 215 0
	mulss	%xmm9, %xmm15
.LVL19:
	.loc 1 216 0
	subss	%xmm15, %xmm0
.LVL20:
	.loc 1 220 0
	je	.L4
	.loc 1 221 0
	subss	%xmm0, %xmm7
	movaps	%xmm7, %xmm0
.LVL21:
.L4:
.LBE42:
	.loc 1 225 0
	addq	$16, %rsp
.LCFI2:
	.cfi_remember_state
	.cfi_def_cfa_offset 16
	popq	%rbx
.LCFI3:
	.cfi_def_cfa_offset 8
.LVL22:
	ret
.LVL23:
	.p2align 4,,10
	.p2align 3
.L12:
.LCFI4:
	.cfi_restore_state
.LBB43:
	.loc 1 185 0
	movss	.LC1(%rip), %xmm2
	.loc 1 186 0
	movl	$1, %ebx
	.loc 1 185 0
	xorps	%xmm2, %xmm1
.LVL24:
	jmp	.L2
.LBE43:
	.cfi_endproc
.LFE76:
	.size	_Z4CNDFf, .-_Z4CNDFf
	.p2align 4,,15
	.globl	_Z19BlkSchlsEqEuroNoDivfffffif
	.type	_Z19BlkSchlsEqEuroNoDivfffffif, @function
_Z19BlkSchlsEqEuroNoDivfffffif:
.LFB77:
	.loc 1 234 0
	.cfi_startproc
.LVL25:
	pushq	%rbp
.LCFI5:
	.cfi_def_cfa_offset 16
	.cfi_offset 6, -16
	pushq	%rbx
.LCFI6:
	.cfi_def_cfa_offset 24
	.cfi_offset 3, -24
	movl	%edi, %ebx
	subq	$104, %rsp
.LCFI7:
	.cfi_def_cfa_offset 128
.LVL26:
	.loc 1 234 0
	movss	%xmm4, 60(%rsp)
.LBB51:
	.loc 1 265 0
	sqrtss	%xmm4, %xmm4
.LVL27:
	ucomiss	%xmm4, %xmm4
.LBE51:
	.loc 1 234 0
	movss	%xmm0, 68(%rsp)
	movss	%xmm1, 72(%rsp)
	movss	%xmm2, 76(%rsp)
.LBB64:
	.loc 1 265 0
	jp	.L37
.LVL28:
.L14:
	.loc 1 267 0
	divss	72(%rsp), %xmm0
	movss	%xmm3, 16(%rsp)
	movss	%xmm4, (%rsp)
	call	logf
.LVL29:
	.loc 1 272 0
	movss	16(%rsp), %xmm3
	movaps	%xmm3, %xmm2
	.loc 1 267 0
	movaps	%xmm0, %xmm1
.LVL30:
	.loc 1 279 0
	movss	(%rsp), %xmm5
	.loc 1 272 0
	mulss	%xmm3, %xmm2
.LVL31:
	.loc 1 279 0
	mulss	%xmm3, %xmm5
.LBB52:
.LBB53:
	.loc 1 184 0
	xorps	%xmm7, %xmm7
.LBE53:
.LBE52:
	.loc 1 273 0
	mulss	.LC11(%rip), %xmm2
.LVL32:
	.loc 1 275 0
	addss	76(%rsp), %xmm2
.LVL33:
	.loc 1 276 0
	mulss	60(%rsp), %xmm2
.LVL34:
	.loc 1 277 0
	addss	%xmm2, %xmm1
.LVL35:
	.loc 1 280 0
	divss	%xmm5, %xmm1
.LVL36:
	.loc 1 281 0
	movaps	%xmm1, %xmm0
.LVL37:
.LBB57:
.LBB54:
	.loc 1 184 0
	ucomiss	%xmm1, %xmm7
.LBE54:
.LBE57:
	.loc 1 281 0
	subss	%xmm5, %xmm0
	movaps	%xmm0, %xmm6
.LVL38:
.LBB58:
.LBB55:
	.loc 1 184 0
	ja	.L38
	movss	.LC1(%rip), %xmm8
	.loc 1 188 0
	xorl	%ebp, %ebp
	movaps	%xmm8, 80(%rsp)
.LVL39:
.L16:
	.loc 1 193 0
	movss	.LC2(%rip), %xmm10
	mulss	%xmm1, %xmm10
	movss	%xmm1, 32(%rsp)
	movss	%xmm6, (%rsp)
	mulss	%xmm1, %xmm10
	unpcklps	%xmm10, %xmm10
	cvtps2pd	%xmm10, %xmm0
.LVL40:
	call	exp
.LVL41:
	.loc 1 197 0
	movss	32(%rsp), %xmm11
	.loc 1 220 0
	testl	%ebp, %ebp
	.loc 1 197 0
	unpcklps	%xmm11, %xmm11
	.loc 1 198 0
	movss	.LC4(%rip), %xmm14
	.loc 1 193 0
	unpcklpd	%xmm0, %xmm0
.LVL42:
	.loc 1 199 0
	movaps	%xmm14, %xmm15
	.loc 1 197 0
	cvtps2pd	%xmm11, %xmm12
	.loc 1 193 0
	cvtpd2ps	%xmm0, %xmm0
	.loc 1 197 0
	mulsd	.LC3(%rip), %xmm12
	unpcklpd	%xmm12, %xmm12
	.loc 1 195 0
	unpcklps	%xmm0, %xmm0
	.loc 1 197 0
	cvtpd2ps	%xmm12, %xmm13
.LVL43:
	.loc 1 195 0
	cvtps2pd	%xmm0, %xmm12
	mulsd	.LC10(%rip), %xmm12
	.loc 1 198 0
	addss	%xmm14, %xmm13
.LVL44:
	.loc 1 195 0
	unpcklpd	%xmm12, %xmm12
	.loc 1 199 0
	divss	%xmm13, %xmm15
.LVL45:
	.loc 1 195 0
	cvtpd2ps	%xmm12, %xmm13
	.loc 1 200 0
	movaps	%xmm15, %xmm4
	.loc 1 201 0
	movaps	%xmm15, %xmm3
	.loc 1 202 0
	movaps	%xmm15, %xmm2
	.loc 1 200 0
	mulss	%xmm15, %xmm4
.LVL46:
	.loc 1 205 0
	unpcklps	%xmm15, %xmm15
.LVL47:
	.loc 1 201 0
	mulss	%xmm4, %xmm3
.LVL48:
	.loc 1 205 0
	cvtps2pd	%xmm15, %xmm1
	.loc 1 206 0
	unpcklps	%xmm4, %xmm4
.LVL49:
	.loc 1 205 0
	mulsd	.LC5(%rip), %xmm1
	.loc 1 202 0
	mulss	%xmm3, %xmm2
.LVL50:
	.loc 1 206 0
	cvtps2pd	%xmm4, %xmm6
	.loc 1 207 0
	unpcklps	%xmm3, %xmm3
.LVL51:
	.loc 1 206 0
	mulsd	.LC6(%rip), %xmm6
	.loc 1 209 0
	unpcklps	%xmm2, %xmm2
.LVL52:
	.loc 1 207 0
	cvtps2pd	%xmm3, %xmm8
	.loc 1 205 0
	unpcklpd	%xmm1, %xmm1
	.loc 1 216 0
	movaps	%xmm14, %xmm3
	.loc 1 203 0
	mulss	%xmm2, %xmm15
	.loc 1 209 0
	cvtps2pd	%xmm2, %xmm10
	.loc 1 207 0
	mulsd	.LC7(%rip), %xmm8
	.loc 1 206 0
	unpcklpd	%xmm6, %xmm6
	.loc 1 220 0
	movss	(%rsp), %xmm2
	.loc 1 209 0
	mulsd	.LC8(%rip), %xmm10
	.loc 1 211 0
	unpcklps	%xmm15, %xmm15
	.loc 1 206 0
	cvtpd2ps	%xmm6, %xmm7
	.loc 1 211 0
	cvtps2pd	%xmm15, %xmm15
	.loc 1 207 0
	unpcklpd	%xmm8, %xmm8
	.loc 1 209 0
	unpcklpd	%xmm10, %xmm10
	.loc 1 211 0
	mulsd	.LC9(%rip), %xmm15
	.loc 1 207 0
	cvtpd2ps	%xmm8, %xmm9
	.loc 1 209 0
	cvtpd2ps	%xmm10, %xmm11
	.loc 1 205 0
	cvtpd2ps	%xmm1, %xmm5
.LVL53:
	.loc 1 211 0
	unpcklpd	%xmm15, %xmm15
	.loc 1 208 0
	addss	%xmm9, %xmm7
.LVL54:
	.loc 1 211 0
	cvtpd2ps	%xmm15, %xmm4
	.loc 1 210 0
	addss	%xmm11, %xmm7
.LVL55:
	.loc 1 212 0
	addss	%xmm4, %xmm7
	.loc 1 214 0
	addss	%xmm7, %xmm5
	.loc 1 215 0
	mulss	%xmm5, %xmm13
	.loc 1 216 0
	subss	%xmm13, %xmm3
	movss	%xmm3, 64(%rsp)
.LVL56:
	.loc 1 220 0
	je	.L18
	.loc 1 221 0
	movaps	%xmm14, %xmm1
	subss	%xmm3, %xmm1
	movss	%xmm1, 64(%rsp)
.LVL57:
.L18:
.LBE55:
.LBE58:
.LBB59:
.LBB60:
	.loc 1 184 0
	xorps	%xmm5, %xmm5
	.loc 1 188 0
	xorl	%ebp, %ebp
.LVL58:
	.loc 1 184 0
	ucomiss	%xmm2, %xmm5
	ja	.L39
.L19:
.LVL59:
	.loc 1 193 0
	movss	.LC2(%rip), %xmm6
	mulss	%xmm2, %xmm6
	movss	%xmm14, 32(%rsp)
	movss	%xmm2, (%rsp)
	mulss	%xmm2, %xmm6
	unpcklps	%xmm6, %xmm6
	cvtps2pd	%xmm6, %xmm0
	call	exp
.LVL60:
	.loc 1 197 0
	movss	(%rsp), %xmm14
	.loc 1 220 0
	testl	%ebp, %ebp
	.loc 1 197 0
	unpcklps	%xmm14, %xmm14
	.loc 1 198 0
	movss	32(%rsp), %xmm9
	.loc 1 193 0
	unpcklpd	%xmm0, %xmm0
.LVL61:
	.loc 1 199 0
	movaps	%xmm9, %xmm10
	.loc 1 197 0
	cvtps2pd	%xmm14, %xmm7
	.loc 1 193 0
	cvtpd2ps	%xmm0, %xmm0
	.loc 1 197 0
	mulsd	.LC3(%rip), %xmm7
	unpcklpd	%xmm7, %xmm7
	.loc 1 195 0
	unpcklps	%xmm0, %xmm0
	.loc 1 197 0
	cvtpd2ps	%xmm7, %xmm8
.LVL62:
	.loc 1 195 0
	cvtps2pd	%xmm0, %xmm7
	mulsd	.LC10(%rip), %xmm7
	.loc 1 198 0
	addss	%xmm9, %xmm8
.LVL63:
	.loc 1 195 0
	unpcklpd	%xmm7, %xmm7
	.loc 1 199 0
	divss	%xmm8, %xmm10
.LVL64:
	.loc 1 195 0
	cvtpd2ps	%xmm7, %xmm8
	.loc 1 200 0
	movaps	%xmm10, %xmm11
	.loc 1 201 0
	movaps	%xmm10, %xmm12
	.loc 1 202 0
	movaps	%xmm10, %xmm13
	.loc 1 200 0
	mulss	%xmm10, %xmm11
.LVL65:
	.loc 1 205 0
	unpcklps	%xmm10, %xmm10
.LVL66:
	.loc 1 201 0
	mulss	%xmm11, %xmm12
.LVL67:
	.loc 1 205 0
	cvtps2pd	%xmm10, %xmm15
	.loc 1 206 0
	unpcklps	%xmm11, %xmm11
.LVL68:
	.loc 1 205 0
	mulsd	.LC5(%rip), %xmm15
	.loc 1 202 0
	mulss	%xmm12, %xmm13
.LVL69:
	.loc 1 206 0
	cvtps2pd	%xmm11, %xmm3
	.loc 1 207 0
	unpcklps	%xmm12, %xmm12
.LVL70:
	.loc 1 206 0
	mulsd	.LC6(%rip), %xmm3
	.loc 1 209 0
	unpcklps	%xmm13, %xmm13
.LVL71:
	.loc 1 207 0
	cvtps2pd	%xmm12, %xmm1
	.loc 1 205 0
	unpcklpd	%xmm15, %xmm15
	.loc 1 203 0
	mulss	%xmm13, %xmm10
	.loc 1 209 0
	cvtps2pd	%xmm13, %xmm6
	.loc 1 207 0
	mulsd	.LC7(%rip), %xmm1
	.loc 1 216 0
	movaps	%xmm9, %xmm13
	.loc 1 206 0
	unpcklpd	%xmm3, %xmm3
	.loc 1 209 0
	mulsd	.LC8(%rip), %xmm6
	.loc 1 211 0
	unpcklps	%xmm10, %xmm10
	.loc 1 206 0
	cvtpd2ps	%xmm3, %xmm2
	.loc 1 211 0
	cvtps2pd	%xmm10, %xmm10
	.loc 1 207 0
	unpcklpd	%xmm1, %xmm1
	.loc 1 209 0
	unpcklpd	%xmm6, %xmm6
	.loc 1 211 0
	mulsd	.LC9(%rip), %xmm10
	.loc 1 207 0
	cvtpd2ps	%xmm1, %xmm5
	.loc 1 209 0
	cvtpd2ps	%xmm6, %xmm14
	.loc 1 205 0
	cvtpd2ps	%xmm15, %xmm4
.LVL72:
	.loc 1 211 0
	unpcklpd	%xmm10, %xmm10
	.loc 1 208 0
	addss	%xmm5, %xmm2
.LVL73:
	.loc 1 211 0
	cvtpd2ps	%xmm10, %xmm11
	.loc 1 210 0
	addss	%xmm14, %xmm2
.LVL74:
	.loc 1 212 0
	addss	%xmm11, %xmm2
	.loc 1 214 0
	addss	%xmm2, %xmm4
	.loc 1 215 0
	mulss	%xmm4, %xmm8
	.loc 1 216 0
	subss	%xmm8, %xmm13
.LVL75:
	.loc 1 220 0
	je	.L21
	.loc 1 221 0
	movaps	%xmm9, %xmm12
	subss	%xmm13, %xmm12
	movaps	%xmm12, %xmm13
.LVL76:
.L21:
.LBE60:
.LBE59:
	.loc 1 289 0
	movss	76(%rsp), %xmm15
	xorps	80(%rsp), %xmm15
	movss	%xmm9, 32(%rsp)
	movss	%xmm13, 16(%rsp)
	mulss	60(%rsp), %xmm15
	unpcklps	%xmm15, %xmm15
	cvtps2pd	%xmm15, %xmm0
	call	exp
.LVL77:
	movss	72(%rsp), %xmm9
	.loc 1 290 0
	testl	%ebx, %ebx
	movss	32(%rsp), %xmm2
	.loc 1 289 0
	cvtps2pd	%xmm9, %xmm4
	.loc 1 290 0
	movss	16(%rsp), %xmm3
	.loc 1 289 0
	mulsd	%xmm0, %xmm4
	unpcklpd	%xmm4, %xmm4
	cvtpd2ps	%xmm4, %xmm1
.LVL78:
	.loc 1 290 0
	je	.L40
.LVL79:
	.loc 1 294 0
	movaps	%xmm2, %xmm0
	.loc 1 293 0
	subss	64(%rsp), %xmm2
	.loc 1 294 0
	subss	%xmm3, %xmm0
	.loc 1 295 0
	mulss	%xmm1, %xmm0
	mulss	68(%rsp), %xmm2
.LBE64:
	.loc 1 299 0
	addq	$104, %rsp
.LCFI8:
	.cfi_remember_state
	.cfi_def_cfa_offset 24
	popq	%rbx
.LCFI9:
	.cfi_def_cfa_offset 16
.LVL80:
	popq	%rbp
.LCFI10:
	.cfi_def_cfa_offset 8
.LVL81:
.LBB65:
	.loc 1 295 0
	subss	%xmm2, %xmm0
.LVL82:
.LBE65:
	.loc 1 299 0
	ret
.LVL83:
	.p2align 4,,10
	.p2align 3
.L40:
.LCFI11:
	.cfi_restore_state
.LBB66:
	.loc 1 291 0
	movss	68(%rsp), %xmm0
	mulss	%xmm3, %xmm1
.LVL84:
	mulss	64(%rsp), %xmm0
.LBE66:
	.loc 1 299 0
	addq	$104, %rsp
.LCFI12:
	.cfi_remember_state
	.cfi_def_cfa_offset 24
	popq	%rbx
.LCFI13:
	.cfi_def_cfa_offset 16
.LVL85:
	popq	%rbp
.LCFI14:
	.cfi_def_cfa_offset 8
.LVL86:
.LBB67:
	.loc 1 291 0
	subss	%xmm1, %xmm0
.LVL87:
.LBE67:
	.loc 1 299 0
	ret
.LVL88:
	.p2align 4,,10
	.p2align 3
.L39:
.LCFI15:
	.cfi_restore_state
.LBB68:
.LBB62:
.LBB61:
	.loc 1 185 0
	xorps	80(%rsp), %xmm2
.LVL89:
	.loc 1 186 0
	movl	$1, %ebp
	jmp	.L19
.LVL90:
	.p2align 4,,10
	.p2align 3
.L38:
.LBE61:
.LBE62:
.LBB63:
.LBB56:
	.loc 1 185 0
	movss	.LC1(%rip), %xmm9
	.loc 1 186 0
	movl	$1, %ebp
	.loc 1 185 0
	movaps	%xmm9, 80(%rsp)
	xorps	%xmm9, %xmm1
.LVL91:
	jmp	.L16
.LVL92:
.L37:
.LBE56:
.LBE63:
	.loc 1 265 0
	movss	60(%rsp), %xmm0
.LVL93:
	movss	%xmm3, 16(%rsp)
	call	sqrtf
.LVL94:
	movss	16(%rsp), %xmm3
	movaps	%xmm0, %xmm4
	movss	68(%rsp), %xmm0
	jmp	.L14
.LBE68:
	.cfi_endproc
.LFE77:
	.size	_Z19BlkSchlsEqEuroNoDivfffffif, .-_Z19BlkSchlsEqEuroNoDivfffffif
	.p2align 4,,15
	.globl	_Z9bs_threadPv
	.type	_Z9bs_threadPv, @function
_Z9bs_threadPv:
.LFB78:
	.loc 1 357 0
	.cfi_startproc
.LVL95:
	pushq	%r15
.LCFI16:
	.cfi_def_cfa_offset 16
	.cfi_offset 15, -16
	pushq	%r14
.LCFI17:
	.cfi_def_cfa_offset 24
	.cfi_offset 14, -24
	pushq	%r13
.LCFI18:
	.cfi_def_cfa_offset 32
	.cfi_offset 13, -32
.LBB79:
.LBB80:
.LBB81:
.LBB82:
.LBB83:
.LBB84:
	movl	$100, %r13d
.LBE84:
.LBE83:
.LBE82:
.LBE81:
.LBE80:
.LBE79:
	pushq	%r12
.LCFI19:
	.cfi_def_cfa_offset 40
	.cfi_offset 12, -40
	pushq	%rbp
.LCFI20:
	.cfi_def_cfa_offset 48
	.cfi_offset 6, -48
	pushq	%rbx
.LCFI21:
	.cfi_def_cfa_offset 56
	.cfi_offset 3, -56
	subq	$88, %rsp
.LCFI22:
	.cfi_def_cfa_offset 144
.LBB113:
	.loc 1 363 0
	movl	numOptions(%rip), %eax
	movl	(%rdi), %r14d
	movl	%eax, %edx
	sarl	$31, %edx
	idivl	nThreads(%rip)
	imull	%eax, %r14d
.LVL96:
	.loc 1 364 0
	addl	%r14d, %eax
	.loc 1 357 0
	movslq	%r14d, %rcx
	.loc 1 364 0
	movl	%eax, 68(%rsp)
.LVL97:
	.loc 1 357 0
	movl	68(%rsp), %esi
	leaq	0(,%rcx,4), %rbx
	movq	%rbx, 72(%rsp)
	subl	%r14d, %esi
	subl	$1, %esi
	leaq	1(%rcx,%rsi), %r12
	salq	$2, %r12
.LVL98:
	.p2align 4,,10
	.p2align 3
.L42:
	.loc 1 371 0 discriminator 1
	cmpl	68(%rsp), %r14d
	movq	72(%rsp), %r15
	movss	.LC4(%rip), %xmm2
	jl	.L53
	jmp	.L56
.LVL99:
	.p2align 4,,10
	.p2align 3
.L51:
.LBB109:
.LBB105:
.LBB101:
	.loc 1 293 0
	movaps	%xmm2, %xmm10
	.loc 1 294 0
	movaps	%xmm2, %xmm5
	.loc 1 293 0
	subss	52(%rsp), %xmm10
	.loc 1 294 0
	subss	%xmm7, %xmm5
	.loc 1 295 0
	mulss	%xmm6, %xmm5
	mulss	64(%rsp), %xmm10
	subss	%xmm10, %xmm5
.LVL100:
.L52:
.LBE101:
.LBE105:
.LBE109:
	.loc 1 379 0
	movq	prices(%rip), %rax
	movss	%xmm5, (%rax,%r15)
	addq	$4, %r15
	.loc 1 371 0
	cmpq	%r12, %r15
	je	.L56
.LVL101:
.L53:
	.loc 1 378 0 discriminator 2
	movq	otime(%rip), %rbp
	movq	rate(%rip), %r9
	movq	strike(%rip), %r10
	movq	sptprice(%rip), %r11
	movq	otype(%rip), %rdi
	movq	volatility(%rip), %r8
	movss	0(%rbp,%r15), %xmm1
	movss	%xmm1, 48(%rsp)
	movss	(%r9,%r15), %xmm0
	movl	(%rdi,%r15), %ebx
.LBB110:
.LBB106:
.LBB102:
	.loc 1 265 0 discriminator 2
	sqrtss	48(%rsp), %xmm6
	ucomiss	%xmm6, %xmm6
.LBE102:
.LBE106:
.LBE110:
	.loc 1 378 0 discriminator 2
	movss	(%r10,%r15), %xmm3
	movss	(%r11,%r15), %xmm4
	movss	(%r8,%r15), %xmm5
	movss	%xmm0, 56(%rsp)
	movss	%xmm3, 60(%rsp)
	movss	%xmm4, 64(%rsp)
.LVL102:
.LBB111:
.LBB107:
.LBB103:
	.loc 1 265 0 discriminator 2
	jp	.L71
.LVL103:
.L43:
	.loc 1 267 0 discriminator 2
	movss	64(%rsp), %xmm0
.LBB87:
.LBB88:
	.loc 1 188 0 discriminator 2
	xorl	%ebp, %ebp
.LBE88:
.LBE87:
	.loc 1 267 0 discriminator 2
	divss	60(%rsp), %xmm0
	movss	%xmm2, (%rsp)
	movss	%xmm6, 16(%rsp)
	movss	%xmm5, 32(%rsp)
	call	logf
.LVL104:
	.loc 1 272 0 discriminator 2
	movss	32(%rsp), %xmm8
	movaps	%xmm8, %xmm9
	.loc 1 267 0 discriminator 2
	movaps	%xmm0, %xmm7
.LVL105:
	.loc 1 279 0 discriminator 2
	movss	16(%rsp), %xmm10
	.loc 1 272 0 discriminator 2
	mulss	%xmm8, %xmm9
.LVL106:
.LBB94:
.LBB89:
	.loc 1 184 0 discriminator 2
	movss	(%rsp), %xmm14
.LBE89:
.LBE94:
	.loc 1 279 0 discriminator 2
	mulss	%xmm8, %xmm10
.LBB95:
.LBB90:
	.loc 1 184 0 discriminator 2
	xorps	%xmm13, %xmm13
.LBE90:
.LBE95:
	.loc 1 273 0 discriminator 2
	mulss	.LC11(%rip), %xmm9
.LVL107:
	.loc 1 275 0 discriminator 2
	addss	56(%rsp), %xmm9
.LVL108:
	.loc 1 276 0 discriminator 2
	mulss	48(%rsp), %xmm9
.LVL109:
	.loc 1 277 0 discriminator 2
	addss	%xmm9, %xmm7
.LVL110:
	.loc 1 280 0 discriminator 2
	divss	%xmm10, %xmm7
.LVL111:
	.loc 1 281 0 discriminator 2
	movaps	%xmm7, %xmm11
.LBB96:
.LBB91:
	.loc 1 184 0 discriminator 2
	ucomiss	%xmm7, %xmm13
.LBE91:
.LBE96:
	.loc 1 281 0 discriminator 2
	subss	%xmm10, %xmm11
	movaps	%xmm11, %xmm12
.LVL112:
.LBB97:
.LBB92:
	.loc 1 184 0 discriminator 2
	ja	.L72
.LVL113:
.L45:
	.loc 1 193 0
	movss	.LC2(%rip), %xmm15
	mulss	%xmm7, %xmm15
	movss	%xmm7, 32(%rsp)
	movss	%xmm14, (%rsp)
	movss	%xmm12, 16(%rsp)
	mulss	%xmm7, %xmm15
	unpcklps	%xmm15, %xmm15
	cvtps2pd	%xmm15, %xmm0
.LVL114:
	call	exp
.LVL115:
	.loc 1 197 0
	movss	32(%rsp), %xmm2
	.loc 1 220 0
	testl	%ebp, %ebp
	.loc 1 197 0
	unpcklps	%xmm2, %xmm2
	.loc 1 198 0
	movss	(%rsp), %xmm8
	.loc 1 193 0
	unpcklpd	%xmm0, %xmm0
.LVL116:
	.loc 1 199 0
	movaps	%xmm8, %xmm3
	.loc 1 197 0
	cvtps2pd	%xmm2, %xmm1
	.loc 1 193 0
	cvtpd2ps	%xmm0, %xmm0
	.loc 1 197 0
	mulsd	.LC3(%rip), %xmm1
	unpcklpd	%xmm1, %xmm1
	.loc 1 195 0
	unpcklps	%xmm0, %xmm0
	.loc 1 197 0
	cvtpd2ps	%xmm1, %xmm4
.LVL117:
	.loc 1 195 0
	cvtps2pd	%xmm0, %xmm1
	mulsd	.LC10(%rip), %xmm1
	.loc 1 198 0
	addss	%xmm8, %xmm4
.LVL118:
	.loc 1 195 0
	unpcklpd	%xmm1, %xmm1
	.loc 1 199 0
	divss	%xmm4, %xmm3
.LVL119:
	.loc 1 195 0
	cvtpd2ps	%xmm1, %xmm4
	.loc 1 200 0
	movaps	%xmm3, %xmm9
	.loc 1 201 0
	movaps	%xmm3, %xmm6
	.loc 1 202 0
	movaps	%xmm3, %xmm7
	.loc 1 200 0
	mulss	%xmm3, %xmm9
.LVL120:
	.loc 1 205 0
	unpcklps	%xmm3, %xmm3
.LVL121:
	.loc 1 201 0
	mulss	%xmm9, %xmm6
.LVL122:
	.loc 1 205 0
	cvtps2pd	%xmm3, %xmm5
	.loc 1 206 0
	unpcklps	%xmm9, %xmm9
.LVL123:
	.loc 1 205 0
	mulsd	.LC5(%rip), %xmm5
	.loc 1 202 0
	mulss	%xmm6, %xmm7
.LVL124:
	.loc 1 206 0
	cvtps2pd	%xmm9, %xmm11
	.loc 1 207 0
	unpcklps	%xmm6, %xmm6
.LVL125:
	.loc 1 206 0
	mulsd	.LC6(%rip), %xmm11
	.loc 1 209 0
	unpcklps	%xmm7, %xmm7
.LVL126:
	.loc 1 207 0
	cvtps2pd	%xmm6, %xmm13
	.loc 1 205 0
	unpcklpd	%xmm5, %xmm5
	.loc 1 216 0
	movaps	%xmm8, %xmm6
	.loc 1 203 0
	mulss	%xmm7, %xmm3
	.loc 1 209 0
	cvtps2pd	%xmm7, %xmm15
	.loc 1 207 0
	mulsd	.LC7(%rip), %xmm13
	.loc 1 206 0
	unpcklpd	%xmm11, %xmm11
	.loc 1 220 0
	movss	16(%rsp), %xmm7
	.loc 1 209 0
	mulsd	.LC8(%rip), %xmm15
	.loc 1 211 0
	unpcklps	%xmm3, %xmm3
	.loc 1 206 0
	cvtpd2ps	%xmm11, %xmm12
	.loc 1 211 0
	cvtps2pd	%xmm3, %xmm3
	.loc 1 207 0
	unpcklpd	%xmm13, %xmm13
	.loc 1 209 0
	unpcklpd	%xmm15, %xmm15
	.loc 1 211 0
	mulsd	.LC9(%rip), %xmm3
	.loc 1 207 0
	cvtpd2ps	%xmm13, %xmm14
	.loc 1 209 0
	cvtpd2ps	%xmm15, %xmm2
	.loc 1 205 0
	cvtpd2ps	%xmm5, %xmm10
.LVL127:
	.loc 1 211 0
	unpcklpd	%xmm3, %xmm3
	.loc 1 208 0
	addss	%xmm14, %xmm12
.LVL128:
	.loc 1 211 0
	cvtpd2ps	%xmm3, %xmm9
	.loc 1 210 0
	addss	%xmm2, %xmm12
.LVL129:
	.loc 1 212 0
	addss	%xmm9, %xmm12
	.loc 1 214 0
	addss	%xmm12, %xmm10
	.loc 1 215 0
	mulss	%xmm10, %xmm4
	.loc 1 216 0
	subss	%xmm4, %xmm6
	movss	%xmm6, 52(%rsp)
.LVL130:
	.loc 1 220 0
	je	.L47
	.loc 1 221 0
	movaps	%xmm8, %xmm5
	subss	%xmm6, %xmm5
	movss	%xmm5, 52(%rsp)
.LVL131:
.L47:
.LBE92:
.LBE97:
.LBB98:
.LBB85:
	.loc 1 184 0
	xorps	%xmm10, %xmm10
	.loc 1 188 0
	xorl	%ebp, %ebp
.LVL132:
	.loc 1 184 0
	ucomiss	%xmm7, %xmm10
	ja	.L73
.L48:
.LVL133:
	.loc 1 193 0
	movss	.LC2(%rip), %xmm11
	mulss	%xmm7, %xmm11
	movss	%xmm8, (%rsp)
	movss	%xmm7, 16(%rsp)
	mulss	%xmm7, %xmm11
	unpcklps	%xmm11, %xmm11
	cvtps2pd	%xmm11, %xmm0
	call	exp
.LVL134:
	.loc 1 197 0
	movss	16(%rsp), %xmm8
	.loc 1 220 0
	testl	%ebp, %ebp
	.loc 1 197 0
	unpcklps	%xmm8, %xmm8
	.loc 1 198 0
	movss	(%rsp), %xmm14
	.loc 1 193 0
	unpcklpd	%xmm0, %xmm0
.LVL135:
	.loc 1 199 0
	movaps	%xmm14, %xmm15
	.loc 1 197 0
	cvtps2pd	%xmm8, %xmm12
	.loc 1 193 0
	cvtpd2ps	%xmm0, %xmm0
	.loc 1 197 0
	mulsd	.LC3(%rip), %xmm12
	unpcklpd	%xmm12, %xmm12
	.loc 1 195 0
	unpcklps	%xmm0, %xmm0
	.loc 1 197 0
	cvtpd2ps	%xmm12, %xmm13
.LVL136:
	.loc 1 195 0
	cvtps2pd	%xmm0, %xmm12
	mulsd	.LC10(%rip), %xmm12
	.loc 1 198 0
	addss	%xmm14, %xmm13
.LVL137:
	.loc 1 195 0
	unpcklpd	%xmm12, %xmm12
	.loc 1 199 0
	divss	%xmm13, %xmm15
.LVL138:
	.loc 1 195 0
	cvtpd2ps	%xmm12, %xmm13
	.loc 1 200 0
	movaps	%xmm15, %xmm2
	.loc 1 201 0
	movaps	%xmm15, %xmm3
	.loc 1 202 0
	movaps	%xmm15, %xmm9
	.loc 1 200 0
	mulss	%xmm15, %xmm2
.LVL139:
	.loc 1 205 0
	unpcklps	%xmm15, %xmm15
.LVL140:
	.loc 1 201 0
	mulss	%xmm2, %xmm3
.LVL141:
	.loc 1 205 0
	cvtps2pd	%xmm15, %xmm1
	.loc 1 206 0
	unpcklps	%xmm2, %xmm2
.LVL142:
	.loc 1 205 0
	mulsd	.LC5(%rip), %xmm1
	.loc 1 202 0
	mulss	%xmm3, %xmm9
.LVL143:
	.loc 1 206 0
	cvtps2pd	%xmm2, %xmm6
	.loc 1 207 0
	unpcklps	%xmm3, %xmm3
.LVL144:
	.loc 1 206 0
	mulsd	.LC6(%rip), %xmm6
	.loc 1 209 0
	unpcklps	%xmm9, %xmm9
.LVL145:
	.loc 1 207 0
	cvtps2pd	%xmm3, %xmm5
	.loc 1 205 0
	unpcklpd	%xmm1, %xmm1
	.loc 1 216 0
	movaps	%xmm14, %xmm3
	.loc 1 203 0
	mulss	%xmm9, %xmm15
	.loc 1 209 0
	cvtps2pd	%xmm9, %xmm11
	.loc 1 207 0
	mulsd	.LC7(%rip), %xmm5
	.loc 1 206 0
	unpcklpd	%xmm6, %xmm6
	.loc 1 209 0
	mulsd	.LC8(%rip), %xmm11
	.loc 1 211 0
	unpcklps	%xmm15, %xmm15
	.loc 1 206 0
	cvtpd2ps	%xmm6, %xmm7
	.loc 1 211 0
	cvtps2pd	%xmm15, %xmm15
	.loc 1 207 0
	unpcklpd	%xmm5, %xmm5
	.loc 1 209 0
	unpcklpd	%xmm11, %xmm11
	.loc 1 211 0
	mulsd	.LC9(%rip), %xmm15
	.loc 1 207 0
	cvtpd2ps	%xmm5, %xmm10
	.loc 1 209 0
	cvtpd2ps	%xmm11, %xmm8
	.loc 1 205 0
	cvtpd2ps	%xmm1, %xmm4
.LVL146:
	.loc 1 211 0
	unpcklpd	%xmm15, %xmm15
	.loc 1 208 0
	addss	%xmm10, %xmm7
.LVL147:
	.loc 1 211 0
	cvtpd2ps	%xmm15, %xmm2
	.loc 1 210 0
	addss	%xmm8, %xmm7
.LVL148:
	.loc 1 212 0
	addss	%xmm2, %xmm7
	.loc 1 214 0
	addss	%xmm7, %xmm4
	.loc 1 215 0
	mulss	%xmm4, %xmm13
	.loc 1 216 0
	subss	%xmm13, %xmm3
.LVL149:
	.loc 1 220 0
	je	.L50
	.loc 1 221 0
	movaps	%xmm14, %xmm9
	subss	%xmm3, %xmm9
	movaps	%xmm9, %xmm3
.LVL150:
.L50:
.LBE85:
.LBE98:
	.loc 1 289 0
	movss	56(%rsp), %xmm1
	xorps	.LC1(%rip), %xmm1
	movss	%xmm14, (%rsp)
	movss	%xmm3, 32(%rsp)
	mulss	48(%rsp), %xmm1
	unpcklps	%xmm1, %xmm1
	cvtps2pd	%xmm1, %xmm0
	call	exp
.LVL151:
	movss	60(%rsp), %xmm14
	.loc 1 290 0
	testl	%ebx, %ebx
	movss	(%rsp), %xmm2
	.loc 1 289 0
	cvtps2pd	%xmm14, %xmm4
	.loc 1 290 0
	movss	32(%rsp), %xmm7
	.loc 1 289 0
	mulsd	%xmm0, %xmm4
	unpcklpd	%xmm4, %xmm4
	cvtpd2ps	%xmm4, %xmm6
.LVL152:
	.loc 1 290 0
	jne	.L51
	.loc 1 291 0
	movss	64(%rsp), %xmm5
	mulss	%xmm7, %xmm6
.LVL153:
	mulss	52(%rsp), %xmm5
	subss	%xmm6, %xmm5
.LVL154:
	jmp	.L52
.LVL155:
	.p2align 4,,10
	.p2align 3
.L73:
.LBB99:
.LBB86:
	.loc 1 185 0
	xorps	.LC1(%rip), %xmm7
.LVL156:
	.loc 1 186 0
	movl	$1, %ebp
	jmp	.L48
.LVL157:
	.p2align 4,,10
	.p2align 3
.L72:
.LBE86:
.LBE99:
.LBB100:
.LBB93:
	.loc 1 185 0
	xorps	.LC1(%rip), %xmm7
.LVL158:
	.loc 1 186 0
	movl	$1, %ebp
	jmp	.L45
.LVL159:
	.p2align 4,,10
	.p2align 3
.L56:
.LBE93:
.LBE100:
.LBE103:
.LBE107:
.LBE111:
	.loc 1 366 0
	subl	$1, %r13d
	jne	.L42
.LBE113:
	.loc 1 393 0
	addq	$88, %rsp
.LCFI23:
	.cfi_remember_state
	.cfi_def_cfa_offset 56
	xorl	%eax, %eax
	popq	%rbx
.LCFI24:
	.cfi_def_cfa_offset 48
	popq	%rbp
.LCFI25:
	.cfi_def_cfa_offset 40
	popq	%r12
.LCFI26:
	.cfi_def_cfa_offset 32
	popq	%r13
.LCFI27:
	.cfi_def_cfa_offset 24
	popq	%r14
.LCFI28:
	.cfi_def_cfa_offset 16
.LVL160:
	popq	%r15
.LCFI29:
	.cfi_def_cfa_offset 8
	ret
.LVL161:
.L71:
.LCFI30:
	.cfi_restore_state
.LBB114:
.LBB112:
.LBB108:
.LBB104:
	.loc 1 265 0 discriminator 2
	movss	48(%rsp), %xmm0
.LVL162:
	movss	%xmm2, (%rsp)
	movss	%xmm5, 32(%rsp)
	call	sqrtf
.LVL163:
	movss	32(%rsp), %xmm5
	movaps	%xmm0, %xmm6
	movss	(%rsp), %xmm2
	jmp	.L43
.LBE104:
.LBE108:
.LBE112:
.LBE114:
	.cfi_endproc
.LFE78:
	.size	_Z9bs_threadPv, .-_Z9bs_threadPv
	.section	.rodata.str1.1,"aMS",@progbits,1
.LC12:
	.string	"PARSEC Benchmark Suite"
	.section	.rodata.str1.8,"aMS",@progbits,1
	.align 8
.LC13:
	.string	"Usage:\n\t%s <nthreads> <inputFile> <outputFile>\n"
	.section	.rodata.str1.1
.LC14:
	.string	"r"
	.section	.rodata.str1.8
	.align 8
.LC15:
	.string	"ERROR: Unable to open file %s.\n"
	.section	.rodata.str1.1
.LC16:
	.string	"%i"
	.section	.rodata.str1.8
	.align 8
.LC17:
	.string	"ERROR: Unable to read from file %s.\n"
	.align 8
.LC18:
	.string	"WARNING: Not enough work, reducing number of threads to match number of options."
	.align 8
.LC19:
	.string	"Error: <nthreads> must be 1 (serial version)"
	.section	.rodata.str1.1
.LC20:
	.string	"%f %f %f %f %f %f %c %f %f"
	.section	.rodata.str1.8
	.align 8
.LC21:
	.string	"ERROR: Unable to close file %s.\n"
	.section	.rodata.str1.1
.LC22:
	.string	"Num of Options: %d\n"
.LC23:
	.string	"Num of Runs: %d\n"
.LC24:
	.string	"Size of data: %d\n"
.LC25:
	.string	"w"
.LC26:
	.string	"%i\n"
	.section	.rodata.str1.8
	.align 8
.LC27:
	.string	"ERROR: Unable to write to file %s.\n"
	.section	.rodata.str1.1
.LC28:
	.string	"%.18f\n"
	.section	.text.startup,"ax",@progbits
	.p2align 4,,15
	.globl	main
	.type	main, @function
main:
.LFB79:
	.loc 1 397 0
	.cfi_startproc
.LVL164:
	pushq	%r15
.LCFI31:
	.cfi_def_cfa_offset 16
	.cfi_offset 15, -16
	pushq	%r14
.LCFI32:
	.cfi_def_cfa_offset 24
	.cfi_offset 14, -24
	pushq	%r13
.LCFI33:
	.cfi_def_cfa_offset 32
	.cfi_offset 13, -32
	pushq	%r12
.LCFI34:
	.cfi_def_cfa_offset 40
	.cfi_offset 12, -40
	pushq	%rbp
.LCFI35:
	.cfi_def_cfa_offset 48
	.cfi_offset 6, -48
	movl	%edi, %ebp
.LBB115:
.LBB116:
.LBB117:
	.file 2 "/usr/include/x86_64-linux-gnu/bits/stdio2.h"
	.loc 2 105 0
	movl	$.LC12, %edi
.LVL165:
.LBE117:
.LBE116:
.LBE115:
	.loc 1 397 0
	pushq	%rbx
.LCFI36:
	.cfi_def_cfa_offset 56
	.cfi_offset 3, -56
	movq	%rsi, %rbx
	subq	$88, %rsp
.LCFI37:
	.cfi_def_cfa_offset 144
.LBB158:
.LBB119:
.LBB118:
	.loc 2 105 0
	call	puts
.LVL166:
.LBE118:
.LBE119:
	.loc 1 412 0
	xorl	%edi, %edi
	call	fflush
.LVL167:
	.loc 1 418 0
	cmpl	$4, %ebp
	jne	.L109
.LVL168:
.LBB120:
.LBB121:
	.file 3 "/usr/include/stdlib.h"
	.loc 3 286 0
	movq	8(%rbx), %rdi
	xorl	%esi, %esi
	movl	$10, %edx
	call	strtol
.LVL169:
.LBE121:
.LBE120:
	.loc 1 424 0
	movq	16(%rbx), %r14
.LVL170:
.LBB123:
.LBB122:
	.loc 3 286 0
	movl	%eax, nThreads(%rip)
.LBE122:
.LBE123:
	.loc 1 428 0
	movl	$.LC14, %esi
	.loc 1 425 0
	movq	24(%rbx), %rax
	.loc 1 428 0
	movq	%r14, %rdi
	.loc 1 425 0
	movq	%rax, 56(%rsp)
.LVL171:
	.loc 1 428 0
	call	fopen
.LVL172:
	.loc 1 429 0
	testq	%rax, %rax
	.loc 1 428 0
	movq	%rax, %r13
.LVL173:
	.loc 1 429 0
	je	.L110
	.loc 1 433 0
	movq	%rax, %rdi
	movl	$numOptions, %edx
	xorl	%eax, %eax
.LVL174:
	movl	$.LC16, %esi
	call	fscanf
.LVL175:
	.loc 1 434 0
	cmpl	$1, %eax
	jne	.L108
	.loc 1 439 0
	movl	nThreads(%rip), %edx
	cmpl	numOptions(%rip), %edx
	jg	.L111
.LVL176:
.L78:
	.loc 1 445 0
	cmpl	$1, %edx
	jne	.L112
	.loc 1 452 0
	movl	numOptions(%rip), %r12d
	movslq	%r12d, %rbp
.LVL177:
	leaq	0(%rbp,%rbp,8), %rdi
	salq	$2, %rdi
	call	malloc
.LVL178:
	.loc 1 453 0
	leaq	0(,%rbp,4), %rdi
	.loc 1 452 0
	movq	%rax, %r15
	movq	%rax, data(%rip)
	.loc 1 453 0
	call	malloc
.LVL179:
	.loc 1 454 0
	testl	%r12d, %r12d
	.loc 1 453 0
	movq	%rax, prices(%rip)
.LVL180:
	.loc 1 454 0
	jle	.L80
	xorl	%ebx, %ebx
.LVL181:
	xorl	%r12d, %r12d
	jmp	.L82
.LVL182:
	.p2align 4,,10
	.p2align 3
.L113:
	movq	data(%rip), %r15
.LVL183:
.L82:
	.loc 1 456 0
	leaq	(%r15,%rbx), %rdx
	xorl	%eax, %eax
	leaq	24(%rdx), %r8
	leaq	20(%rdx), %r9
	leaq	32(%rdx), %rsi
	leaq	28(%rdx), %rdi
	leaq	16(%rdx), %r10
	leaq	4(%rdx), %rcx
	movq	%r8, 16(%rsp)
	movq	%r9, 8(%rsp)
	leaq	8(%rdx), %r8
	leaq	12(%rdx), %r9
	movq	%rsi, 32(%rsp)
	movq	%rdi, 24(%rsp)
	movq	%r10, (%rsp)
	movl	$.LC20, %esi
	movq	%r13, %rdi
	call	fscanf
.LVL184:
	.loc 1 457 0
	cmpl	$9, %eax
	jne	.L108
	.loc 1 454 0
	addl	$1, %r12d
.LVL185:
	addq	$36, %rbx
	cmpl	%r12d, numOptions(%rip)
	jg	.L113
.LVL186:
.L80:
	.loc 1 463 0
	movq	%r13, %rdi
	call	fclose
.LVL187:
	.loc 1 464 0
	testl	%eax, %eax
	jne	.L114
.LVL188:
.LBB124:
.LBB125:
	.loc 2 105 0
	movl	numOptions(%rip), %edx
	movl	$.LC22, %esi
	movl	$1, %edi
	xorl	%eax, %eax
.LVL189:
	call	__printf_chk
.LVL190:
.LBE125:
.LBE124:
.LBB126:
.LBB127:
	movl	$100, %edx
	movl	$.LC23, %esi
	movl	$1, %edi
	xorl	%eax, %eax
	call	__printf_chk
.LVL191:
.LBE127:
.LBE126:
	.loc 1 488 0
	movl	numOptions(%rip), %ebp
	leal	0(%rbp,%rbp,4), %eax
	.loc 1 490 0
	movslq	%ebp, %rbx
	.loc 1 488 0
	cltq
	leaq	256(,%rax,4), %rdi
	call	malloc
.LVL192:
	.loc 1 489 0
	leaq	256(%rax), %r13
.LVL193:
	.loc 1 490 0
	leaq	0(,%rbx,4), %rcx
	.loc 1 495 0
	leaq	256(,%rbx,4), %rdi
	.loc 1 489 0
	andq	$-64, %r13
	.loc 1 490 0
	leaq	0(%r13,%rcx), %r11
	.loc 1 489 0
	movq	%r13, sptprice(%rip)
	.loc 1 491 0
	leaq	(%r11,%rcx), %r12
	.loc 1 490 0
	movq	%r11, strike(%rip)
	.loc 1 495 0
	movq	%r11, 48(%rsp)
	.loc 1 492 0
	leaq	(%r12,%rcx), %r14
.LVL194:
	.loc 1 491 0
	movq	%r12, rate(%rip)
	.loc 1 493 0
	leaq	(%r14,%rcx), %r15
	.loc 1 492 0
	movq	%r14, volatility(%rip)
	.loc 1 493 0
	movq	%r15, otime(%rip)
	.loc 1 495 0
	call	malloc
.LVL195:
	.loc 1 496 0
	addq	$256, %rax
.LVL196:
	.loc 1 498 0
	movq	48(%rsp), %r10
	.loc 1 496 0
	andq	$-64, %rax
.LVL197:
	.loc 1 498 0
	testl	%ebp, %ebp
	.loc 1 496 0
	movq	%rax, otype(%rip)
.LVL198:
	.loc 1 498 0
	jle	.L84
	movslq	numOptions(%rip), %rbx
	movq	data(%rip), %rbp
	.loc 1 396 0
	movq	%r13, %r11
	movq	%rax, %rdi
	subq	%rax, %r11
	.loc 1 499 0
	xorl	%edx, %edx
	.loc 1 396 0
	negq	%rdi
	leaq	4(%rax), %rcx
	addq	%rdi, %r10
	leaq	(%r12,%rdi), %r9
	leaq	(%r14,%rdi), %r8
	leal	-1(%rbx), %r13d
	addq	%r15, %rdi
	.loc 1 498 0
	movl	$1, %r12d
.LVL199:
	leaq	36(%rbp), %r14
	andl	$1, %r13d
	.loc 1 499 0
	cmpb	$80, 24(%rbp)
	sete	%dl
	.loc 1 498 0
	cmpl	$1, %ebx
	.loc 1 499 0
	movl	%edx, (%rax)
	.loc 1 500 0
	movss	0(%rbp), %xmm0
	movss	%xmm0, (%r11,%rax)
	.loc 1 501 0
	movss	4(%rbp), %xmm1
	movss	%xmm1, (%r10,%rax)
	.loc 1 502 0
	movss	8(%rbp), %xmm2
	movss	%xmm2, (%r9,%rax)
	.loc 1 503 0
	movss	16(%rbp), %xmm3
	movss	%xmm3, (%r8,%rax)
	.loc 1 504 0
	movss	20(%rbp), %xmm4
	movss	%xmm4, (%rdi,%rax)
	.loc 1 498 0
	jle	.L84
	testl	%r13d, %r13d
	je	.L85
	.loc 1 499 0
	xorl	%esi, %esi
	cmpb	$80, 24(%r14)
	.loc 1 498 0
	movl	$2, %r12d
	.loc 1 499 0
	sete	%sil
	.loc 1 498 0
	cmpl	$2, %ebx
	.loc 1 499 0
	movl	%esi, (%rcx)
	.loc 1 500 0
	movss	(%r14), %xmm5
	movss	%xmm5, (%r11,%rcx)
	.loc 1 501 0
	movss	4(%r14), %xmm6
	movss	%xmm6, (%r10,%rcx)
	.loc 1 502 0
	movss	8(%r14), %xmm7
	movss	%xmm7, (%r9,%rcx)
	.loc 1 503 0
	movss	16(%r14), %xmm8
	movss	%xmm8, (%r8,%rcx)
	.loc 1 504 0
	movss	20(%r14), %xmm9
	leaq	72(%rbp), %r14
	movss	%xmm9, (%rdi,%rcx)
	leaq	8(%rax), %rcx
	.loc 1 498 0
	jle	.L84
	.p2align 4,,10
	.p2align 3
.L85:
	.loc 1 499 0
	xorl	%eax, %eax
	cmpb	$80, 24(%r14)
	sete	%al
	xorl	%r15d, %r15d
	movl	%eax, (%rcx)
	.loc 1 500 0
	movss	(%r14), %xmm10
	movss	%xmm10, (%r11,%rcx)
	.loc 1 501 0
	movss	4(%r14), %xmm11
	movss	%xmm11, (%r10,%rcx)
	.loc 1 502 0
	movss	8(%r14), %xmm12
	movss	%xmm12, (%r9,%rcx)
	.loc 1 503 0
	movss	16(%r14), %xmm13
	movss	%xmm13, (%r8,%rcx)
	.loc 1 504 0
	movss	20(%r14), %xmm14
	movss	%xmm14, (%rdi,%rcx)
	.loc 1 499 0
	cmpb	$80, 60(%r14)
	sete	%r15b
	.loc 1 498 0
	addl	$2, %r12d
	.loc 1 499 0
	movl	%r15d, 4(%rcx)
	.loc 1 500 0
	movss	36(%r14), %xmm15
	movss	%xmm15, 4(%r11,%rcx)
	.loc 1 501 0
	movss	40(%r14), %xmm0
	movss	%xmm0, 4(%r10,%rcx)
	.loc 1 502 0
	movss	44(%r14), %xmm1
	movss	%xmm1, 4(%r9,%rcx)
	.loc 1 503 0
	movss	52(%r14), %xmm2
	movss	%xmm2, 4(%r8,%rcx)
	.loc 1 504 0
	movss	56(%r14), %xmm3
	addq	$72, %r14
	movss	%xmm3, 4(%rdi,%rcx)
	addq	$8, %rcx
	.loc 1 498 0
	cmpl	%r12d, %ebx
	jg	.L85
.L84:
.LVL200:
	.loc 1 507 0
	leaq	(%rbx,%rbx,4), %rdx
.LBB128:
.LBB129:
	.loc 2 105 0
	movl	$.LC24, %esi
	movl	$1, %edi
	xorl	%eax, %eax
.LBE129:
.LBE128:
	.loc 1 507 0
	salq	$3, %rdx
.LBB131:
.LBB130:
	.loc 2 105 0
	call	__printf_chk
.LVL201:
.LBE130:
.LBE131:
	.loc 1 572 0
	leaq	76(%rsp), %rdi
	.loc 1 571 0
	movl	$0, 76(%rsp)
.LVL202:
	.loc 1 572 0
	call	_Z9bs_threadPv
.LVL203:
	.loc 1 582 0
	movq	56(%rsp), %rdi
	movl	$.LC25, %esi
	call	fopen
.LVL204:
	.loc 1 583 0
	testq	%rax, %rax
	.loc 1 582 0
	movq	%rax, %r13
.LVL205:
	.loc 1 583 0
	je	.L115
.LVL206:
.LBB132:
.LBB133:
	.loc 2 99 0
	movl	numOptions(%rip), %ecx
	movq	%rax, %rdi
	movl	$.LC26, %edx
	xorl	%eax, %eax
.LVL207:
	movl	$1, %esi
	call	__fprintf_chk
.LVL208:
.LBE133:
.LBE132:
	.loc 1 588 0
	testl	%eax, %eax
	js	.L106
.LVL209:
	.loc 1 593 0 discriminator 1
	movl	numOptions(%rip), %r10d
	xorl	%ebp, %ebp
	xorl	%r12d, %r12d
	testl	%r10d, %r10d
	jle	.L89
.LVL210:
	.p2align 4,,10
	.p2align 3
.L93:
	.loc 1 594 0
	movq	prices(%rip), %r11
.LBB134:
.LBB135:
	.loc 2 99 0
	movl	$.LC28, %edx
	movl	$1, %esi
	movq	%r13, %rdi
	movl	$1, %eax
.LBE135:
.LBE134:
	.loc 1 594 0
	movss	(%r11,%rbp), %xmm4
	cvtps2pd	%xmm4, %xmm0
.LBB137:
.LBB136:
	.loc 2 99 0
	call	__fprintf_chk
.LVL211:
.LBE136:
.LBE137:
	.loc 1 595 0
	testl	%eax, %eax
	js	.L106
	.loc 1 593 0
	addl	$1, %r12d
.LVL212:
	addq	$4, %rbp
	cmpl	%r12d, numOptions(%rip)
	jg	.L93
.LVL213:
.L89:
	.loc 1 601 0
	movq	%r13, %rdi
	call	fclose
.LVL214:
	.loc 1 602 0
	testl	%eax, %eax
	jne	.L116
	.loc 1 610 0
	movq	data(%rip), %rdi
	call	free
.LVL215:
	.loc 1 611 0
	movq	prices(%rip), %rdi
	call	free
.LVL216:
.LBE158:
	.loc 1 618 0
	addq	$88, %rsp
.LCFI38:
	.cfi_remember_state
	.cfi_def_cfa_offset 56
	xorl	%eax, %eax
	popq	%rbx
.LCFI39:
	.cfi_def_cfa_offset 48
	popq	%rbp
.LCFI40:
	.cfi_def_cfa_offset 40
	popq	%r12
.LCFI41:
	.cfi_def_cfa_offset 32
	popq	%r13
.LCFI42:
	.cfi_def_cfa_offset 24
.LVL217:
	popq	%r14
.LCFI43:
	.cfi_def_cfa_offset 16
	popq	%r15
.LCFI44:
	.cfi_def_cfa_offset 8
	ret
.LVL218:
.L111:
.LCFI45:
	.cfi_restore_state
.LBB159:
.LBB138:
.LBB139:
	.loc 2 105 0
	movl	$.LC18, %edi
	call	puts
.LVL219:
.LBE139:
.LBE138:
	.loc 1 441 0
	movl	numOptions(%rip), %edx
	movl	%edx, nThreads(%rip)
	jmp	.L78
.LVL220:
.L108:
.LBB140:
.LBB141:
	.loc 2 105 0
	movq	%r14, %rdx
	movl	$.LC17, %esi
.LVL221:
.L105:
.LBE141:
.LBE140:
.LBB142:
.LBB143:
	movl	$1, %edi
	xorl	%eax, %eax
	call	__printf_chk
.LVL222:
.LBE143:
.LBE142:
	.loc 1 597 0
	movq	%r13, %rdi
	call	fclose
.LVL223:
	.loc 1 598 0
	movl	$1, %edi
	call	exit
.LVL224:
.L106:
.LBB145:
.LBB144:
	.loc 2 105 0
	movq	56(%rsp), %rdx
	movl	$.LC27, %esi
	jmp	.L105
.LVL225:
.L110:
.LBE144:
.LBE145:
.LBB146:
.LBB147:
	movq	%r14, %rdx
.LVL226:
.L107:
	movl	$.LC15, %esi
.LVL227:
.L104:
	movl	$1, %edi
	xorl	%eax, %eax
	call	__printf_chk
.LVL228:
.LBE147:
.LBE146:
	.loc 1 431 0
	movl	$1, %edi
	call	exit
.LVL229:
.L109:
.LBB148:
.LBB149:
	.loc 2 105 0
	movq	(%rbx), %rdx
	movl	$.LC13, %esi
	jmp	.L104
.LVL230:
.L116:
.LBE149:
.LBE148:
.LBB150:
.LBB151:
	movq	56(%rsp), %rdx
	movl	$.LC21, %esi
	jmp	.L104
.LVL231:
.L114:
.LBE151:
.LBE150:
.LBB152:
.LBB153:
	movq	%r14, %rdx
	movl	$.LC21, %esi
	jmp	.L104
.LVL232:
.L112:
.LBE153:
.LBE152:
.LBB154:
.LBB155:
	movl	$.LC19, %edi
	call	puts
.LVL233:
.LBE155:
.LBE154:
	.loc 1 447 0
	movl	$1, %edi
	call	exit
.LVL234:
.L115:
.LBB156:
.LBB157:
	.loc 2 105 0
	movq	56(%rsp), %rdx
	jmp	.L107
.LBE157:
.LBE156:
.LBE159:
	.cfi_endproc
.LFE79:
	.size	main, .-main
	.globl	nThreads
	.bss
	.align 16
	.type	nThreads, @object
	.size	nThreads, 4
nThreads:
	.zero	4
	.globl	numError
	.align 4
	.type	numError, @object
	.size	numError, 4
numError:
	.zero	4
	.globl	otime
	.align 8
	.type	otime, @object
	.size	otime, 8
otime:
	.zero	8
	.globl	volatility
	.align 8
	.type	volatility, @object
	.size	volatility, 8
volatility:
	.zero	8
	.globl	rate
	.align 8
	.type	rate, @object
	.size	rate, 8
rate:
	.zero	8
	.globl	strike
	.align 8
	.type	strike, @object
	.size	strike, 8
strike:
	.zero	8
	.globl	sptprice
	.align 8
	.type	sptprice, @object
	.size	sptprice, 8
sptprice:
	.zero	8
	.globl	otype
	.align 8
	.type	otype, @object
	.size	otype, 8
otype:
	.zero	8
	.globl	numOptions
	.align 16
	.type	numOptions, @object
	.size	numOptions, 4
numOptions:
	.zero	4
	.globl	prices
	.align 16
	.type	prices, @object
	.size	prices, 8
prices:
	.zero	8
	.globl	data
	.align 16
	.type	data, @object
	.size	data, 8
data:
	.zero	8
	.section	.rodata.cst16,"aM",@progbits,16
	.align 16
.LC1:
	.long	2147483648
	.long	0
	.long	0
	.long	0
	.section	.rodata.cst4,"aM",@progbits,4
	.align 4
.LC2:
	.long	3204448256
	.section	.rodata.cst8,"aM",@progbits,8
	.align 8
.LC3:
	.long	410062862
	.long	1070442097
	.section	.rodata.cst4
	.align 4
.LC4:
	.long	1065353216
	.section	.rodata.cst8
	.align 8
.LC5:
	.long	982710508
	.long	1070887103
	.align 8
.LC6:
	.long	3853005403
	.long	-1076440592
	.align 8
.LC7:
	.long	39804520
	.long	1073512687
	.align 8
.LC8:
	.long	1324513488
	.long	-1073929251
	.align 8
.LC9:
	.long	3606325571
	.long	1073039565
	.align 8
.LC10:
	.long	869545553
	.long	1071220805
	.section	.rodata.cst4
	.align 4
.LC11:
	.long	1056964608
	.text
.Letext0:
	.file 4 "/usr/lib/gcc/x86_64-linux-gnu/4.7/include/stddef.h"
	.file 5 "/usr/include/x86_64-linux-gnu/bits/types.h"
	.file 6 "/usr/include/stdio.h"
	.file 7 "/usr/include/libio.h"
	.file 8 "/usr/include/x86_64-linux-gnu/bits/mathcalls.h"
	.section	.note.GNU-stack,"",@progbits
